ARM GAS  /var/folders/8d/8djywmp92nx9cg9c5pcw0px00000gn/T//ccLp59Ij.s 			page 1


   1              		.cpu cortex-m7
   2              		.arch armv7e-m
   3              		.fpu fpv5-d16
   4              		.eabi_attribute 28, 1
   5              		.eabi_attribute 20, 1
   6              		.eabi_attribute 21, 1
   7              		.eabi_attribute 23, 3
   8              		.eabi_attribute 24, 1
   9              		.eabi_attribute 25, 1
  10              		.eabi_attribute 26, 1
  11              		.eabi_attribute 30, 1
  12              		.eabi_attribute 34, 1
  13              		.eabi_attribute 18, 4
  14              		.file	"stm32f7xx_ll_usb.c"
  15              		.text
  16              	.Ltext0:
  17              		.cfi_sections	.debug_frame
  18              		.file 1 "Drivers/STM32F7xx_HAL_Driver/Src/stm32f7xx_ll_usb.c"
  19              		.section	.text.USB_CoreReset,"ax",%progbits
  20              		.align	1
  21              		.syntax unified
  22              		.thumb
  23              		.thumb_func
  25              	USB_CoreReset:
  26              	.LVL0:
  27              	.LFB175:
   1:Drivers/STM32F7xx_HAL_Driver/Src/stm32f7xx_ll_usb.c **** /**
   2:Drivers/STM32F7xx_HAL_Driver/Src/stm32f7xx_ll_usb.c ****   ******************************************************************************
   3:Drivers/STM32F7xx_HAL_Driver/Src/stm32f7xx_ll_usb.c ****   * @file    stm32f7xx_ll_usb.c
   4:Drivers/STM32F7xx_HAL_Driver/Src/stm32f7xx_ll_usb.c ****   * @author  MCD Application Team
   5:Drivers/STM32F7xx_HAL_Driver/Src/stm32f7xx_ll_usb.c ****   * @brief   USB Low Layer HAL module driver.
   6:Drivers/STM32F7xx_HAL_Driver/Src/stm32f7xx_ll_usb.c ****   *
   7:Drivers/STM32F7xx_HAL_Driver/Src/stm32f7xx_ll_usb.c ****   *          This file provides firmware functions to manage the following
   8:Drivers/STM32F7xx_HAL_Driver/Src/stm32f7xx_ll_usb.c ****   *          functionalities of the USB Peripheral Controller:
   9:Drivers/STM32F7xx_HAL_Driver/Src/stm32f7xx_ll_usb.c ****   *           + Initialization/de-initialization functions
  10:Drivers/STM32F7xx_HAL_Driver/Src/stm32f7xx_ll_usb.c ****   *           + I/O operation functions
  11:Drivers/STM32F7xx_HAL_Driver/Src/stm32f7xx_ll_usb.c ****   *           + Peripheral Control functions
  12:Drivers/STM32F7xx_HAL_Driver/Src/stm32f7xx_ll_usb.c ****   *           + Peripheral State functions
  13:Drivers/STM32F7xx_HAL_Driver/Src/stm32f7xx_ll_usb.c ****   *
  14:Drivers/STM32F7xx_HAL_Driver/Src/stm32f7xx_ll_usb.c ****   ******************************************************************************
  15:Drivers/STM32F7xx_HAL_Driver/Src/stm32f7xx_ll_usb.c ****   * @attention
  16:Drivers/STM32F7xx_HAL_Driver/Src/stm32f7xx_ll_usb.c ****   *
  17:Drivers/STM32F7xx_HAL_Driver/Src/stm32f7xx_ll_usb.c ****   * Copyright (c) 2017 STMicroelectronics.
  18:Drivers/STM32F7xx_HAL_Driver/Src/stm32f7xx_ll_usb.c ****   * All rights reserved.
  19:Drivers/STM32F7xx_HAL_Driver/Src/stm32f7xx_ll_usb.c ****   *
  20:Drivers/STM32F7xx_HAL_Driver/Src/stm32f7xx_ll_usb.c ****   * This software is licensed under terms that can be found in the LICENSE file
  21:Drivers/STM32F7xx_HAL_Driver/Src/stm32f7xx_ll_usb.c ****   * in the root directory of this software component.
  22:Drivers/STM32F7xx_HAL_Driver/Src/stm32f7xx_ll_usb.c ****   * If no LICENSE file comes with this software, it is provided AS-IS.
  23:Drivers/STM32F7xx_HAL_Driver/Src/stm32f7xx_ll_usb.c ****   *
  24:Drivers/STM32F7xx_HAL_Driver/Src/stm32f7xx_ll_usb.c ****   ******************************************************************************
  25:Drivers/STM32F7xx_HAL_Driver/Src/stm32f7xx_ll_usb.c ****   @verbatim
  26:Drivers/STM32F7xx_HAL_Driver/Src/stm32f7xx_ll_usb.c ****   ==============================================================================
  27:Drivers/STM32F7xx_HAL_Driver/Src/stm32f7xx_ll_usb.c ****                     ##### How to use this driver #####
  28:Drivers/STM32F7xx_HAL_Driver/Src/stm32f7xx_ll_usb.c ****   ==============================================================================
  29:Drivers/STM32F7xx_HAL_Driver/Src/stm32f7xx_ll_usb.c ****     [..]
  30:Drivers/STM32F7xx_HAL_Driver/Src/stm32f7xx_ll_usb.c ****       (#) Fill parameters of Init structure in USB_CfgTypeDef structure.
  31:Drivers/STM32F7xx_HAL_Driver/Src/stm32f7xx_ll_usb.c **** 
ARM GAS  /var/folders/8d/8djywmp92nx9cg9c5pcw0px00000gn/T//ccLp59Ij.s 			page 2


  32:Drivers/STM32F7xx_HAL_Driver/Src/stm32f7xx_ll_usb.c ****       (#) Call USB_CoreInit() API to initialize the USB Core peripheral.
  33:Drivers/STM32F7xx_HAL_Driver/Src/stm32f7xx_ll_usb.c **** 
  34:Drivers/STM32F7xx_HAL_Driver/Src/stm32f7xx_ll_usb.c ****       (#) The upper HAL HCD/PCD driver will call the right routines for its internal processes.
  35:Drivers/STM32F7xx_HAL_Driver/Src/stm32f7xx_ll_usb.c **** 
  36:Drivers/STM32F7xx_HAL_Driver/Src/stm32f7xx_ll_usb.c ****   @endverbatim
  37:Drivers/STM32F7xx_HAL_Driver/Src/stm32f7xx_ll_usb.c **** 
  38:Drivers/STM32F7xx_HAL_Driver/Src/stm32f7xx_ll_usb.c ****   ******************************************************************************
  39:Drivers/STM32F7xx_HAL_Driver/Src/stm32f7xx_ll_usb.c ****   */
  40:Drivers/STM32F7xx_HAL_Driver/Src/stm32f7xx_ll_usb.c **** 
  41:Drivers/STM32F7xx_HAL_Driver/Src/stm32f7xx_ll_usb.c **** /* Includes ------------------------------------------------------------------*/
  42:Drivers/STM32F7xx_HAL_Driver/Src/stm32f7xx_ll_usb.c **** #include "stm32f7xx_hal.h"
  43:Drivers/STM32F7xx_HAL_Driver/Src/stm32f7xx_ll_usb.c **** 
  44:Drivers/STM32F7xx_HAL_Driver/Src/stm32f7xx_ll_usb.c **** /** @addtogroup STM32F7xx_LL_USB_DRIVER
  45:Drivers/STM32F7xx_HAL_Driver/Src/stm32f7xx_ll_usb.c ****   * @{
  46:Drivers/STM32F7xx_HAL_Driver/Src/stm32f7xx_ll_usb.c ****   */
  47:Drivers/STM32F7xx_HAL_Driver/Src/stm32f7xx_ll_usb.c **** 
  48:Drivers/STM32F7xx_HAL_Driver/Src/stm32f7xx_ll_usb.c **** #if defined (HAL_PCD_MODULE_ENABLED) || defined (HAL_HCD_MODULE_ENABLED)
  49:Drivers/STM32F7xx_HAL_Driver/Src/stm32f7xx_ll_usb.c **** #if defined (USB_OTG_FS) || defined (USB_OTG_HS)
  50:Drivers/STM32F7xx_HAL_Driver/Src/stm32f7xx_ll_usb.c **** /* Private typedef -----------------------------------------------------------*/
  51:Drivers/STM32F7xx_HAL_Driver/Src/stm32f7xx_ll_usb.c **** /* Private define ------------------------------------------------------------*/
  52:Drivers/STM32F7xx_HAL_Driver/Src/stm32f7xx_ll_usb.c **** /* Private macro -------------------------------------------------------------*/
  53:Drivers/STM32F7xx_HAL_Driver/Src/stm32f7xx_ll_usb.c **** /* Private variables ---------------------------------------------------------*/
  54:Drivers/STM32F7xx_HAL_Driver/Src/stm32f7xx_ll_usb.c **** /* Private function prototypes -----------------------------------------------*/
  55:Drivers/STM32F7xx_HAL_Driver/Src/stm32f7xx_ll_usb.c **** /* Private functions ---------------------------------------------------------*/
  56:Drivers/STM32F7xx_HAL_Driver/Src/stm32f7xx_ll_usb.c **** #if defined (USB_OTG_FS) || defined (USB_OTG_HS)
  57:Drivers/STM32F7xx_HAL_Driver/Src/stm32f7xx_ll_usb.c **** static HAL_StatusTypeDef USB_CoreReset(USB_OTG_GlobalTypeDef *USBx);
  58:Drivers/STM32F7xx_HAL_Driver/Src/stm32f7xx_ll_usb.c **** #ifdef USBPHYC
  59:Drivers/STM32F7xx_HAL_Driver/Src/stm32f7xx_ll_usb.c **** static HAL_StatusTypeDef USB_HS_PHYCInit(USB_OTG_GlobalTypeDef *USBx);
  60:Drivers/STM32F7xx_HAL_Driver/Src/stm32f7xx_ll_usb.c **** #endif /* USBPHYC */
  61:Drivers/STM32F7xx_HAL_Driver/Src/stm32f7xx_ll_usb.c **** 
  62:Drivers/STM32F7xx_HAL_Driver/Src/stm32f7xx_ll_usb.c **** /* Exported functions --------------------------------------------------------*/
  63:Drivers/STM32F7xx_HAL_Driver/Src/stm32f7xx_ll_usb.c **** /** @defgroup USB_LL_Exported_Functions USB Low Layer Exported Functions
  64:Drivers/STM32F7xx_HAL_Driver/Src/stm32f7xx_ll_usb.c ****   * @{
  65:Drivers/STM32F7xx_HAL_Driver/Src/stm32f7xx_ll_usb.c ****   */
  66:Drivers/STM32F7xx_HAL_Driver/Src/stm32f7xx_ll_usb.c **** 
  67:Drivers/STM32F7xx_HAL_Driver/Src/stm32f7xx_ll_usb.c **** /** @defgroup USB_LL_Exported_Functions_Group1 Initialization/de-initialization functions
  68:Drivers/STM32F7xx_HAL_Driver/Src/stm32f7xx_ll_usb.c ****   *  @brief    Initialization and Configuration functions
  69:Drivers/STM32F7xx_HAL_Driver/Src/stm32f7xx_ll_usb.c ****   *
  70:Drivers/STM32F7xx_HAL_Driver/Src/stm32f7xx_ll_usb.c **** @verbatim
  71:Drivers/STM32F7xx_HAL_Driver/Src/stm32f7xx_ll_usb.c ****  ===============================================================================
  72:Drivers/STM32F7xx_HAL_Driver/Src/stm32f7xx_ll_usb.c ****                       ##### Initialization/de-initialization functions #####
  73:Drivers/STM32F7xx_HAL_Driver/Src/stm32f7xx_ll_usb.c ****  ===============================================================================
  74:Drivers/STM32F7xx_HAL_Driver/Src/stm32f7xx_ll_usb.c **** 
  75:Drivers/STM32F7xx_HAL_Driver/Src/stm32f7xx_ll_usb.c **** @endverbatim
  76:Drivers/STM32F7xx_HAL_Driver/Src/stm32f7xx_ll_usb.c ****   * @{
  77:Drivers/STM32F7xx_HAL_Driver/Src/stm32f7xx_ll_usb.c ****   */
  78:Drivers/STM32F7xx_HAL_Driver/Src/stm32f7xx_ll_usb.c **** 
  79:Drivers/STM32F7xx_HAL_Driver/Src/stm32f7xx_ll_usb.c **** /**
  80:Drivers/STM32F7xx_HAL_Driver/Src/stm32f7xx_ll_usb.c ****   * @brief  Initializes the USB Core
  81:Drivers/STM32F7xx_HAL_Driver/Src/stm32f7xx_ll_usb.c ****   * @param  USBx USB Instance
  82:Drivers/STM32F7xx_HAL_Driver/Src/stm32f7xx_ll_usb.c ****   * @param  cfg pointer to a USB_OTG_CfgTypeDef structure that contains
  83:Drivers/STM32F7xx_HAL_Driver/Src/stm32f7xx_ll_usb.c ****   *         the configuration information for the specified USBx peripheral.
  84:Drivers/STM32F7xx_HAL_Driver/Src/stm32f7xx_ll_usb.c ****   * @retval HAL status
  85:Drivers/STM32F7xx_HAL_Driver/Src/stm32f7xx_ll_usb.c ****   */
  86:Drivers/STM32F7xx_HAL_Driver/Src/stm32f7xx_ll_usb.c **** HAL_StatusTypeDef USB_CoreInit(USB_OTG_GlobalTypeDef *USBx, USB_OTG_CfgTypeDef cfg)
  87:Drivers/STM32F7xx_HAL_Driver/Src/stm32f7xx_ll_usb.c **** {
  88:Drivers/STM32F7xx_HAL_Driver/Src/stm32f7xx_ll_usb.c ****   HAL_StatusTypeDef ret;
ARM GAS  /var/folders/8d/8djywmp92nx9cg9c5pcw0px00000gn/T//ccLp59Ij.s 			page 3


  89:Drivers/STM32F7xx_HAL_Driver/Src/stm32f7xx_ll_usb.c **** 
  90:Drivers/STM32F7xx_HAL_Driver/Src/stm32f7xx_ll_usb.c ****   if (cfg.phy_itface == USB_OTG_ULPI_PHY)
  91:Drivers/STM32F7xx_HAL_Driver/Src/stm32f7xx_ll_usb.c ****   {
  92:Drivers/STM32F7xx_HAL_Driver/Src/stm32f7xx_ll_usb.c ****     USBx->GCCFG &= ~(USB_OTG_GCCFG_PWRDWN);
  93:Drivers/STM32F7xx_HAL_Driver/Src/stm32f7xx_ll_usb.c **** 
  94:Drivers/STM32F7xx_HAL_Driver/Src/stm32f7xx_ll_usb.c ****     /* Init The ULPI Interface */
  95:Drivers/STM32F7xx_HAL_Driver/Src/stm32f7xx_ll_usb.c ****     USBx->GUSBCFG &= ~(USB_OTG_GUSBCFG_TSDPS | USB_OTG_GUSBCFG_ULPIFSLS | USB_OTG_GUSBCFG_PHYSEL);
  96:Drivers/STM32F7xx_HAL_Driver/Src/stm32f7xx_ll_usb.c **** 
  97:Drivers/STM32F7xx_HAL_Driver/Src/stm32f7xx_ll_usb.c **** #if defined(STM32F722xx) || defined(STM32F723xx) || defined(STM32F730xx) \
  98:Drivers/STM32F7xx_HAL_Driver/Src/stm32f7xx_ll_usb.c ****  || defined(STM32F732xx) || defined(STM32F733xx)
  99:Drivers/STM32F7xx_HAL_Driver/Src/stm32f7xx_ll_usb.c ****     /* Select ULPI Interface */
 100:Drivers/STM32F7xx_HAL_Driver/Src/stm32f7xx_ll_usb.c ****     USBx->GUSBCFG |= USB_OTG_GUSBCFG_ULPI_UTMI_SEL;
 101:Drivers/STM32F7xx_HAL_Driver/Src/stm32f7xx_ll_usb.c **** #endif /* defined(STM32F722xx) || defined(STM32F723xx) || defined(STM32F730xx) ||
 102:Drivers/STM32F7xx_HAL_Driver/Src/stm32f7xx_ll_usb.c ****           defined(STM32F732xx) || defined(STM32F733xx) */
 103:Drivers/STM32F7xx_HAL_Driver/Src/stm32f7xx_ll_usb.c **** 
 104:Drivers/STM32F7xx_HAL_Driver/Src/stm32f7xx_ll_usb.c ****     /* Select vbus source */
 105:Drivers/STM32F7xx_HAL_Driver/Src/stm32f7xx_ll_usb.c ****     USBx->GUSBCFG &= ~(USB_OTG_GUSBCFG_ULPIEVBUSD | USB_OTG_GUSBCFG_ULPIEVBUSI);
 106:Drivers/STM32F7xx_HAL_Driver/Src/stm32f7xx_ll_usb.c ****     if (cfg.use_external_vbus == 1U)
 107:Drivers/STM32F7xx_HAL_Driver/Src/stm32f7xx_ll_usb.c ****     {
 108:Drivers/STM32F7xx_HAL_Driver/Src/stm32f7xx_ll_usb.c ****       USBx->GUSBCFG |= USB_OTG_GUSBCFG_ULPIEVBUSD;
 109:Drivers/STM32F7xx_HAL_Driver/Src/stm32f7xx_ll_usb.c ****     }
 110:Drivers/STM32F7xx_HAL_Driver/Src/stm32f7xx_ll_usb.c **** 
 111:Drivers/STM32F7xx_HAL_Driver/Src/stm32f7xx_ll_usb.c ****     /* Reset after a PHY select */
 112:Drivers/STM32F7xx_HAL_Driver/Src/stm32f7xx_ll_usb.c ****     ret = USB_CoreReset(USBx);
 113:Drivers/STM32F7xx_HAL_Driver/Src/stm32f7xx_ll_usb.c ****   }
 114:Drivers/STM32F7xx_HAL_Driver/Src/stm32f7xx_ll_usb.c **** #if defined(STM32F722xx) || defined(STM32F723xx) || defined(STM32F730xx) \
 115:Drivers/STM32F7xx_HAL_Driver/Src/stm32f7xx_ll_usb.c ****  || defined(STM32F732xx) || defined(STM32F733xx)
 116:Drivers/STM32F7xx_HAL_Driver/Src/stm32f7xx_ll_usb.c ****   else if (cfg.phy_itface == USB_OTG_HS_EMBEDDED_PHY)
 117:Drivers/STM32F7xx_HAL_Driver/Src/stm32f7xx_ll_usb.c ****   {
 118:Drivers/STM32F7xx_HAL_Driver/Src/stm32f7xx_ll_usb.c ****     USBx->GCCFG &= ~(USB_OTG_GCCFG_PWRDWN);
 119:Drivers/STM32F7xx_HAL_Driver/Src/stm32f7xx_ll_usb.c **** 
 120:Drivers/STM32F7xx_HAL_Driver/Src/stm32f7xx_ll_usb.c ****     /* Init The UTMI Interface */
 121:Drivers/STM32F7xx_HAL_Driver/Src/stm32f7xx_ll_usb.c ****     USBx->GUSBCFG &= ~(USB_OTG_GUSBCFG_TSDPS | USB_OTG_GUSBCFG_ULPIFSLS | USB_OTG_GUSBCFG_PHYSEL);
 122:Drivers/STM32F7xx_HAL_Driver/Src/stm32f7xx_ll_usb.c **** 
 123:Drivers/STM32F7xx_HAL_Driver/Src/stm32f7xx_ll_usb.c ****     /* Select vbus source */
 124:Drivers/STM32F7xx_HAL_Driver/Src/stm32f7xx_ll_usb.c ****     USBx->GUSBCFG &= ~(USB_OTG_GUSBCFG_ULPIEVBUSD | USB_OTG_GUSBCFG_ULPIEVBUSI);
 125:Drivers/STM32F7xx_HAL_Driver/Src/stm32f7xx_ll_usb.c **** 
 126:Drivers/STM32F7xx_HAL_Driver/Src/stm32f7xx_ll_usb.c ****     /* Select UTMI Interface */
 127:Drivers/STM32F7xx_HAL_Driver/Src/stm32f7xx_ll_usb.c ****     USBx->GUSBCFG &= ~USB_OTG_GUSBCFG_ULPI_UTMI_SEL;
 128:Drivers/STM32F7xx_HAL_Driver/Src/stm32f7xx_ll_usb.c **** #ifdef USBPHYC
 129:Drivers/STM32F7xx_HAL_Driver/Src/stm32f7xx_ll_usb.c ****     /* Enable USB HS PHY */
 130:Drivers/STM32F7xx_HAL_Driver/Src/stm32f7xx_ll_usb.c ****     USBx->GCCFG |= USB_OTG_GCCFG_PHYHSEN;
 131:Drivers/STM32F7xx_HAL_Driver/Src/stm32f7xx_ll_usb.c **** 
 132:Drivers/STM32F7xx_HAL_Driver/Src/stm32f7xx_ll_usb.c ****     /* Enables control of a High Speed USB PHY */
 133:Drivers/STM32F7xx_HAL_Driver/Src/stm32f7xx_ll_usb.c ****     if (USB_HS_PHYCInit(USBx) != HAL_OK)
 134:Drivers/STM32F7xx_HAL_Driver/Src/stm32f7xx_ll_usb.c ****     {
 135:Drivers/STM32F7xx_HAL_Driver/Src/stm32f7xx_ll_usb.c ****       return HAL_ERROR;
 136:Drivers/STM32F7xx_HAL_Driver/Src/stm32f7xx_ll_usb.c ****     }
 137:Drivers/STM32F7xx_HAL_Driver/Src/stm32f7xx_ll_usb.c **** #endif /* USBPHYC */
 138:Drivers/STM32F7xx_HAL_Driver/Src/stm32f7xx_ll_usb.c **** 
 139:Drivers/STM32F7xx_HAL_Driver/Src/stm32f7xx_ll_usb.c ****     if (cfg.use_external_vbus == 1U)
 140:Drivers/STM32F7xx_HAL_Driver/Src/stm32f7xx_ll_usb.c ****     {
 141:Drivers/STM32F7xx_HAL_Driver/Src/stm32f7xx_ll_usb.c ****       USBx->GUSBCFG |= USB_OTG_GUSBCFG_ULPIEVBUSD;
 142:Drivers/STM32F7xx_HAL_Driver/Src/stm32f7xx_ll_usb.c ****     }
 143:Drivers/STM32F7xx_HAL_Driver/Src/stm32f7xx_ll_usb.c **** 
 144:Drivers/STM32F7xx_HAL_Driver/Src/stm32f7xx_ll_usb.c ****     /* Reset after a PHY select */
 145:Drivers/STM32F7xx_HAL_Driver/Src/stm32f7xx_ll_usb.c ****     ret = USB_CoreReset(USBx);
ARM GAS  /var/folders/8d/8djywmp92nx9cg9c5pcw0px00000gn/T//ccLp59Ij.s 			page 4


 146:Drivers/STM32F7xx_HAL_Driver/Src/stm32f7xx_ll_usb.c ****   }
 147:Drivers/STM32F7xx_HAL_Driver/Src/stm32f7xx_ll_usb.c **** #endif /* defined(STM32F722xx) || defined(STM32F723xx) || defined(STM32F730xx) ||
 148:Drivers/STM32F7xx_HAL_Driver/Src/stm32f7xx_ll_usb.c ****           defined(STM32F732xx) || defined(STM32F733xx) */
 149:Drivers/STM32F7xx_HAL_Driver/Src/stm32f7xx_ll_usb.c ****   else /* FS interface (embedded Phy) */
 150:Drivers/STM32F7xx_HAL_Driver/Src/stm32f7xx_ll_usb.c ****   {
 151:Drivers/STM32F7xx_HAL_Driver/Src/stm32f7xx_ll_usb.c ****     /* Select FS Embedded PHY */
 152:Drivers/STM32F7xx_HAL_Driver/Src/stm32f7xx_ll_usb.c ****     USBx->GUSBCFG |= USB_OTG_GUSBCFG_PHYSEL;
 153:Drivers/STM32F7xx_HAL_Driver/Src/stm32f7xx_ll_usb.c **** 
 154:Drivers/STM32F7xx_HAL_Driver/Src/stm32f7xx_ll_usb.c ****     /* Reset after a PHY select */
 155:Drivers/STM32F7xx_HAL_Driver/Src/stm32f7xx_ll_usb.c ****     ret = USB_CoreReset(USBx);
 156:Drivers/STM32F7xx_HAL_Driver/Src/stm32f7xx_ll_usb.c **** 
 157:Drivers/STM32F7xx_HAL_Driver/Src/stm32f7xx_ll_usb.c ****     /* Activate the USB Transceiver */
 158:Drivers/STM32F7xx_HAL_Driver/Src/stm32f7xx_ll_usb.c ****     USBx->GCCFG |= USB_OTG_GCCFG_PWRDWN;
 159:Drivers/STM32F7xx_HAL_Driver/Src/stm32f7xx_ll_usb.c ****   }
 160:Drivers/STM32F7xx_HAL_Driver/Src/stm32f7xx_ll_usb.c **** 
 161:Drivers/STM32F7xx_HAL_Driver/Src/stm32f7xx_ll_usb.c ****   if (cfg.dma_enable == 1U)
 162:Drivers/STM32F7xx_HAL_Driver/Src/stm32f7xx_ll_usb.c ****   {
 163:Drivers/STM32F7xx_HAL_Driver/Src/stm32f7xx_ll_usb.c ****     USBx->GAHBCFG |= USB_OTG_GAHBCFG_HBSTLEN_2;
 164:Drivers/STM32F7xx_HAL_Driver/Src/stm32f7xx_ll_usb.c ****     USBx->GAHBCFG |= USB_OTG_GAHBCFG_DMAEN;
 165:Drivers/STM32F7xx_HAL_Driver/Src/stm32f7xx_ll_usb.c ****   }
 166:Drivers/STM32F7xx_HAL_Driver/Src/stm32f7xx_ll_usb.c **** 
 167:Drivers/STM32F7xx_HAL_Driver/Src/stm32f7xx_ll_usb.c ****   return ret;
 168:Drivers/STM32F7xx_HAL_Driver/Src/stm32f7xx_ll_usb.c **** }
 169:Drivers/STM32F7xx_HAL_Driver/Src/stm32f7xx_ll_usb.c **** 
 170:Drivers/STM32F7xx_HAL_Driver/Src/stm32f7xx_ll_usb.c **** 
 171:Drivers/STM32F7xx_HAL_Driver/Src/stm32f7xx_ll_usb.c **** /**
 172:Drivers/STM32F7xx_HAL_Driver/Src/stm32f7xx_ll_usb.c ****   * @brief  Set the USB turnaround time
 173:Drivers/STM32F7xx_HAL_Driver/Src/stm32f7xx_ll_usb.c ****   * @param  USBx USB Instance
 174:Drivers/STM32F7xx_HAL_Driver/Src/stm32f7xx_ll_usb.c ****   * @param  hclk: AHB clock frequency
 175:Drivers/STM32F7xx_HAL_Driver/Src/stm32f7xx_ll_usb.c ****   * @retval USB turnaround time In PHY Clocks number
 176:Drivers/STM32F7xx_HAL_Driver/Src/stm32f7xx_ll_usb.c ****   */
 177:Drivers/STM32F7xx_HAL_Driver/Src/stm32f7xx_ll_usb.c **** HAL_StatusTypeDef USB_SetTurnaroundTime(USB_OTG_GlobalTypeDef *USBx,
 178:Drivers/STM32F7xx_HAL_Driver/Src/stm32f7xx_ll_usb.c ****                                         uint32_t hclk, uint8_t speed)
 179:Drivers/STM32F7xx_HAL_Driver/Src/stm32f7xx_ll_usb.c **** {
 180:Drivers/STM32F7xx_HAL_Driver/Src/stm32f7xx_ll_usb.c ****   uint32_t UsbTrd;
 181:Drivers/STM32F7xx_HAL_Driver/Src/stm32f7xx_ll_usb.c **** 
 182:Drivers/STM32F7xx_HAL_Driver/Src/stm32f7xx_ll_usb.c ****   /* The USBTRD is configured according to the tables below, depending on AHB frequency
 183:Drivers/STM32F7xx_HAL_Driver/Src/stm32f7xx_ll_usb.c ****   used by application. In the low AHB frequency range it is used to stretch enough the USB response
 184:Drivers/STM32F7xx_HAL_Driver/Src/stm32f7xx_ll_usb.c ****   time to IN tokens, the USB turnaround time, so to compensate for the longer AHB read access
 185:Drivers/STM32F7xx_HAL_Driver/Src/stm32f7xx_ll_usb.c ****   latency to the Data FIFO */
 186:Drivers/STM32F7xx_HAL_Driver/Src/stm32f7xx_ll_usb.c ****   if (speed == USBD_FS_SPEED)
 187:Drivers/STM32F7xx_HAL_Driver/Src/stm32f7xx_ll_usb.c ****   {
 188:Drivers/STM32F7xx_HAL_Driver/Src/stm32f7xx_ll_usb.c ****     if ((hclk >= 14200000U) && (hclk < 15000000U))
 189:Drivers/STM32F7xx_HAL_Driver/Src/stm32f7xx_ll_usb.c ****     {
 190:Drivers/STM32F7xx_HAL_Driver/Src/stm32f7xx_ll_usb.c ****       /* hclk Clock Range between 14.2-15 MHz */
 191:Drivers/STM32F7xx_HAL_Driver/Src/stm32f7xx_ll_usb.c ****       UsbTrd = 0xFU;
 192:Drivers/STM32F7xx_HAL_Driver/Src/stm32f7xx_ll_usb.c ****     }
 193:Drivers/STM32F7xx_HAL_Driver/Src/stm32f7xx_ll_usb.c ****     else if ((hclk >= 15000000U) && (hclk < 16000000U))
 194:Drivers/STM32F7xx_HAL_Driver/Src/stm32f7xx_ll_usb.c ****     {
 195:Drivers/STM32F7xx_HAL_Driver/Src/stm32f7xx_ll_usb.c ****       /* hclk Clock Range between 15-16 MHz */
 196:Drivers/STM32F7xx_HAL_Driver/Src/stm32f7xx_ll_usb.c ****       UsbTrd = 0xEU;
 197:Drivers/STM32F7xx_HAL_Driver/Src/stm32f7xx_ll_usb.c ****     }
 198:Drivers/STM32F7xx_HAL_Driver/Src/stm32f7xx_ll_usb.c ****     else if ((hclk >= 16000000U) && (hclk < 17200000U))
 199:Drivers/STM32F7xx_HAL_Driver/Src/stm32f7xx_ll_usb.c ****     {
 200:Drivers/STM32F7xx_HAL_Driver/Src/stm32f7xx_ll_usb.c ****       /* hclk Clock Range between 16-17.2 MHz */
 201:Drivers/STM32F7xx_HAL_Driver/Src/stm32f7xx_ll_usb.c ****       UsbTrd = 0xDU;
 202:Drivers/STM32F7xx_HAL_Driver/Src/stm32f7xx_ll_usb.c ****     }
ARM GAS  /var/folders/8d/8djywmp92nx9cg9c5pcw0px00000gn/T//ccLp59Ij.s 			page 5


 203:Drivers/STM32F7xx_HAL_Driver/Src/stm32f7xx_ll_usb.c ****     else if ((hclk >= 17200000U) && (hclk < 18500000U))
 204:Drivers/STM32F7xx_HAL_Driver/Src/stm32f7xx_ll_usb.c ****     {
 205:Drivers/STM32F7xx_HAL_Driver/Src/stm32f7xx_ll_usb.c ****       /* hclk Clock Range between 17.2-18.5 MHz */
 206:Drivers/STM32F7xx_HAL_Driver/Src/stm32f7xx_ll_usb.c ****       UsbTrd = 0xCU;
 207:Drivers/STM32F7xx_HAL_Driver/Src/stm32f7xx_ll_usb.c ****     }
 208:Drivers/STM32F7xx_HAL_Driver/Src/stm32f7xx_ll_usb.c ****     else if ((hclk >= 18500000U) && (hclk < 20000000U))
 209:Drivers/STM32F7xx_HAL_Driver/Src/stm32f7xx_ll_usb.c ****     {
 210:Drivers/STM32F7xx_HAL_Driver/Src/stm32f7xx_ll_usb.c ****       /* hclk Clock Range between 18.5-20 MHz */
 211:Drivers/STM32F7xx_HAL_Driver/Src/stm32f7xx_ll_usb.c ****       UsbTrd = 0xBU;
 212:Drivers/STM32F7xx_HAL_Driver/Src/stm32f7xx_ll_usb.c ****     }
 213:Drivers/STM32F7xx_HAL_Driver/Src/stm32f7xx_ll_usb.c ****     else if ((hclk >= 20000000U) && (hclk < 21800000U))
 214:Drivers/STM32F7xx_HAL_Driver/Src/stm32f7xx_ll_usb.c ****     {
 215:Drivers/STM32F7xx_HAL_Driver/Src/stm32f7xx_ll_usb.c ****       /* hclk Clock Range between 20-21.8 MHz */
 216:Drivers/STM32F7xx_HAL_Driver/Src/stm32f7xx_ll_usb.c ****       UsbTrd = 0xAU;
 217:Drivers/STM32F7xx_HAL_Driver/Src/stm32f7xx_ll_usb.c ****     }
 218:Drivers/STM32F7xx_HAL_Driver/Src/stm32f7xx_ll_usb.c ****     else if ((hclk >= 21800000U) && (hclk < 24000000U))
 219:Drivers/STM32F7xx_HAL_Driver/Src/stm32f7xx_ll_usb.c ****     {
 220:Drivers/STM32F7xx_HAL_Driver/Src/stm32f7xx_ll_usb.c ****       /* hclk Clock Range between 21.8-24 MHz */
 221:Drivers/STM32F7xx_HAL_Driver/Src/stm32f7xx_ll_usb.c ****       UsbTrd = 0x9U;
 222:Drivers/STM32F7xx_HAL_Driver/Src/stm32f7xx_ll_usb.c ****     }
 223:Drivers/STM32F7xx_HAL_Driver/Src/stm32f7xx_ll_usb.c ****     else if ((hclk >= 24000000U) && (hclk < 27700000U))
 224:Drivers/STM32F7xx_HAL_Driver/Src/stm32f7xx_ll_usb.c ****     {
 225:Drivers/STM32F7xx_HAL_Driver/Src/stm32f7xx_ll_usb.c ****       /* hclk Clock Range between 24-27.7 MHz */
 226:Drivers/STM32F7xx_HAL_Driver/Src/stm32f7xx_ll_usb.c ****       UsbTrd = 0x8U;
 227:Drivers/STM32F7xx_HAL_Driver/Src/stm32f7xx_ll_usb.c ****     }
 228:Drivers/STM32F7xx_HAL_Driver/Src/stm32f7xx_ll_usb.c ****     else if ((hclk >= 27700000U) && (hclk < 32000000U))
 229:Drivers/STM32F7xx_HAL_Driver/Src/stm32f7xx_ll_usb.c ****     {
 230:Drivers/STM32F7xx_HAL_Driver/Src/stm32f7xx_ll_usb.c ****       /* hclk Clock Range between 27.7-32 MHz */
 231:Drivers/STM32F7xx_HAL_Driver/Src/stm32f7xx_ll_usb.c ****       UsbTrd = 0x7U;
 232:Drivers/STM32F7xx_HAL_Driver/Src/stm32f7xx_ll_usb.c ****     }
 233:Drivers/STM32F7xx_HAL_Driver/Src/stm32f7xx_ll_usb.c ****     else /* if(hclk >= 32000000) */
 234:Drivers/STM32F7xx_HAL_Driver/Src/stm32f7xx_ll_usb.c ****     {
 235:Drivers/STM32F7xx_HAL_Driver/Src/stm32f7xx_ll_usb.c ****       /* hclk Clock Range between 32-200 MHz */
 236:Drivers/STM32F7xx_HAL_Driver/Src/stm32f7xx_ll_usb.c ****       UsbTrd = 0x6U;
 237:Drivers/STM32F7xx_HAL_Driver/Src/stm32f7xx_ll_usb.c ****     }
 238:Drivers/STM32F7xx_HAL_Driver/Src/stm32f7xx_ll_usb.c ****   }
 239:Drivers/STM32F7xx_HAL_Driver/Src/stm32f7xx_ll_usb.c ****   else if (speed == USBD_HS_SPEED)
 240:Drivers/STM32F7xx_HAL_Driver/Src/stm32f7xx_ll_usb.c ****   {
 241:Drivers/STM32F7xx_HAL_Driver/Src/stm32f7xx_ll_usb.c ****     UsbTrd = USBD_HS_TRDT_VALUE;
 242:Drivers/STM32F7xx_HAL_Driver/Src/stm32f7xx_ll_usb.c ****   }
 243:Drivers/STM32F7xx_HAL_Driver/Src/stm32f7xx_ll_usb.c ****   else
 244:Drivers/STM32F7xx_HAL_Driver/Src/stm32f7xx_ll_usb.c ****   {
 245:Drivers/STM32F7xx_HAL_Driver/Src/stm32f7xx_ll_usb.c ****     UsbTrd = USBD_DEFAULT_TRDT_VALUE;
 246:Drivers/STM32F7xx_HAL_Driver/Src/stm32f7xx_ll_usb.c ****   }
 247:Drivers/STM32F7xx_HAL_Driver/Src/stm32f7xx_ll_usb.c **** 
 248:Drivers/STM32F7xx_HAL_Driver/Src/stm32f7xx_ll_usb.c ****   USBx->GUSBCFG &= ~USB_OTG_GUSBCFG_TRDT;
 249:Drivers/STM32F7xx_HAL_Driver/Src/stm32f7xx_ll_usb.c ****   USBx->GUSBCFG |= (uint32_t)((UsbTrd << 10) & USB_OTG_GUSBCFG_TRDT);
 250:Drivers/STM32F7xx_HAL_Driver/Src/stm32f7xx_ll_usb.c **** 
 251:Drivers/STM32F7xx_HAL_Driver/Src/stm32f7xx_ll_usb.c ****   return HAL_OK;
 252:Drivers/STM32F7xx_HAL_Driver/Src/stm32f7xx_ll_usb.c **** }
 253:Drivers/STM32F7xx_HAL_Driver/Src/stm32f7xx_ll_usb.c **** 
 254:Drivers/STM32F7xx_HAL_Driver/Src/stm32f7xx_ll_usb.c **** /**
 255:Drivers/STM32F7xx_HAL_Driver/Src/stm32f7xx_ll_usb.c ****   * @brief  USB_EnableGlobalInt
 256:Drivers/STM32F7xx_HAL_Driver/Src/stm32f7xx_ll_usb.c ****   *         Enables the controller's Global Int in the AHB Config reg
 257:Drivers/STM32F7xx_HAL_Driver/Src/stm32f7xx_ll_usb.c ****   * @param  USBx  Selected device
 258:Drivers/STM32F7xx_HAL_Driver/Src/stm32f7xx_ll_usb.c ****   * @retval HAL status
 259:Drivers/STM32F7xx_HAL_Driver/Src/stm32f7xx_ll_usb.c ****   */
ARM GAS  /var/folders/8d/8djywmp92nx9cg9c5pcw0px00000gn/T//ccLp59Ij.s 			page 6


 260:Drivers/STM32F7xx_HAL_Driver/Src/stm32f7xx_ll_usb.c **** HAL_StatusTypeDef USB_EnableGlobalInt(USB_OTG_GlobalTypeDef *USBx)
 261:Drivers/STM32F7xx_HAL_Driver/Src/stm32f7xx_ll_usb.c **** {
 262:Drivers/STM32F7xx_HAL_Driver/Src/stm32f7xx_ll_usb.c ****   USBx->GAHBCFG |= USB_OTG_GAHBCFG_GINT;
 263:Drivers/STM32F7xx_HAL_Driver/Src/stm32f7xx_ll_usb.c ****   return HAL_OK;
 264:Drivers/STM32F7xx_HAL_Driver/Src/stm32f7xx_ll_usb.c **** }
 265:Drivers/STM32F7xx_HAL_Driver/Src/stm32f7xx_ll_usb.c **** 
 266:Drivers/STM32F7xx_HAL_Driver/Src/stm32f7xx_ll_usb.c **** /**
 267:Drivers/STM32F7xx_HAL_Driver/Src/stm32f7xx_ll_usb.c ****   * @brief  USB_DisableGlobalInt
 268:Drivers/STM32F7xx_HAL_Driver/Src/stm32f7xx_ll_usb.c ****   *         Disable the controller's Global Int in the AHB Config reg
 269:Drivers/STM32F7xx_HAL_Driver/Src/stm32f7xx_ll_usb.c ****   * @param  USBx  Selected device
 270:Drivers/STM32F7xx_HAL_Driver/Src/stm32f7xx_ll_usb.c ****   * @retval HAL status
 271:Drivers/STM32F7xx_HAL_Driver/Src/stm32f7xx_ll_usb.c ****   */
 272:Drivers/STM32F7xx_HAL_Driver/Src/stm32f7xx_ll_usb.c **** HAL_StatusTypeDef USB_DisableGlobalInt(USB_OTG_GlobalTypeDef *USBx)
 273:Drivers/STM32F7xx_HAL_Driver/Src/stm32f7xx_ll_usb.c **** {
 274:Drivers/STM32F7xx_HAL_Driver/Src/stm32f7xx_ll_usb.c ****   USBx->GAHBCFG &= ~USB_OTG_GAHBCFG_GINT;
 275:Drivers/STM32F7xx_HAL_Driver/Src/stm32f7xx_ll_usb.c ****   return HAL_OK;
 276:Drivers/STM32F7xx_HAL_Driver/Src/stm32f7xx_ll_usb.c **** }
 277:Drivers/STM32F7xx_HAL_Driver/Src/stm32f7xx_ll_usb.c **** 
 278:Drivers/STM32F7xx_HAL_Driver/Src/stm32f7xx_ll_usb.c **** /**
 279:Drivers/STM32F7xx_HAL_Driver/Src/stm32f7xx_ll_usb.c ****   * @brief  USB_SetCurrentMode Set functional mode
 280:Drivers/STM32F7xx_HAL_Driver/Src/stm32f7xx_ll_usb.c ****   * @param  USBx  Selected device
 281:Drivers/STM32F7xx_HAL_Driver/Src/stm32f7xx_ll_usb.c ****   * @param  mode  current core mode
 282:Drivers/STM32F7xx_HAL_Driver/Src/stm32f7xx_ll_usb.c ****   *          This parameter can be one of these values:
 283:Drivers/STM32F7xx_HAL_Driver/Src/stm32f7xx_ll_usb.c ****   *            @arg USB_DEVICE_MODE Peripheral mode
 284:Drivers/STM32F7xx_HAL_Driver/Src/stm32f7xx_ll_usb.c ****   *            @arg USB_HOST_MODE Host mode
 285:Drivers/STM32F7xx_HAL_Driver/Src/stm32f7xx_ll_usb.c ****   * @retval HAL status
 286:Drivers/STM32F7xx_HAL_Driver/Src/stm32f7xx_ll_usb.c ****   */
 287:Drivers/STM32F7xx_HAL_Driver/Src/stm32f7xx_ll_usb.c **** HAL_StatusTypeDef USB_SetCurrentMode(USB_OTG_GlobalTypeDef *USBx, USB_OTG_ModeTypeDef mode)
 288:Drivers/STM32F7xx_HAL_Driver/Src/stm32f7xx_ll_usb.c **** {
 289:Drivers/STM32F7xx_HAL_Driver/Src/stm32f7xx_ll_usb.c ****   uint32_t ms = 0U;
 290:Drivers/STM32F7xx_HAL_Driver/Src/stm32f7xx_ll_usb.c **** 
 291:Drivers/STM32F7xx_HAL_Driver/Src/stm32f7xx_ll_usb.c ****   USBx->GUSBCFG &= ~(USB_OTG_GUSBCFG_FHMOD | USB_OTG_GUSBCFG_FDMOD);
 292:Drivers/STM32F7xx_HAL_Driver/Src/stm32f7xx_ll_usb.c **** 
 293:Drivers/STM32F7xx_HAL_Driver/Src/stm32f7xx_ll_usb.c ****   if (mode == USB_HOST_MODE)
 294:Drivers/STM32F7xx_HAL_Driver/Src/stm32f7xx_ll_usb.c ****   {
 295:Drivers/STM32F7xx_HAL_Driver/Src/stm32f7xx_ll_usb.c ****     USBx->GUSBCFG |= USB_OTG_GUSBCFG_FHMOD;
 296:Drivers/STM32F7xx_HAL_Driver/Src/stm32f7xx_ll_usb.c **** 
 297:Drivers/STM32F7xx_HAL_Driver/Src/stm32f7xx_ll_usb.c ****     do
 298:Drivers/STM32F7xx_HAL_Driver/Src/stm32f7xx_ll_usb.c ****     {
 299:Drivers/STM32F7xx_HAL_Driver/Src/stm32f7xx_ll_usb.c ****       HAL_Delay(10U);
 300:Drivers/STM32F7xx_HAL_Driver/Src/stm32f7xx_ll_usb.c ****       ms += 10U;
 301:Drivers/STM32F7xx_HAL_Driver/Src/stm32f7xx_ll_usb.c ****     } while ((USB_GetMode(USBx) != (uint32_t)USB_HOST_MODE) && (ms < HAL_USB_CURRENT_MODE_MAX_DELAY
 302:Drivers/STM32F7xx_HAL_Driver/Src/stm32f7xx_ll_usb.c ****   }
 303:Drivers/STM32F7xx_HAL_Driver/Src/stm32f7xx_ll_usb.c ****   else if (mode == USB_DEVICE_MODE)
 304:Drivers/STM32F7xx_HAL_Driver/Src/stm32f7xx_ll_usb.c ****   {
 305:Drivers/STM32F7xx_HAL_Driver/Src/stm32f7xx_ll_usb.c ****     USBx->GUSBCFG |= USB_OTG_GUSBCFG_FDMOD;
 306:Drivers/STM32F7xx_HAL_Driver/Src/stm32f7xx_ll_usb.c **** 
 307:Drivers/STM32F7xx_HAL_Driver/Src/stm32f7xx_ll_usb.c ****     do
 308:Drivers/STM32F7xx_HAL_Driver/Src/stm32f7xx_ll_usb.c ****     {
 309:Drivers/STM32F7xx_HAL_Driver/Src/stm32f7xx_ll_usb.c ****       HAL_Delay(10U);
 310:Drivers/STM32F7xx_HAL_Driver/Src/stm32f7xx_ll_usb.c ****       ms += 10U;
 311:Drivers/STM32F7xx_HAL_Driver/Src/stm32f7xx_ll_usb.c ****     } while ((USB_GetMode(USBx) != (uint32_t)USB_DEVICE_MODE) && (ms < HAL_USB_CURRENT_MODE_MAX_DEL
 312:Drivers/STM32F7xx_HAL_Driver/Src/stm32f7xx_ll_usb.c ****   }
 313:Drivers/STM32F7xx_HAL_Driver/Src/stm32f7xx_ll_usb.c ****   else
 314:Drivers/STM32F7xx_HAL_Driver/Src/stm32f7xx_ll_usb.c ****   {
 315:Drivers/STM32F7xx_HAL_Driver/Src/stm32f7xx_ll_usb.c ****     return HAL_ERROR;
 316:Drivers/STM32F7xx_HAL_Driver/Src/stm32f7xx_ll_usb.c ****   }
ARM GAS  /var/folders/8d/8djywmp92nx9cg9c5pcw0px00000gn/T//ccLp59Ij.s 			page 7


 317:Drivers/STM32F7xx_HAL_Driver/Src/stm32f7xx_ll_usb.c **** 
 318:Drivers/STM32F7xx_HAL_Driver/Src/stm32f7xx_ll_usb.c ****   if (ms == HAL_USB_CURRENT_MODE_MAX_DELAY_MS)
 319:Drivers/STM32F7xx_HAL_Driver/Src/stm32f7xx_ll_usb.c ****   {
 320:Drivers/STM32F7xx_HAL_Driver/Src/stm32f7xx_ll_usb.c ****     return HAL_ERROR;
 321:Drivers/STM32F7xx_HAL_Driver/Src/stm32f7xx_ll_usb.c ****   }
 322:Drivers/STM32F7xx_HAL_Driver/Src/stm32f7xx_ll_usb.c **** 
 323:Drivers/STM32F7xx_HAL_Driver/Src/stm32f7xx_ll_usb.c ****   return HAL_OK;
 324:Drivers/STM32F7xx_HAL_Driver/Src/stm32f7xx_ll_usb.c **** }
 325:Drivers/STM32F7xx_HAL_Driver/Src/stm32f7xx_ll_usb.c **** 
 326:Drivers/STM32F7xx_HAL_Driver/Src/stm32f7xx_ll_usb.c **** /**
 327:Drivers/STM32F7xx_HAL_Driver/Src/stm32f7xx_ll_usb.c ****   * @brief  USB_DevInit Initializes the USB_OTG controller registers
 328:Drivers/STM32F7xx_HAL_Driver/Src/stm32f7xx_ll_usb.c ****   *         for device mode
 329:Drivers/STM32F7xx_HAL_Driver/Src/stm32f7xx_ll_usb.c ****   * @param  USBx  Selected device
 330:Drivers/STM32F7xx_HAL_Driver/Src/stm32f7xx_ll_usb.c ****   * @param  cfg   pointer to a USB_OTG_CfgTypeDef structure that contains
 331:Drivers/STM32F7xx_HAL_Driver/Src/stm32f7xx_ll_usb.c ****   *         the configuration information for the specified USBx peripheral.
 332:Drivers/STM32F7xx_HAL_Driver/Src/stm32f7xx_ll_usb.c ****   * @retval HAL status
 333:Drivers/STM32F7xx_HAL_Driver/Src/stm32f7xx_ll_usb.c ****   */
 334:Drivers/STM32F7xx_HAL_Driver/Src/stm32f7xx_ll_usb.c **** HAL_StatusTypeDef USB_DevInit(USB_OTG_GlobalTypeDef *USBx, USB_OTG_CfgTypeDef cfg)
 335:Drivers/STM32F7xx_HAL_Driver/Src/stm32f7xx_ll_usb.c **** {
 336:Drivers/STM32F7xx_HAL_Driver/Src/stm32f7xx_ll_usb.c ****   HAL_StatusTypeDef ret = HAL_OK;
 337:Drivers/STM32F7xx_HAL_Driver/Src/stm32f7xx_ll_usb.c ****   uint32_t USBx_BASE = (uint32_t)USBx;
 338:Drivers/STM32F7xx_HAL_Driver/Src/stm32f7xx_ll_usb.c ****   uint32_t i;
 339:Drivers/STM32F7xx_HAL_Driver/Src/stm32f7xx_ll_usb.c **** 
 340:Drivers/STM32F7xx_HAL_Driver/Src/stm32f7xx_ll_usb.c ****   for (i = 0U; i < 15U; i++)
 341:Drivers/STM32F7xx_HAL_Driver/Src/stm32f7xx_ll_usb.c ****   {
 342:Drivers/STM32F7xx_HAL_Driver/Src/stm32f7xx_ll_usb.c ****     USBx->DIEPTXF[i] = 0U;
 343:Drivers/STM32F7xx_HAL_Driver/Src/stm32f7xx_ll_usb.c ****   }
 344:Drivers/STM32F7xx_HAL_Driver/Src/stm32f7xx_ll_usb.c **** 
 345:Drivers/STM32F7xx_HAL_Driver/Src/stm32f7xx_ll_usb.c ****   /* VBUS Sensing setup */
 346:Drivers/STM32F7xx_HAL_Driver/Src/stm32f7xx_ll_usb.c ****   if (cfg.vbus_sensing_enable == 0U)
 347:Drivers/STM32F7xx_HAL_Driver/Src/stm32f7xx_ll_usb.c ****   {
 348:Drivers/STM32F7xx_HAL_Driver/Src/stm32f7xx_ll_usb.c ****     USBx_DEVICE->DCTL |= USB_OTG_DCTL_SDIS;
 349:Drivers/STM32F7xx_HAL_Driver/Src/stm32f7xx_ll_usb.c **** 
 350:Drivers/STM32F7xx_HAL_Driver/Src/stm32f7xx_ll_usb.c ****     /* Deactivate VBUS Sensing B */
 351:Drivers/STM32F7xx_HAL_Driver/Src/stm32f7xx_ll_usb.c ****     USBx->GCCFG &= ~USB_OTG_GCCFG_VBDEN;
 352:Drivers/STM32F7xx_HAL_Driver/Src/stm32f7xx_ll_usb.c **** 
 353:Drivers/STM32F7xx_HAL_Driver/Src/stm32f7xx_ll_usb.c ****     /* B-peripheral session valid override enable */
 354:Drivers/STM32F7xx_HAL_Driver/Src/stm32f7xx_ll_usb.c ****     USBx->GOTGCTL |= USB_OTG_GOTGCTL_BVALOEN;
 355:Drivers/STM32F7xx_HAL_Driver/Src/stm32f7xx_ll_usb.c ****     USBx->GOTGCTL |= USB_OTG_GOTGCTL_BVALOVAL;
 356:Drivers/STM32F7xx_HAL_Driver/Src/stm32f7xx_ll_usb.c ****   }
 357:Drivers/STM32F7xx_HAL_Driver/Src/stm32f7xx_ll_usb.c ****   else
 358:Drivers/STM32F7xx_HAL_Driver/Src/stm32f7xx_ll_usb.c ****   {
 359:Drivers/STM32F7xx_HAL_Driver/Src/stm32f7xx_ll_usb.c ****     /* Enable HW VBUS sensing */
 360:Drivers/STM32F7xx_HAL_Driver/Src/stm32f7xx_ll_usb.c ****     USBx->GCCFG |= USB_OTG_GCCFG_VBDEN;
 361:Drivers/STM32F7xx_HAL_Driver/Src/stm32f7xx_ll_usb.c ****   }
 362:Drivers/STM32F7xx_HAL_Driver/Src/stm32f7xx_ll_usb.c **** 
 363:Drivers/STM32F7xx_HAL_Driver/Src/stm32f7xx_ll_usb.c ****   /* Restart the Phy Clock */
 364:Drivers/STM32F7xx_HAL_Driver/Src/stm32f7xx_ll_usb.c ****   USBx_PCGCCTL = 0U;
 365:Drivers/STM32F7xx_HAL_Driver/Src/stm32f7xx_ll_usb.c **** 
 366:Drivers/STM32F7xx_HAL_Driver/Src/stm32f7xx_ll_usb.c ****   if (cfg.phy_itface == USB_OTG_ULPI_PHY)
 367:Drivers/STM32F7xx_HAL_Driver/Src/stm32f7xx_ll_usb.c ****   {
 368:Drivers/STM32F7xx_HAL_Driver/Src/stm32f7xx_ll_usb.c ****     if (cfg.speed == USBD_HS_SPEED)
 369:Drivers/STM32F7xx_HAL_Driver/Src/stm32f7xx_ll_usb.c ****     {
 370:Drivers/STM32F7xx_HAL_Driver/Src/stm32f7xx_ll_usb.c ****       /* Set Core speed to High speed mode */
 371:Drivers/STM32F7xx_HAL_Driver/Src/stm32f7xx_ll_usb.c ****       (void)USB_SetDevSpeed(USBx, USB_OTG_SPEED_HIGH);
 372:Drivers/STM32F7xx_HAL_Driver/Src/stm32f7xx_ll_usb.c ****     }
 373:Drivers/STM32F7xx_HAL_Driver/Src/stm32f7xx_ll_usb.c ****     else
ARM GAS  /var/folders/8d/8djywmp92nx9cg9c5pcw0px00000gn/T//ccLp59Ij.s 			page 8


 374:Drivers/STM32F7xx_HAL_Driver/Src/stm32f7xx_ll_usb.c ****     {
 375:Drivers/STM32F7xx_HAL_Driver/Src/stm32f7xx_ll_usb.c ****       /* Set Core speed to Full speed mode */
 376:Drivers/STM32F7xx_HAL_Driver/Src/stm32f7xx_ll_usb.c ****       (void)USB_SetDevSpeed(USBx, USB_OTG_SPEED_HIGH_IN_FULL);
 377:Drivers/STM32F7xx_HAL_Driver/Src/stm32f7xx_ll_usb.c ****     }
 378:Drivers/STM32F7xx_HAL_Driver/Src/stm32f7xx_ll_usb.c ****   }
 379:Drivers/STM32F7xx_HAL_Driver/Src/stm32f7xx_ll_usb.c **** #if defined(STM32F722xx) || defined(STM32F723xx) || defined(STM32F730xx) \
 380:Drivers/STM32F7xx_HAL_Driver/Src/stm32f7xx_ll_usb.c ****  || defined(STM32F732xx) || defined(STM32F733xx)
 381:Drivers/STM32F7xx_HAL_Driver/Src/stm32f7xx_ll_usb.c ****   else if (cfg.phy_itface == USB_OTG_HS_EMBEDDED_PHY)
 382:Drivers/STM32F7xx_HAL_Driver/Src/stm32f7xx_ll_usb.c ****   {
 383:Drivers/STM32F7xx_HAL_Driver/Src/stm32f7xx_ll_usb.c ****     if (cfg.speed == USBD_HS_SPEED)
 384:Drivers/STM32F7xx_HAL_Driver/Src/stm32f7xx_ll_usb.c ****     {
 385:Drivers/STM32F7xx_HAL_Driver/Src/stm32f7xx_ll_usb.c ****       /* Set Core speed to High speed mode */
 386:Drivers/STM32F7xx_HAL_Driver/Src/stm32f7xx_ll_usb.c ****       (void)USB_SetDevSpeed(USBx, USB_OTG_SPEED_HIGH);
 387:Drivers/STM32F7xx_HAL_Driver/Src/stm32f7xx_ll_usb.c ****     }
 388:Drivers/STM32F7xx_HAL_Driver/Src/stm32f7xx_ll_usb.c ****     else
 389:Drivers/STM32F7xx_HAL_Driver/Src/stm32f7xx_ll_usb.c ****     {
 390:Drivers/STM32F7xx_HAL_Driver/Src/stm32f7xx_ll_usb.c ****       /* Set Core speed to Full speed mode */
 391:Drivers/STM32F7xx_HAL_Driver/Src/stm32f7xx_ll_usb.c ****       (void)USB_SetDevSpeed(USBx, USB_OTG_SPEED_HIGH_IN_FULL);
 392:Drivers/STM32F7xx_HAL_Driver/Src/stm32f7xx_ll_usb.c ****     }
 393:Drivers/STM32F7xx_HAL_Driver/Src/stm32f7xx_ll_usb.c ****   }
 394:Drivers/STM32F7xx_HAL_Driver/Src/stm32f7xx_ll_usb.c **** #endif /* defined(STM32F722xx) || defined(STM32F723xx) || defined(STM32F730xx) ||
 395:Drivers/STM32F7xx_HAL_Driver/Src/stm32f7xx_ll_usb.c ****           defined(STM32F732xx) || defined(STM32F733xx) */
 396:Drivers/STM32F7xx_HAL_Driver/Src/stm32f7xx_ll_usb.c ****   else
 397:Drivers/STM32F7xx_HAL_Driver/Src/stm32f7xx_ll_usb.c ****   {
 398:Drivers/STM32F7xx_HAL_Driver/Src/stm32f7xx_ll_usb.c ****     /* Set Core speed to Full speed mode */
 399:Drivers/STM32F7xx_HAL_Driver/Src/stm32f7xx_ll_usb.c ****     (void)USB_SetDevSpeed(USBx, USB_OTG_SPEED_FULL);
 400:Drivers/STM32F7xx_HAL_Driver/Src/stm32f7xx_ll_usb.c ****   }
 401:Drivers/STM32F7xx_HAL_Driver/Src/stm32f7xx_ll_usb.c **** 
 402:Drivers/STM32F7xx_HAL_Driver/Src/stm32f7xx_ll_usb.c ****   /* Flush the FIFOs */
 403:Drivers/STM32F7xx_HAL_Driver/Src/stm32f7xx_ll_usb.c ****   if (USB_FlushTxFifo(USBx, 0x10U) != HAL_OK) /* all Tx FIFOs */
 404:Drivers/STM32F7xx_HAL_Driver/Src/stm32f7xx_ll_usb.c ****   {
 405:Drivers/STM32F7xx_HAL_Driver/Src/stm32f7xx_ll_usb.c ****     ret = HAL_ERROR;
 406:Drivers/STM32F7xx_HAL_Driver/Src/stm32f7xx_ll_usb.c ****   }
 407:Drivers/STM32F7xx_HAL_Driver/Src/stm32f7xx_ll_usb.c **** 
 408:Drivers/STM32F7xx_HAL_Driver/Src/stm32f7xx_ll_usb.c ****   if (USB_FlushRxFifo(USBx) != HAL_OK)
 409:Drivers/STM32F7xx_HAL_Driver/Src/stm32f7xx_ll_usb.c ****   {
 410:Drivers/STM32F7xx_HAL_Driver/Src/stm32f7xx_ll_usb.c ****     ret = HAL_ERROR;
 411:Drivers/STM32F7xx_HAL_Driver/Src/stm32f7xx_ll_usb.c ****   }
 412:Drivers/STM32F7xx_HAL_Driver/Src/stm32f7xx_ll_usb.c **** 
 413:Drivers/STM32F7xx_HAL_Driver/Src/stm32f7xx_ll_usb.c ****   /* Clear all pending Device Interrupts */
 414:Drivers/STM32F7xx_HAL_Driver/Src/stm32f7xx_ll_usb.c ****   USBx_DEVICE->DIEPMSK = 0U;
 415:Drivers/STM32F7xx_HAL_Driver/Src/stm32f7xx_ll_usb.c ****   USBx_DEVICE->DOEPMSK = 0U;
 416:Drivers/STM32F7xx_HAL_Driver/Src/stm32f7xx_ll_usb.c ****   USBx_DEVICE->DAINTMSK = 0U;
 417:Drivers/STM32F7xx_HAL_Driver/Src/stm32f7xx_ll_usb.c **** 
 418:Drivers/STM32F7xx_HAL_Driver/Src/stm32f7xx_ll_usb.c ****   for (i = 0U; i < cfg.dev_endpoints; i++)
 419:Drivers/STM32F7xx_HAL_Driver/Src/stm32f7xx_ll_usb.c ****   {
 420:Drivers/STM32F7xx_HAL_Driver/Src/stm32f7xx_ll_usb.c ****     if ((USBx_INEP(i)->DIEPCTL & USB_OTG_DIEPCTL_EPENA) == USB_OTG_DIEPCTL_EPENA)
 421:Drivers/STM32F7xx_HAL_Driver/Src/stm32f7xx_ll_usb.c ****     {
 422:Drivers/STM32F7xx_HAL_Driver/Src/stm32f7xx_ll_usb.c ****       if (i == 0U)
 423:Drivers/STM32F7xx_HAL_Driver/Src/stm32f7xx_ll_usb.c ****       {
 424:Drivers/STM32F7xx_HAL_Driver/Src/stm32f7xx_ll_usb.c ****         USBx_INEP(i)->DIEPCTL = USB_OTG_DIEPCTL_SNAK;
 425:Drivers/STM32F7xx_HAL_Driver/Src/stm32f7xx_ll_usb.c ****       }
 426:Drivers/STM32F7xx_HAL_Driver/Src/stm32f7xx_ll_usb.c ****       else
 427:Drivers/STM32F7xx_HAL_Driver/Src/stm32f7xx_ll_usb.c ****       {
 428:Drivers/STM32F7xx_HAL_Driver/Src/stm32f7xx_ll_usb.c ****         USBx_INEP(i)->DIEPCTL = USB_OTG_DIEPCTL_EPDIS | USB_OTG_DIEPCTL_SNAK;
 429:Drivers/STM32F7xx_HAL_Driver/Src/stm32f7xx_ll_usb.c ****       }
 430:Drivers/STM32F7xx_HAL_Driver/Src/stm32f7xx_ll_usb.c ****     }
ARM GAS  /var/folders/8d/8djywmp92nx9cg9c5pcw0px00000gn/T//ccLp59Ij.s 			page 9


 431:Drivers/STM32F7xx_HAL_Driver/Src/stm32f7xx_ll_usb.c ****     else
 432:Drivers/STM32F7xx_HAL_Driver/Src/stm32f7xx_ll_usb.c ****     {
 433:Drivers/STM32F7xx_HAL_Driver/Src/stm32f7xx_ll_usb.c ****       USBx_INEP(i)->DIEPCTL = 0U;
 434:Drivers/STM32F7xx_HAL_Driver/Src/stm32f7xx_ll_usb.c ****     }
 435:Drivers/STM32F7xx_HAL_Driver/Src/stm32f7xx_ll_usb.c **** 
 436:Drivers/STM32F7xx_HAL_Driver/Src/stm32f7xx_ll_usb.c ****     USBx_INEP(i)->DIEPTSIZ = 0U;
 437:Drivers/STM32F7xx_HAL_Driver/Src/stm32f7xx_ll_usb.c ****     USBx_INEP(i)->DIEPINT  = 0xFB7FU;
 438:Drivers/STM32F7xx_HAL_Driver/Src/stm32f7xx_ll_usb.c ****   }
 439:Drivers/STM32F7xx_HAL_Driver/Src/stm32f7xx_ll_usb.c **** 
 440:Drivers/STM32F7xx_HAL_Driver/Src/stm32f7xx_ll_usb.c ****   for (i = 0U; i < cfg.dev_endpoints; i++)
 441:Drivers/STM32F7xx_HAL_Driver/Src/stm32f7xx_ll_usb.c ****   {
 442:Drivers/STM32F7xx_HAL_Driver/Src/stm32f7xx_ll_usb.c ****     if ((USBx_OUTEP(i)->DOEPCTL & USB_OTG_DOEPCTL_EPENA) == USB_OTG_DOEPCTL_EPENA)
 443:Drivers/STM32F7xx_HAL_Driver/Src/stm32f7xx_ll_usb.c ****     {
 444:Drivers/STM32F7xx_HAL_Driver/Src/stm32f7xx_ll_usb.c ****       if (i == 0U)
 445:Drivers/STM32F7xx_HAL_Driver/Src/stm32f7xx_ll_usb.c ****       {
 446:Drivers/STM32F7xx_HAL_Driver/Src/stm32f7xx_ll_usb.c ****         USBx_OUTEP(i)->DOEPCTL = USB_OTG_DOEPCTL_SNAK;
 447:Drivers/STM32F7xx_HAL_Driver/Src/stm32f7xx_ll_usb.c ****       }
 448:Drivers/STM32F7xx_HAL_Driver/Src/stm32f7xx_ll_usb.c ****       else
 449:Drivers/STM32F7xx_HAL_Driver/Src/stm32f7xx_ll_usb.c ****       {
 450:Drivers/STM32F7xx_HAL_Driver/Src/stm32f7xx_ll_usb.c ****         USBx_OUTEP(i)->DOEPCTL = USB_OTG_DOEPCTL_EPDIS | USB_OTG_DOEPCTL_SNAK;
 451:Drivers/STM32F7xx_HAL_Driver/Src/stm32f7xx_ll_usb.c ****       }
 452:Drivers/STM32F7xx_HAL_Driver/Src/stm32f7xx_ll_usb.c ****     }
 453:Drivers/STM32F7xx_HAL_Driver/Src/stm32f7xx_ll_usb.c ****     else
 454:Drivers/STM32F7xx_HAL_Driver/Src/stm32f7xx_ll_usb.c ****     {
 455:Drivers/STM32F7xx_HAL_Driver/Src/stm32f7xx_ll_usb.c ****       USBx_OUTEP(i)->DOEPCTL = 0U;
 456:Drivers/STM32F7xx_HAL_Driver/Src/stm32f7xx_ll_usb.c ****     }
 457:Drivers/STM32F7xx_HAL_Driver/Src/stm32f7xx_ll_usb.c **** 
 458:Drivers/STM32F7xx_HAL_Driver/Src/stm32f7xx_ll_usb.c ****     USBx_OUTEP(i)->DOEPTSIZ = 0U;
 459:Drivers/STM32F7xx_HAL_Driver/Src/stm32f7xx_ll_usb.c ****     USBx_OUTEP(i)->DOEPINT  = 0xFB7FU;
 460:Drivers/STM32F7xx_HAL_Driver/Src/stm32f7xx_ll_usb.c ****   }
 461:Drivers/STM32F7xx_HAL_Driver/Src/stm32f7xx_ll_usb.c **** 
 462:Drivers/STM32F7xx_HAL_Driver/Src/stm32f7xx_ll_usb.c ****   USBx_DEVICE->DIEPMSK &= ~(USB_OTG_DIEPMSK_TXFURM);
 463:Drivers/STM32F7xx_HAL_Driver/Src/stm32f7xx_ll_usb.c **** 
 464:Drivers/STM32F7xx_HAL_Driver/Src/stm32f7xx_ll_usb.c ****   /* Disable all interrupts. */
 465:Drivers/STM32F7xx_HAL_Driver/Src/stm32f7xx_ll_usb.c ****   USBx->GINTMSK = 0U;
 466:Drivers/STM32F7xx_HAL_Driver/Src/stm32f7xx_ll_usb.c **** 
 467:Drivers/STM32F7xx_HAL_Driver/Src/stm32f7xx_ll_usb.c ****   /* Clear any pending interrupts */
 468:Drivers/STM32F7xx_HAL_Driver/Src/stm32f7xx_ll_usb.c ****   USBx->GINTSTS = 0xBFFFFFFFU;
 469:Drivers/STM32F7xx_HAL_Driver/Src/stm32f7xx_ll_usb.c **** 
 470:Drivers/STM32F7xx_HAL_Driver/Src/stm32f7xx_ll_usb.c ****   /* Enable the common interrupts */
 471:Drivers/STM32F7xx_HAL_Driver/Src/stm32f7xx_ll_usb.c ****   if (cfg.dma_enable == 0U)
 472:Drivers/STM32F7xx_HAL_Driver/Src/stm32f7xx_ll_usb.c ****   {
 473:Drivers/STM32F7xx_HAL_Driver/Src/stm32f7xx_ll_usb.c ****     USBx->GINTMSK |= USB_OTG_GINTMSK_RXFLVLM;
 474:Drivers/STM32F7xx_HAL_Driver/Src/stm32f7xx_ll_usb.c ****   }
 475:Drivers/STM32F7xx_HAL_Driver/Src/stm32f7xx_ll_usb.c **** 
 476:Drivers/STM32F7xx_HAL_Driver/Src/stm32f7xx_ll_usb.c ****   /* Enable interrupts matching to the Device mode ONLY */
 477:Drivers/STM32F7xx_HAL_Driver/Src/stm32f7xx_ll_usb.c ****   USBx->GINTMSK |= USB_OTG_GINTMSK_USBSUSPM | USB_OTG_GINTMSK_USBRST |
 478:Drivers/STM32F7xx_HAL_Driver/Src/stm32f7xx_ll_usb.c ****                    USB_OTG_GINTMSK_ENUMDNEM | USB_OTG_GINTMSK_IEPINT |
 479:Drivers/STM32F7xx_HAL_Driver/Src/stm32f7xx_ll_usb.c ****                    USB_OTG_GINTMSK_OEPINT   | USB_OTG_GINTMSK_IISOIXFRM |
 480:Drivers/STM32F7xx_HAL_Driver/Src/stm32f7xx_ll_usb.c ****                    USB_OTG_GINTMSK_PXFRM_IISOOXFRM | USB_OTG_GINTMSK_WUIM;
 481:Drivers/STM32F7xx_HAL_Driver/Src/stm32f7xx_ll_usb.c **** 
 482:Drivers/STM32F7xx_HAL_Driver/Src/stm32f7xx_ll_usb.c ****   if (cfg.Sof_enable != 0U)
 483:Drivers/STM32F7xx_HAL_Driver/Src/stm32f7xx_ll_usb.c ****   {
 484:Drivers/STM32F7xx_HAL_Driver/Src/stm32f7xx_ll_usb.c ****     USBx->GINTMSK |= USB_OTG_GINTMSK_SOFM;
 485:Drivers/STM32F7xx_HAL_Driver/Src/stm32f7xx_ll_usb.c ****   }
 486:Drivers/STM32F7xx_HAL_Driver/Src/stm32f7xx_ll_usb.c **** 
 487:Drivers/STM32F7xx_HAL_Driver/Src/stm32f7xx_ll_usb.c ****   if (cfg.vbus_sensing_enable == 1U)
ARM GAS  /var/folders/8d/8djywmp92nx9cg9c5pcw0px00000gn/T//ccLp59Ij.s 			page 10


 488:Drivers/STM32F7xx_HAL_Driver/Src/stm32f7xx_ll_usb.c ****   {
 489:Drivers/STM32F7xx_HAL_Driver/Src/stm32f7xx_ll_usb.c ****     USBx->GINTMSK |= (USB_OTG_GINTMSK_SRQIM | USB_OTG_GINTMSK_OTGINT);
 490:Drivers/STM32F7xx_HAL_Driver/Src/stm32f7xx_ll_usb.c ****   }
 491:Drivers/STM32F7xx_HAL_Driver/Src/stm32f7xx_ll_usb.c **** 
 492:Drivers/STM32F7xx_HAL_Driver/Src/stm32f7xx_ll_usb.c ****   return ret;
 493:Drivers/STM32F7xx_HAL_Driver/Src/stm32f7xx_ll_usb.c **** }
 494:Drivers/STM32F7xx_HAL_Driver/Src/stm32f7xx_ll_usb.c **** 
 495:Drivers/STM32F7xx_HAL_Driver/Src/stm32f7xx_ll_usb.c **** /**
 496:Drivers/STM32F7xx_HAL_Driver/Src/stm32f7xx_ll_usb.c ****   * @brief  USB_FlushTxFifo Flush a Tx FIFO
 497:Drivers/STM32F7xx_HAL_Driver/Src/stm32f7xx_ll_usb.c ****   * @param  USBx  Selected device
 498:Drivers/STM32F7xx_HAL_Driver/Src/stm32f7xx_ll_usb.c ****   * @param  num  FIFO number
 499:Drivers/STM32F7xx_HAL_Driver/Src/stm32f7xx_ll_usb.c ****   *         This parameter can be a value from 1 to 15
 500:Drivers/STM32F7xx_HAL_Driver/Src/stm32f7xx_ll_usb.c ****             15 means Flush all Tx FIFOs
 501:Drivers/STM32F7xx_HAL_Driver/Src/stm32f7xx_ll_usb.c ****   * @retval HAL status
 502:Drivers/STM32F7xx_HAL_Driver/Src/stm32f7xx_ll_usb.c ****   */
 503:Drivers/STM32F7xx_HAL_Driver/Src/stm32f7xx_ll_usb.c **** HAL_StatusTypeDef USB_FlushTxFifo(USB_OTG_GlobalTypeDef *USBx, uint32_t num)
 504:Drivers/STM32F7xx_HAL_Driver/Src/stm32f7xx_ll_usb.c **** {
 505:Drivers/STM32F7xx_HAL_Driver/Src/stm32f7xx_ll_usb.c ****   __IO uint32_t count = 0U;
 506:Drivers/STM32F7xx_HAL_Driver/Src/stm32f7xx_ll_usb.c **** 
 507:Drivers/STM32F7xx_HAL_Driver/Src/stm32f7xx_ll_usb.c ****   /* Wait for AHB master IDLE state. */
 508:Drivers/STM32F7xx_HAL_Driver/Src/stm32f7xx_ll_usb.c ****   do
 509:Drivers/STM32F7xx_HAL_Driver/Src/stm32f7xx_ll_usb.c ****   {
 510:Drivers/STM32F7xx_HAL_Driver/Src/stm32f7xx_ll_usb.c ****     count++;
 511:Drivers/STM32F7xx_HAL_Driver/Src/stm32f7xx_ll_usb.c **** 
 512:Drivers/STM32F7xx_HAL_Driver/Src/stm32f7xx_ll_usb.c ****     if (count > HAL_USB_TIMEOUT)
 513:Drivers/STM32F7xx_HAL_Driver/Src/stm32f7xx_ll_usb.c ****     {
 514:Drivers/STM32F7xx_HAL_Driver/Src/stm32f7xx_ll_usb.c ****       return HAL_TIMEOUT;
 515:Drivers/STM32F7xx_HAL_Driver/Src/stm32f7xx_ll_usb.c ****     }
 516:Drivers/STM32F7xx_HAL_Driver/Src/stm32f7xx_ll_usb.c ****   } while ((USBx->GRSTCTL & USB_OTG_GRSTCTL_AHBIDL) == 0U);
 517:Drivers/STM32F7xx_HAL_Driver/Src/stm32f7xx_ll_usb.c **** 
 518:Drivers/STM32F7xx_HAL_Driver/Src/stm32f7xx_ll_usb.c ****   /* Flush TX Fifo */
 519:Drivers/STM32F7xx_HAL_Driver/Src/stm32f7xx_ll_usb.c ****   count = 0U;
 520:Drivers/STM32F7xx_HAL_Driver/Src/stm32f7xx_ll_usb.c ****   USBx->GRSTCTL = (USB_OTG_GRSTCTL_TXFFLSH | (num << 6));
 521:Drivers/STM32F7xx_HAL_Driver/Src/stm32f7xx_ll_usb.c **** 
 522:Drivers/STM32F7xx_HAL_Driver/Src/stm32f7xx_ll_usb.c ****   do
 523:Drivers/STM32F7xx_HAL_Driver/Src/stm32f7xx_ll_usb.c ****   {
 524:Drivers/STM32F7xx_HAL_Driver/Src/stm32f7xx_ll_usb.c ****     count++;
 525:Drivers/STM32F7xx_HAL_Driver/Src/stm32f7xx_ll_usb.c **** 
 526:Drivers/STM32F7xx_HAL_Driver/Src/stm32f7xx_ll_usb.c ****     if (count > HAL_USB_TIMEOUT)
 527:Drivers/STM32F7xx_HAL_Driver/Src/stm32f7xx_ll_usb.c ****     {
 528:Drivers/STM32F7xx_HAL_Driver/Src/stm32f7xx_ll_usb.c ****       return HAL_TIMEOUT;
 529:Drivers/STM32F7xx_HAL_Driver/Src/stm32f7xx_ll_usb.c ****     }
 530:Drivers/STM32F7xx_HAL_Driver/Src/stm32f7xx_ll_usb.c ****   } while ((USBx->GRSTCTL & USB_OTG_GRSTCTL_TXFFLSH) == USB_OTG_GRSTCTL_TXFFLSH);
 531:Drivers/STM32F7xx_HAL_Driver/Src/stm32f7xx_ll_usb.c **** 
 532:Drivers/STM32F7xx_HAL_Driver/Src/stm32f7xx_ll_usb.c ****   return HAL_OK;
 533:Drivers/STM32F7xx_HAL_Driver/Src/stm32f7xx_ll_usb.c **** }
 534:Drivers/STM32F7xx_HAL_Driver/Src/stm32f7xx_ll_usb.c **** 
 535:Drivers/STM32F7xx_HAL_Driver/Src/stm32f7xx_ll_usb.c **** /**
 536:Drivers/STM32F7xx_HAL_Driver/Src/stm32f7xx_ll_usb.c ****   * @brief  USB_FlushRxFifo  Flush Rx FIFO
 537:Drivers/STM32F7xx_HAL_Driver/Src/stm32f7xx_ll_usb.c ****   * @param  USBx  Selected device
 538:Drivers/STM32F7xx_HAL_Driver/Src/stm32f7xx_ll_usb.c ****   * @retval HAL status
 539:Drivers/STM32F7xx_HAL_Driver/Src/stm32f7xx_ll_usb.c ****   */
 540:Drivers/STM32F7xx_HAL_Driver/Src/stm32f7xx_ll_usb.c **** HAL_StatusTypeDef USB_FlushRxFifo(USB_OTG_GlobalTypeDef *USBx)
 541:Drivers/STM32F7xx_HAL_Driver/Src/stm32f7xx_ll_usb.c **** {
 542:Drivers/STM32F7xx_HAL_Driver/Src/stm32f7xx_ll_usb.c ****   __IO uint32_t count = 0U;
 543:Drivers/STM32F7xx_HAL_Driver/Src/stm32f7xx_ll_usb.c **** 
 544:Drivers/STM32F7xx_HAL_Driver/Src/stm32f7xx_ll_usb.c ****   /* Wait for AHB master IDLE state. */
ARM GAS  /var/folders/8d/8djywmp92nx9cg9c5pcw0px00000gn/T//ccLp59Ij.s 			page 11


 545:Drivers/STM32F7xx_HAL_Driver/Src/stm32f7xx_ll_usb.c ****   do
 546:Drivers/STM32F7xx_HAL_Driver/Src/stm32f7xx_ll_usb.c ****   {
 547:Drivers/STM32F7xx_HAL_Driver/Src/stm32f7xx_ll_usb.c ****     count++;
 548:Drivers/STM32F7xx_HAL_Driver/Src/stm32f7xx_ll_usb.c **** 
 549:Drivers/STM32F7xx_HAL_Driver/Src/stm32f7xx_ll_usb.c ****     if (count > HAL_USB_TIMEOUT)
 550:Drivers/STM32F7xx_HAL_Driver/Src/stm32f7xx_ll_usb.c ****     {
 551:Drivers/STM32F7xx_HAL_Driver/Src/stm32f7xx_ll_usb.c ****       return HAL_TIMEOUT;
 552:Drivers/STM32F7xx_HAL_Driver/Src/stm32f7xx_ll_usb.c ****     }
 553:Drivers/STM32F7xx_HAL_Driver/Src/stm32f7xx_ll_usb.c ****   } while ((USBx->GRSTCTL & USB_OTG_GRSTCTL_AHBIDL) == 0U);
 554:Drivers/STM32F7xx_HAL_Driver/Src/stm32f7xx_ll_usb.c **** 
 555:Drivers/STM32F7xx_HAL_Driver/Src/stm32f7xx_ll_usb.c ****   /* Flush RX Fifo */
 556:Drivers/STM32F7xx_HAL_Driver/Src/stm32f7xx_ll_usb.c ****   count = 0U;
 557:Drivers/STM32F7xx_HAL_Driver/Src/stm32f7xx_ll_usb.c ****   USBx->GRSTCTL = USB_OTG_GRSTCTL_RXFFLSH;
 558:Drivers/STM32F7xx_HAL_Driver/Src/stm32f7xx_ll_usb.c **** 
 559:Drivers/STM32F7xx_HAL_Driver/Src/stm32f7xx_ll_usb.c ****   do
 560:Drivers/STM32F7xx_HAL_Driver/Src/stm32f7xx_ll_usb.c ****   {
 561:Drivers/STM32F7xx_HAL_Driver/Src/stm32f7xx_ll_usb.c ****     count++;
 562:Drivers/STM32F7xx_HAL_Driver/Src/stm32f7xx_ll_usb.c **** 
 563:Drivers/STM32F7xx_HAL_Driver/Src/stm32f7xx_ll_usb.c ****     if (count > HAL_USB_TIMEOUT)
 564:Drivers/STM32F7xx_HAL_Driver/Src/stm32f7xx_ll_usb.c ****     {
 565:Drivers/STM32F7xx_HAL_Driver/Src/stm32f7xx_ll_usb.c ****       return HAL_TIMEOUT;
 566:Drivers/STM32F7xx_HAL_Driver/Src/stm32f7xx_ll_usb.c ****     }
 567:Drivers/STM32F7xx_HAL_Driver/Src/stm32f7xx_ll_usb.c ****   } while ((USBx->GRSTCTL & USB_OTG_GRSTCTL_RXFFLSH) == USB_OTG_GRSTCTL_RXFFLSH);
 568:Drivers/STM32F7xx_HAL_Driver/Src/stm32f7xx_ll_usb.c **** 
 569:Drivers/STM32F7xx_HAL_Driver/Src/stm32f7xx_ll_usb.c ****   return HAL_OK;
 570:Drivers/STM32F7xx_HAL_Driver/Src/stm32f7xx_ll_usb.c **** }
 571:Drivers/STM32F7xx_HAL_Driver/Src/stm32f7xx_ll_usb.c **** 
 572:Drivers/STM32F7xx_HAL_Driver/Src/stm32f7xx_ll_usb.c **** /**
 573:Drivers/STM32F7xx_HAL_Driver/Src/stm32f7xx_ll_usb.c ****   * @brief  USB_SetDevSpeed  Initializes the DevSpd field of DCFG register
 574:Drivers/STM32F7xx_HAL_Driver/Src/stm32f7xx_ll_usb.c ****   *         depending the PHY type and the enumeration speed of the device.
 575:Drivers/STM32F7xx_HAL_Driver/Src/stm32f7xx_ll_usb.c ****   * @param  USBx  Selected device
 576:Drivers/STM32F7xx_HAL_Driver/Src/stm32f7xx_ll_usb.c ****   * @param  speed  device speed
 577:Drivers/STM32F7xx_HAL_Driver/Src/stm32f7xx_ll_usb.c ****   *          This parameter can be one of these values:
 578:Drivers/STM32F7xx_HAL_Driver/Src/stm32f7xx_ll_usb.c ****   *            @arg USB_OTG_SPEED_HIGH: High speed mode
 579:Drivers/STM32F7xx_HAL_Driver/Src/stm32f7xx_ll_usb.c ****   *            @arg USB_OTG_SPEED_HIGH_IN_FULL: High speed core in Full Speed mode
 580:Drivers/STM32F7xx_HAL_Driver/Src/stm32f7xx_ll_usb.c ****   *            @arg USB_OTG_SPEED_FULL: Full speed mode
 581:Drivers/STM32F7xx_HAL_Driver/Src/stm32f7xx_ll_usb.c ****   * @retval  Hal status
 582:Drivers/STM32F7xx_HAL_Driver/Src/stm32f7xx_ll_usb.c ****   */
 583:Drivers/STM32F7xx_HAL_Driver/Src/stm32f7xx_ll_usb.c **** HAL_StatusTypeDef USB_SetDevSpeed(const USB_OTG_GlobalTypeDef *USBx, uint8_t speed)
 584:Drivers/STM32F7xx_HAL_Driver/Src/stm32f7xx_ll_usb.c **** {
 585:Drivers/STM32F7xx_HAL_Driver/Src/stm32f7xx_ll_usb.c ****   uint32_t USBx_BASE = (uint32_t)USBx;
 586:Drivers/STM32F7xx_HAL_Driver/Src/stm32f7xx_ll_usb.c **** 
 587:Drivers/STM32F7xx_HAL_Driver/Src/stm32f7xx_ll_usb.c ****   USBx_DEVICE->DCFG |= speed;
 588:Drivers/STM32F7xx_HAL_Driver/Src/stm32f7xx_ll_usb.c ****   return HAL_OK;
 589:Drivers/STM32F7xx_HAL_Driver/Src/stm32f7xx_ll_usb.c **** }
 590:Drivers/STM32F7xx_HAL_Driver/Src/stm32f7xx_ll_usb.c **** 
 591:Drivers/STM32F7xx_HAL_Driver/Src/stm32f7xx_ll_usb.c **** /**
 592:Drivers/STM32F7xx_HAL_Driver/Src/stm32f7xx_ll_usb.c ****   * @brief  USB_GetDevSpeed  Return the Dev Speed
 593:Drivers/STM32F7xx_HAL_Driver/Src/stm32f7xx_ll_usb.c ****   * @param  USBx  Selected device
 594:Drivers/STM32F7xx_HAL_Driver/Src/stm32f7xx_ll_usb.c ****   * @retval speed  device speed
 595:Drivers/STM32F7xx_HAL_Driver/Src/stm32f7xx_ll_usb.c ****   *          This parameter can be one of these values:
 596:Drivers/STM32F7xx_HAL_Driver/Src/stm32f7xx_ll_usb.c ****   *            @arg USBD_HS_SPEED: High speed mode
 597:Drivers/STM32F7xx_HAL_Driver/Src/stm32f7xx_ll_usb.c ****   *            @arg USBD_FS_SPEED: Full speed mode
 598:Drivers/STM32F7xx_HAL_Driver/Src/stm32f7xx_ll_usb.c ****   */
 599:Drivers/STM32F7xx_HAL_Driver/Src/stm32f7xx_ll_usb.c **** uint8_t USB_GetDevSpeed(const USB_OTG_GlobalTypeDef *USBx)
 600:Drivers/STM32F7xx_HAL_Driver/Src/stm32f7xx_ll_usb.c **** {
 601:Drivers/STM32F7xx_HAL_Driver/Src/stm32f7xx_ll_usb.c ****   uint32_t USBx_BASE = (uint32_t)USBx;
ARM GAS  /var/folders/8d/8djywmp92nx9cg9c5pcw0px00000gn/T//ccLp59Ij.s 			page 12


 602:Drivers/STM32F7xx_HAL_Driver/Src/stm32f7xx_ll_usb.c ****   uint8_t speed;
 603:Drivers/STM32F7xx_HAL_Driver/Src/stm32f7xx_ll_usb.c ****   uint32_t DevEnumSpeed = USBx_DEVICE->DSTS & USB_OTG_DSTS_ENUMSPD;
 604:Drivers/STM32F7xx_HAL_Driver/Src/stm32f7xx_ll_usb.c **** 
 605:Drivers/STM32F7xx_HAL_Driver/Src/stm32f7xx_ll_usb.c ****   if (DevEnumSpeed == DSTS_ENUMSPD_HS_PHY_30MHZ_OR_60MHZ)
 606:Drivers/STM32F7xx_HAL_Driver/Src/stm32f7xx_ll_usb.c ****   {
 607:Drivers/STM32F7xx_HAL_Driver/Src/stm32f7xx_ll_usb.c ****     speed = USBD_HS_SPEED;
 608:Drivers/STM32F7xx_HAL_Driver/Src/stm32f7xx_ll_usb.c ****   }
 609:Drivers/STM32F7xx_HAL_Driver/Src/stm32f7xx_ll_usb.c ****   else if ((DevEnumSpeed == DSTS_ENUMSPD_FS_PHY_30MHZ_OR_60MHZ) ||
 610:Drivers/STM32F7xx_HAL_Driver/Src/stm32f7xx_ll_usb.c ****            (DevEnumSpeed == DSTS_ENUMSPD_FS_PHY_48MHZ))
 611:Drivers/STM32F7xx_HAL_Driver/Src/stm32f7xx_ll_usb.c ****   {
 612:Drivers/STM32F7xx_HAL_Driver/Src/stm32f7xx_ll_usb.c ****     speed = USBD_FS_SPEED;
 613:Drivers/STM32F7xx_HAL_Driver/Src/stm32f7xx_ll_usb.c ****   }
 614:Drivers/STM32F7xx_HAL_Driver/Src/stm32f7xx_ll_usb.c ****   else
 615:Drivers/STM32F7xx_HAL_Driver/Src/stm32f7xx_ll_usb.c ****   {
 616:Drivers/STM32F7xx_HAL_Driver/Src/stm32f7xx_ll_usb.c ****     speed = 0xFU;
 617:Drivers/STM32F7xx_HAL_Driver/Src/stm32f7xx_ll_usb.c ****   }
 618:Drivers/STM32F7xx_HAL_Driver/Src/stm32f7xx_ll_usb.c **** 
 619:Drivers/STM32F7xx_HAL_Driver/Src/stm32f7xx_ll_usb.c ****   return speed;
 620:Drivers/STM32F7xx_HAL_Driver/Src/stm32f7xx_ll_usb.c **** }
 621:Drivers/STM32F7xx_HAL_Driver/Src/stm32f7xx_ll_usb.c **** 
 622:Drivers/STM32F7xx_HAL_Driver/Src/stm32f7xx_ll_usb.c **** /**
 623:Drivers/STM32F7xx_HAL_Driver/Src/stm32f7xx_ll_usb.c ****   * @brief  Activate and configure an endpoint
 624:Drivers/STM32F7xx_HAL_Driver/Src/stm32f7xx_ll_usb.c ****   * @param  USBx  Selected device
 625:Drivers/STM32F7xx_HAL_Driver/Src/stm32f7xx_ll_usb.c ****   * @param  ep pointer to endpoint structure
 626:Drivers/STM32F7xx_HAL_Driver/Src/stm32f7xx_ll_usb.c ****   * @retval HAL status
 627:Drivers/STM32F7xx_HAL_Driver/Src/stm32f7xx_ll_usb.c ****   */
 628:Drivers/STM32F7xx_HAL_Driver/Src/stm32f7xx_ll_usb.c **** HAL_StatusTypeDef USB_ActivateEndpoint(const USB_OTG_GlobalTypeDef *USBx, const USB_OTG_EPTypeDef *
 629:Drivers/STM32F7xx_HAL_Driver/Src/stm32f7xx_ll_usb.c **** {
 630:Drivers/STM32F7xx_HAL_Driver/Src/stm32f7xx_ll_usb.c ****   uint32_t USBx_BASE = (uint32_t)USBx;
 631:Drivers/STM32F7xx_HAL_Driver/Src/stm32f7xx_ll_usb.c ****   uint32_t epnum = (uint32_t)ep->num;
 632:Drivers/STM32F7xx_HAL_Driver/Src/stm32f7xx_ll_usb.c **** 
 633:Drivers/STM32F7xx_HAL_Driver/Src/stm32f7xx_ll_usb.c ****   if (ep->is_in == 1U)
 634:Drivers/STM32F7xx_HAL_Driver/Src/stm32f7xx_ll_usb.c ****   {
 635:Drivers/STM32F7xx_HAL_Driver/Src/stm32f7xx_ll_usb.c ****     USBx_DEVICE->DAINTMSK |= USB_OTG_DAINTMSK_IEPM & (uint32_t)(1UL << (ep->num & EP_ADDR_MSK));
 636:Drivers/STM32F7xx_HAL_Driver/Src/stm32f7xx_ll_usb.c **** 
 637:Drivers/STM32F7xx_HAL_Driver/Src/stm32f7xx_ll_usb.c ****     if ((USBx_INEP(epnum)->DIEPCTL & USB_OTG_DIEPCTL_USBAEP) == 0U)
 638:Drivers/STM32F7xx_HAL_Driver/Src/stm32f7xx_ll_usb.c ****     {
 639:Drivers/STM32F7xx_HAL_Driver/Src/stm32f7xx_ll_usb.c ****       USBx_INEP(epnum)->DIEPCTL |= (ep->maxpacket & USB_OTG_DIEPCTL_MPSIZ) |
 640:Drivers/STM32F7xx_HAL_Driver/Src/stm32f7xx_ll_usb.c ****                                    ((uint32_t)ep->type << 18) | (epnum << 22) |
 641:Drivers/STM32F7xx_HAL_Driver/Src/stm32f7xx_ll_usb.c ****                                    USB_OTG_DIEPCTL_SD0PID_SEVNFRM |
 642:Drivers/STM32F7xx_HAL_Driver/Src/stm32f7xx_ll_usb.c ****                                    USB_OTG_DIEPCTL_USBAEP;
 643:Drivers/STM32F7xx_HAL_Driver/Src/stm32f7xx_ll_usb.c ****     }
 644:Drivers/STM32F7xx_HAL_Driver/Src/stm32f7xx_ll_usb.c ****   }
 645:Drivers/STM32F7xx_HAL_Driver/Src/stm32f7xx_ll_usb.c ****   else
 646:Drivers/STM32F7xx_HAL_Driver/Src/stm32f7xx_ll_usb.c ****   {
 647:Drivers/STM32F7xx_HAL_Driver/Src/stm32f7xx_ll_usb.c ****     USBx_DEVICE->DAINTMSK |= USB_OTG_DAINTMSK_OEPM & ((uint32_t)(1UL << (ep->num & EP_ADDR_MSK)) <<
 648:Drivers/STM32F7xx_HAL_Driver/Src/stm32f7xx_ll_usb.c **** 
 649:Drivers/STM32F7xx_HAL_Driver/Src/stm32f7xx_ll_usb.c ****     if (((USBx_OUTEP(epnum)->DOEPCTL) & USB_OTG_DOEPCTL_USBAEP) == 0U)
 650:Drivers/STM32F7xx_HAL_Driver/Src/stm32f7xx_ll_usb.c ****     {
 651:Drivers/STM32F7xx_HAL_Driver/Src/stm32f7xx_ll_usb.c ****       USBx_OUTEP(epnum)->DOEPCTL |= (ep->maxpacket & USB_OTG_DOEPCTL_MPSIZ) |
 652:Drivers/STM32F7xx_HAL_Driver/Src/stm32f7xx_ll_usb.c ****                                     ((uint32_t)ep->type << 18) |
 653:Drivers/STM32F7xx_HAL_Driver/Src/stm32f7xx_ll_usb.c ****                                     USB_OTG_DIEPCTL_SD0PID_SEVNFRM |
 654:Drivers/STM32F7xx_HAL_Driver/Src/stm32f7xx_ll_usb.c ****                                     USB_OTG_DOEPCTL_USBAEP;
 655:Drivers/STM32F7xx_HAL_Driver/Src/stm32f7xx_ll_usb.c ****     }
 656:Drivers/STM32F7xx_HAL_Driver/Src/stm32f7xx_ll_usb.c ****   }
 657:Drivers/STM32F7xx_HAL_Driver/Src/stm32f7xx_ll_usb.c ****   return HAL_OK;
 658:Drivers/STM32F7xx_HAL_Driver/Src/stm32f7xx_ll_usb.c **** }
ARM GAS  /var/folders/8d/8djywmp92nx9cg9c5pcw0px00000gn/T//ccLp59Ij.s 			page 13


 659:Drivers/STM32F7xx_HAL_Driver/Src/stm32f7xx_ll_usb.c **** 
 660:Drivers/STM32F7xx_HAL_Driver/Src/stm32f7xx_ll_usb.c **** /**
 661:Drivers/STM32F7xx_HAL_Driver/Src/stm32f7xx_ll_usb.c ****   * @brief  Activate and configure a dedicated endpoint
 662:Drivers/STM32F7xx_HAL_Driver/Src/stm32f7xx_ll_usb.c ****   * @param  USBx  Selected device
 663:Drivers/STM32F7xx_HAL_Driver/Src/stm32f7xx_ll_usb.c ****   * @param  ep pointer to endpoint structure
 664:Drivers/STM32F7xx_HAL_Driver/Src/stm32f7xx_ll_usb.c ****   * @retval HAL status
 665:Drivers/STM32F7xx_HAL_Driver/Src/stm32f7xx_ll_usb.c ****   */
 666:Drivers/STM32F7xx_HAL_Driver/Src/stm32f7xx_ll_usb.c **** HAL_StatusTypeDef USB_ActivateDedicatedEndpoint(const USB_OTG_GlobalTypeDef *USBx, const USB_OTG_EP
 667:Drivers/STM32F7xx_HAL_Driver/Src/stm32f7xx_ll_usb.c **** {
 668:Drivers/STM32F7xx_HAL_Driver/Src/stm32f7xx_ll_usb.c ****   uint32_t USBx_BASE = (uint32_t)USBx;
 669:Drivers/STM32F7xx_HAL_Driver/Src/stm32f7xx_ll_usb.c ****   uint32_t epnum = (uint32_t)ep->num;
 670:Drivers/STM32F7xx_HAL_Driver/Src/stm32f7xx_ll_usb.c **** 
 671:Drivers/STM32F7xx_HAL_Driver/Src/stm32f7xx_ll_usb.c ****   /* Read DEPCTLn register */
 672:Drivers/STM32F7xx_HAL_Driver/Src/stm32f7xx_ll_usb.c ****   if (ep->is_in == 1U)
 673:Drivers/STM32F7xx_HAL_Driver/Src/stm32f7xx_ll_usb.c ****   {
 674:Drivers/STM32F7xx_HAL_Driver/Src/stm32f7xx_ll_usb.c ****     if (((USBx_INEP(epnum)->DIEPCTL) & USB_OTG_DIEPCTL_USBAEP) == 0U)
 675:Drivers/STM32F7xx_HAL_Driver/Src/stm32f7xx_ll_usb.c ****     {
 676:Drivers/STM32F7xx_HAL_Driver/Src/stm32f7xx_ll_usb.c ****       USBx_INEP(epnum)->DIEPCTL |= (ep->maxpacket & USB_OTG_DIEPCTL_MPSIZ) |
 677:Drivers/STM32F7xx_HAL_Driver/Src/stm32f7xx_ll_usb.c ****                                    ((uint32_t)ep->type << 18) | (epnum << 22) |
 678:Drivers/STM32F7xx_HAL_Driver/Src/stm32f7xx_ll_usb.c ****                                    USB_OTG_DIEPCTL_SD0PID_SEVNFRM |
 679:Drivers/STM32F7xx_HAL_Driver/Src/stm32f7xx_ll_usb.c ****                                    USB_OTG_DIEPCTL_USBAEP;
 680:Drivers/STM32F7xx_HAL_Driver/Src/stm32f7xx_ll_usb.c ****     }
 681:Drivers/STM32F7xx_HAL_Driver/Src/stm32f7xx_ll_usb.c **** 
 682:Drivers/STM32F7xx_HAL_Driver/Src/stm32f7xx_ll_usb.c ****     USBx_DEVICE->DEACHMSK |= USB_OTG_DAINTMSK_IEPM & (uint32_t)(1UL << (ep->num & EP_ADDR_MSK));
 683:Drivers/STM32F7xx_HAL_Driver/Src/stm32f7xx_ll_usb.c ****   }
 684:Drivers/STM32F7xx_HAL_Driver/Src/stm32f7xx_ll_usb.c ****   else
 685:Drivers/STM32F7xx_HAL_Driver/Src/stm32f7xx_ll_usb.c ****   {
 686:Drivers/STM32F7xx_HAL_Driver/Src/stm32f7xx_ll_usb.c ****     if (((USBx_OUTEP(epnum)->DOEPCTL) & USB_OTG_DOEPCTL_USBAEP) == 0U)
 687:Drivers/STM32F7xx_HAL_Driver/Src/stm32f7xx_ll_usb.c ****     {
 688:Drivers/STM32F7xx_HAL_Driver/Src/stm32f7xx_ll_usb.c ****       USBx_OUTEP(epnum)->DOEPCTL |= (ep->maxpacket & USB_OTG_DOEPCTL_MPSIZ) |
 689:Drivers/STM32F7xx_HAL_Driver/Src/stm32f7xx_ll_usb.c ****                                     ((uint32_t)ep->type << 18) | (epnum << 22) |
 690:Drivers/STM32F7xx_HAL_Driver/Src/stm32f7xx_ll_usb.c ****                                     USB_OTG_DOEPCTL_USBAEP;
 691:Drivers/STM32F7xx_HAL_Driver/Src/stm32f7xx_ll_usb.c ****     }
 692:Drivers/STM32F7xx_HAL_Driver/Src/stm32f7xx_ll_usb.c **** 
 693:Drivers/STM32F7xx_HAL_Driver/Src/stm32f7xx_ll_usb.c ****     USBx_DEVICE->DEACHMSK |= USB_OTG_DAINTMSK_OEPM & ((uint32_t)(1UL << (ep->num & EP_ADDR_MSK)) <<
 694:Drivers/STM32F7xx_HAL_Driver/Src/stm32f7xx_ll_usb.c ****   }
 695:Drivers/STM32F7xx_HAL_Driver/Src/stm32f7xx_ll_usb.c **** 
 696:Drivers/STM32F7xx_HAL_Driver/Src/stm32f7xx_ll_usb.c ****   return HAL_OK;
 697:Drivers/STM32F7xx_HAL_Driver/Src/stm32f7xx_ll_usb.c **** }
 698:Drivers/STM32F7xx_HAL_Driver/Src/stm32f7xx_ll_usb.c **** 
 699:Drivers/STM32F7xx_HAL_Driver/Src/stm32f7xx_ll_usb.c **** /**
 700:Drivers/STM32F7xx_HAL_Driver/Src/stm32f7xx_ll_usb.c ****   * @brief  De-activate and de-initialize an endpoint
 701:Drivers/STM32F7xx_HAL_Driver/Src/stm32f7xx_ll_usb.c ****   * @param  USBx  Selected device
 702:Drivers/STM32F7xx_HAL_Driver/Src/stm32f7xx_ll_usb.c ****   * @param  ep pointer to endpoint structure
 703:Drivers/STM32F7xx_HAL_Driver/Src/stm32f7xx_ll_usb.c ****   * @retval HAL status
 704:Drivers/STM32F7xx_HAL_Driver/Src/stm32f7xx_ll_usb.c ****   */
 705:Drivers/STM32F7xx_HAL_Driver/Src/stm32f7xx_ll_usb.c **** HAL_StatusTypeDef USB_DeactivateEndpoint(const USB_OTG_GlobalTypeDef *USBx, const USB_OTG_EPTypeDef
 706:Drivers/STM32F7xx_HAL_Driver/Src/stm32f7xx_ll_usb.c **** {
 707:Drivers/STM32F7xx_HAL_Driver/Src/stm32f7xx_ll_usb.c ****   uint32_t USBx_BASE = (uint32_t)USBx;
 708:Drivers/STM32F7xx_HAL_Driver/Src/stm32f7xx_ll_usb.c ****   uint32_t epnum = (uint32_t)ep->num;
 709:Drivers/STM32F7xx_HAL_Driver/Src/stm32f7xx_ll_usb.c **** 
 710:Drivers/STM32F7xx_HAL_Driver/Src/stm32f7xx_ll_usb.c ****   /* Read DEPCTLn register */
 711:Drivers/STM32F7xx_HAL_Driver/Src/stm32f7xx_ll_usb.c ****   if (ep->is_in == 1U)
 712:Drivers/STM32F7xx_HAL_Driver/Src/stm32f7xx_ll_usb.c ****   {
 713:Drivers/STM32F7xx_HAL_Driver/Src/stm32f7xx_ll_usb.c ****     if ((USBx_INEP(epnum)->DIEPCTL & USB_OTG_DIEPCTL_EPENA) == USB_OTG_DIEPCTL_EPENA)
 714:Drivers/STM32F7xx_HAL_Driver/Src/stm32f7xx_ll_usb.c ****     {
 715:Drivers/STM32F7xx_HAL_Driver/Src/stm32f7xx_ll_usb.c ****       USBx_INEP(epnum)->DIEPCTL |= USB_OTG_DIEPCTL_SNAK;
ARM GAS  /var/folders/8d/8djywmp92nx9cg9c5pcw0px00000gn/T//ccLp59Ij.s 			page 14


 716:Drivers/STM32F7xx_HAL_Driver/Src/stm32f7xx_ll_usb.c ****       USBx_INEP(epnum)->DIEPCTL |= USB_OTG_DIEPCTL_EPDIS;
 717:Drivers/STM32F7xx_HAL_Driver/Src/stm32f7xx_ll_usb.c ****     }
 718:Drivers/STM32F7xx_HAL_Driver/Src/stm32f7xx_ll_usb.c **** 
 719:Drivers/STM32F7xx_HAL_Driver/Src/stm32f7xx_ll_usb.c ****     USBx_DEVICE->DEACHMSK &= ~(USB_OTG_DAINTMSK_IEPM & (uint32_t)(1UL << (ep->num & EP_ADDR_MSK)));
 720:Drivers/STM32F7xx_HAL_Driver/Src/stm32f7xx_ll_usb.c ****     USBx_DEVICE->DAINTMSK &= ~(USB_OTG_DAINTMSK_IEPM & (uint32_t)(1UL << (ep->num & EP_ADDR_MSK)));
 721:Drivers/STM32F7xx_HAL_Driver/Src/stm32f7xx_ll_usb.c ****     USBx_INEP(epnum)->DIEPCTL &= ~(USB_OTG_DIEPCTL_USBAEP |
 722:Drivers/STM32F7xx_HAL_Driver/Src/stm32f7xx_ll_usb.c ****                                    USB_OTG_DIEPCTL_MPSIZ |
 723:Drivers/STM32F7xx_HAL_Driver/Src/stm32f7xx_ll_usb.c ****                                    USB_OTG_DIEPCTL_TXFNUM |
 724:Drivers/STM32F7xx_HAL_Driver/Src/stm32f7xx_ll_usb.c ****                                    USB_OTG_DIEPCTL_SD0PID_SEVNFRM |
 725:Drivers/STM32F7xx_HAL_Driver/Src/stm32f7xx_ll_usb.c ****                                    USB_OTG_DIEPCTL_EPTYP);
 726:Drivers/STM32F7xx_HAL_Driver/Src/stm32f7xx_ll_usb.c ****   }
 727:Drivers/STM32F7xx_HAL_Driver/Src/stm32f7xx_ll_usb.c ****   else
 728:Drivers/STM32F7xx_HAL_Driver/Src/stm32f7xx_ll_usb.c ****   {
 729:Drivers/STM32F7xx_HAL_Driver/Src/stm32f7xx_ll_usb.c ****     if ((USBx_OUTEP(epnum)->DOEPCTL & USB_OTG_DOEPCTL_EPENA) == USB_OTG_DOEPCTL_EPENA)
 730:Drivers/STM32F7xx_HAL_Driver/Src/stm32f7xx_ll_usb.c ****     {
 731:Drivers/STM32F7xx_HAL_Driver/Src/stm32f7xx_ll_usb.c ****       USBx_OUTEP(epnum)->DOEPCTL |= USB_OTG_DOEPCTL_SNAK;
 732:Drivers/STM32F7xx_HAL_Driver/Src/stm32f7xx_ll_usb.c ****       USBx_OUTEP(epnum)->DOEPCTL |= USB_OTG_DOEPCTL_EPDIS;
 733:Drivers/STM32F7xx_HAL_Driver/Src/stm32f7xx_ll_usb.c ****     }
 734:Drivers/STM32F7xx_HAL_Driver/Src/stm32f7xx_ll_usb.c **** 
 735:Drivers/STM32F7xx_HAL_Driver/Src/stm32f7xx_ll_usb.c ****     USBx_DEVICE->DEACHMSK &= ~(USB_OTG_DAINTMSK_OEPM & ((uint32_t)(1UL << (ep->num & EP_ADDR_MSK)) 
 736:Drivers/STM32F7xx_HAL_Driver/Src/stm32f7xx_ll_usb.c ****     USBx_DEVICE->DAINTMSK &= ~(USB_OTG_DAINTMSK_OEPM & ((uint32_t)(1UL << (ep->num & EP_ADDR_MSK)) 
 737:Drivers/STM32F7xx_HAL_Driver/Src/stm32f7xx_ll_usb.c ****     USBx_OUTEP(epnum)->DOEPCTL &= ~(USB_OTG_DOEPCTL_USBAEP |
 738:Drivers/STM32F7xx_HAL_Driver/Src/stm32f7xx_ll_usb.c ****                                     USB_OTG_DOEPCTL_MPSIZ |
 739:Drivers/STM32F7xx_HAL_Driver/Src/stm32f7xx_ll_usb.c ****                                     USB_OTG_DOEPCTL_SD0PID_SEVNFRM |
 740:Drivers/STM32F7xx_HAL_Driver/Src/stm32f7xx_ll_usb.c ****                                     USB_OTG_DOEPCTL_EPTYP);
 741:Drivers/STM32F7xx_HAL_Driver/Src/stm32f7xx_ll_usb.c ****   }
 742:Drivers/STM32F7xx_HAL_Driver/Src/stm32f7xx_ll_usb.c **** 
 743:Drivers/STM32F7xx_HAL_Driver/Src/stm32f7xx_ll_usb.c ****   return HAL_OK;
 744:Drivers/STM32F7xx_HAL_Driver/Src/stm32f7xx_ll_usb.c **** }
 745:Drivers/STM32F7xx_HAL_Driver/Src/stm32f7xx_ll_usb.c **** 
 746:Drivers/STM32F7xx_HAL_Driver/Src/stm32f7xx_ll_usb.c **** /**
 747:Drivers/STM32F7xx_HAL_Driver/Src/stm32f7xx_ll_usb.c ****   * @brief  De-activate and de-initialize a dedicated endpoint
 748:Drivers/STM32F7xx_HAL_Driver/Src/stm32f7xx_ll_usb.c ****   * @param  USBx  Selected device
 749:Drivers/STM32F7xx_HAL_Driver/Src/stm32f7xx_ll_usb.c ****   * @param  ep pointer to endpoint structure
 750:Drivers/STM32F7xx_HAL_Driver/Src/stm32f7xx_ll_usb.c ****   * @retval HAL status
 751:Drivers/STM32F7xx_HAL_Driver/Src/stm32f7xx_ll_usb.c ****   */
 752:Drivers/STM32F7xx_HAL_Driver/Src/stm32f7xx_ll_usb.c **** HAL_StatusTypeDef USB_DeactivateDedicatedEndpoint(const USB_OTG_GlobalTypeDef *USBx, const USB_OTG_
 753:Drivers/STM32F7xx_HAL_Driver/Src/stm32f7xx_ll_usb.c **** {
 754:Drivers/STM32F7xx_HAL_Driver/Src/stm32f7xx_ll_usb.c ****   uint32_t USBx_BASE = (uint32_t)USBx;
 755:Drivers/STM32F7xx_HAL_Driver/Src/stm32f7xx_ll_usb.c ****   uint32_t epnum = (uint32_t)ep->num;
 756:Drivers/STM32F7xx_HAL_Driver/Src/stm32f7xx_ll_usb.c **** 
 757:Drivers/STM32F7xx_HAL_Driver/Src/stm32f7xx_ll_usb.c ****   /* Read DEPCTLn register */
 758:Drivers/STM32F7xx_HAL_Driver/Src/stm32f7xx_ll_usb.c ****   if (ep->is_in == 1U)
 759:Drivers/STM32F7xx_HAL_Driver/Src/stm32f7xx_ll_usb.c ****   {
 760:Drivers/STM32F7xx_HAL_Driver/Src/stm32f7xx_ll_usb.c ****     if ((USBx_INEP(epnum)->DIEPCTL & USB_OTG_DIEPCTL_EPENA) == USB_OTG_DIEPCTL_EPENA)
 761:Drivers/STM32F7xx_HAL_Driver/Src/stm32f7xx_ll_usb.c ****     {
 762:Drivers/STM32F7xx_HAL_Driver/Src/stm32f7xx_ll_usb.c ****       USBx_INEP(epnum)->DIEPCTL  |= USB_OTG_DIEPCTL_SNAK;
 763:Drivers/STM32F7xx_HAL_Driver/Src/stm32f7xx_ll_usb.c ****       USBx_INEP(epnum)->DIEPCTL  |= USB_OTG_DIEPCTL_EPDIS;
 764:Drivers/STM32F7xx_HAL_Driver/Src/stm32f7xx_ll_usb.c ****     }
 765:Drivers/STM32F7xx_HAL_Driver/Src/stm32f7xx_ll_usb.c **** 
 766:Drivers/STM32F7xx_HAL_Driver/Src/stm32f7xx_ll_usb.c ****     USBx_INEP(epnum)->DIEPCTL &= ~ USB_OTG_DIEPCTL_USBAEP;
 767:Drivers/STM32F7xx_HAL_Driver/Src/stm32f7xx_ll_usb.c ****     USBx_DEVICE->DAINTMSK &= ~(USB_OTG_DAINTMSK_IEPM & (uint32_t)(1UL << (ep->num & EP_ADDR_MSK)));
 768:Drivers/STM32F7xx_HAL_Driver/Src/stm32f7xx_ll_usb.c ****   }
 769:Drivers/STM32F7xx_HAL_Driver/Src/stm32f7xx_ll_usb.c ****   else
 770:Drivers/STM32F7xx_HAL_Driver/Src/stm32f7xx_ll_usb.c ****   {
 771:Drivers/STM32F7xx_HAL_Driver/Src/stm32f7xx_ll_usb.c ****     if ((USBx_OUTEP(epnum)->DOEPCTL & USB_OTG_DOEPCTL_EPENA) == USB_OTG_DOEPCTL_EPENA)
 772:Drivers/STM32F7xx_HAL_Driver/Src/stm32f7xx_ll_usb.c ****     {
ARM GAS  /var/folders/8d/8djywmp92nx9cg9c5pcw0px00000gn/T//ccLp59Ij.s 			page 15


 773:Drivers/STM32F7xx_HAL_Driver/Src/stm32f7xx_ll_usb.c ****       USBx_OUTEP(epnum)->DOEPCTL  |= USB_OTG_DOEPCTL_SNAK;
 774:Drivers/STM32F7xx_HAL_Driver/Src/stm32f7xx_ll_usb.c ****       USBx_OUTEP(epnum)->DOEPCTL  |= USB_OTG_DOEPCTL_EPDIS;
 775:Drivers/STM32F7xx_HAL_Driver/Src/stm32f7xx_ll_usb.c ****     }
 776:Drivers/STM32F7xx_HAL_Driver/Src/stm32f7xx_ll_usb.c **** 
 777:Drivers/STM32F7xx_HAL_Driver/Src/stm32f7xx_ll_usb.c ****     USBx_OUTEP(epnum)->DOEPCTL &= ~USB_OTG_DOEPCTL_USBAEP;
 778:Drivers/STM32F7xx_HAL_Driver/Src/stm32f7xx_ll_usb.c ****     USBx_DEVICE->DAINTMSK &= ~(USB_OTG_DAINTMSK_OEPM & ((uint32_t)(1UL << (ep->num & EP_ADDR_MSK)) 
 779:Drivers/STM32F7xx_HAL_Driver/Src/stm32f7xx_ll_usb.c ****   }
 780:Drivers/STM32F7xx_HAL_Driver/Src/stm32f7xx_ll_usb.c **** 
 781:Drivers/STM32F7xx_HAL_Driver/Src/stm32f7xx_ll_usb.c ****   return HAL_OK;
 782:Drivers/STM32F7xx_HAL_Driver/Src/stm32f7xx_ll_usb.c **** }
 783:Drivers/STM32F7xx_HAL_Driver/Src/stm32f7xx_ll_usb.c **** 
 784:Drivers/STM32F7xx_HAL_Driver/Src/stm32f7xx_ll_usb.c **** /**
 785:Drivers/STM32F7xx_HAL_Driver/Src/stm32f7xx_ll_usb.c ****   * @brief  USB_EPStartXfer : setup and starts a transfer over an EP
 786:Drivers/STM32F7xx_HAL_Driver/Src/stm32f7xx_ll_usb.c ****   * @param  USBx  Selected device
 787:Drivers/STM32F7xx_HAL_Driver/Src/stm32f7xx_ll_usb.c ****   * @param  ep pointer to endpoint structure
 788:Drivers/STM32F7xx_HAL_Driver/Src/stm32f7xx_ll_usb.c ****   * @param  dma USB dma enabled or disabled
 789:Drivers/STM32F7xx_HAL_Driver/Src/stm32f7xx_ll_usb.c ****   *          This parameter can be one of these values:
 790:Drivers/STM32F7xx_HAL_Driver/Src/stm32f7xx_ll_usb.c ****   *           0 : DMA feature not used
 791:Drivers/STM32F7xx_HAL_Driver/Src/stm32f7xx_ll_usb.c ****   *           1 : DMA feature used
 792:Drivers/STM32F7xx_HAL_Driver/Src/stm32f7xx_ll_usb.c ****   * @retval HAL status
 793:Drivers/STM32F7xx_HAL_Driver/Src/stm32f7xx_ll_usb.c ****   */
 794:Drivers/STM32F7xx_HAL_Driver/Src/stm32f7xx_ll_usb.c **** HAL_StatusTypeDef USB_EPStartXfer(USB_OTG_GlobalTypeDef *USBx, USB_OTG_EPTypeDef *ep, uint8_t dma)
 795:Drivers/STM32F7xx_HAL_Driver/Src/stm32f7xx_ll_usb.c **** {
 796:Drivers/STM32F7xx_HAL_Driver/Src/stm32f7xx_ll_usb.c ****   uint32_t USBx_BASE = (uint32_t)USBx;
 797:Drivers/STM32F7xx_HAL_Driver/Src/stm32f7xx_ll_usb.c ****   uint32_t epnum = (uint32_t)ep->num;
 798:Drivers/STM32F7xx_HAL_Driver/Src/stm32f7xx_ll_usb.c ****   uint16_t pktcnt;
 799:Drivers/STM32F7xx_HAL_Driver/Src/stm32f7xx_ll_usb.c **** 
 800:Drivers/STM32F7xx_HAL_Driver/Src/stm32f7xx_ll_usb.c ****   /* IN endpoint */
 801:Drivers/STM32F7xx_HAL_Driver/Src/stm32f7xx_ll_usb.c ****   if (ep->is_in == 1U)
 802:Drivers/STM32F7xx_HAL_Driver/Src/stm32f7xx_ll_usb.c ****   {
 803:Drivers/STM32F7xx_HAL_Driver/Src/stm32f7xx_ll_usb.c ****     /* Zero Length Packet? */
 804:Drivers/STM32F7xx_HAL_Driver/Src/stm32f7xx_ll_usb.c ****     if (ep->xfer_len == 0U)
 805:Drivers/STM32F7xx_HAL_Driver/Src/stm32f7xx_ll_usb.c ****     {
 806:Drivers/STM32F7xx_HAL_Driver/Src/stm32f7xx_ll_usb.c ****       USBx_INEP(epnum)->DIEPTSIZ &= ~(USB_OTG_DIEPTSIZ_PKTCNT);
 807:Drivers/STM32F7xx_HAL_Driver/Src/stm32f7xx_ll_usb.c ****       USBx_INEP(epnum)->DIEPTSIZ |= (USB_OTG_DIEPTSIZ_PKTCNT & (1U << 19));
 808:Drivers/STM32F7xx_HAL_Driver/Src/stm32f7xx_ll_usb.c ****       USBx_INEP(epnum)->DIEPTSIZ &= ~(USB_OTG_DIEPTSIZ_XFRSIZ);
 809:Drivers/STM32F7xx_HAL_Driver/Src/stm32f7xx_ll_usb.c ****     }
 810:Drivers/STM32F7xx_HAL_Driver/Src/stm32f7xx_ll_usb.c ****     else
 811:Drivers/STM32F7xx_HAL_Driver/Src/stm32f7xx_ll_usb.c ****     {
 812:Drivers/STM32F7xx_HAL_Driver/Src/stm32f7xx_ll_usb.c ****       /* Program the transfer size and packet count
 813:Drivers/STM32F7xx_HAL_Driver/Src/stm32f7xx_ll_usb.c ****       * as follows: xfersize = N * maxpacket +
 814:Drivers/STM32F7xx_HAL_Driver/Src/stm32f7xx_ll_usb.c ****       * short_packet pktcnt = N + (short_packet
 815:Drivers/STM32F7xx_HAL_Driver/Src/stm32f7xx_ll_usb.c ****       * exist ? 1 : 0)
 816:Drivers/STM32F7xx_HAL_Driver/Src/stm32f7xx_ll_usb.c ****       */
 817:Drivers/STM32F7xx_HAL_Driver/Src/stm32f7xx_ll_usb.c ****       USBx_INEP(epnum)->DIEPTSIZ &= ~(USB_OTG_DIEPTSIZ_XFRSIZ);
 818:Drivers/STM32F7xx_HAL_Driver/Src/stm32f7xx_ll_usb.c ****       USBx_INEP(epnum)->DIEPTSIZ &= ~(USB_OTG_DIEPTSIZ_PKTCNT);
 819:Drivers/STM32F7xx_HAL_Driver/Src/stm32f7xx_ll_usb.c **** 
 820:Drivers/STM32F7xx_HAL_Driver/Src/stm32f7xx_ll_usb.c ****       if (epnum == 0U)
 821:Drivers/STM32F7xx_HAL_Driver/Src/stm32f7xx_ll_usb.c ****       {
 822:Drivers/STM32F7xx_HAL_Driver/Src/stm32f7xx_ll_usb.c ****         if (ep->xfer_len > ep->maxpacket)
 823:Drivers/STM32F7xx_HAL_Driver/Src/stm32f7xx_ll_usb.c ****         {
 824:Drivers/STM32F7xx_HAL_Driver/Src/stm32f7xx_ll_usb.c ****           ep->xfer_len = ep->maxpacket;
 825:Drivers/STM32F7xx_HAL_Driver/Src/stm32f7xx_ll_usb.c ****         }
 826:Drivers/STM32F7xx_HAL_Driver/Src/stm32f7xx_ll_usb.c **** 
 827:Drivers/STM32F7xx_HAL_Driver/Src/stm32f7xx_ll_usb.c ****         USBx_INEP(epnum)->DIEPTSIZ |= (USB_OTG_DIEPTSIZ_PKTCNT & (1U << 19));
 828:Drivers/STM32F7xx_HAL_Driver/Src/stm32f7xx_ll_usb.c ****       }
 829:Drivers/STM32F7xx_HAL_Driver/Src/stm32f7xx_ll_usb.c ****       else
ARM GAS  /var/folders/8d/8djywmp92nx9cg9c5pcw0px00000gn/T//ccLp59Ij.s 			page 16


 830:Drivers/STM32F7xx_HAL_Driver/Src/stm32f7xx_ll_usb.c ****       {
 831:Drivers/STM32F7xx_HAL_Driver/Src/stm32f7xx_ll_usb.c ****         USBx_INEP(epnum)->DIEPTSIZ |= (USB_OTG_DIEPTSIZ_PKTCNT &
 832:Drivers/STM32F7xx_HAL_Driver/Src/stm32f7xx_ll_usb.c ****                                        (((ep->xfer_len + ep->maxpacket - 1U) / ep->maxpacket) << 19
 833:Drivers/STM32F7xx_HAL_Driver/Src/stm32f7xx_ll_usb.c ****       }
 834:Drivers/STM32F7xx_HAL_Driver/Src/stm32f7xx_ll_usb.c **** 
 835:Drivers/STM32F7xx_HAL_Driver/Src/stm32f7xx_ll_usb.c ****       USBx_INEP(epnum)->DIEPTSIZ |= (USB_OTG_DIEPTSIZ_XFRSIZ & ep->xfer_len);
 836:Drivers/STM32F7xx_HAL_Driver/Src/stm32f7xx_ll_usb.c **** 
 837:Drivers/STM32F7xx_HAL_Driver/Src/stm32f7xx_ll_usb.c ****       if (ep->type == EP_TYPE_ISOC)
 838:Drivers/STM32F7xx_HAL_Driver/Src/stm32f7xx_ll_usb.c ****       {
 839:Drivers/STM32F7xx_HAL_Driver/Src/stm32f7xx_ll_usb.c ****         USBx_INEP(epnum)->DIEPTSIZ &= ~(USB_OTG_DIEPTSIZ_MULCNT);
 840:Drivers/STM32F7xx_HAL_Driver/Src/stm32f7xx_ll_usb.c ****         USBx_INEP(epnum)->DIEPTSIZ |= (USB_OTG_DIEPTSIZ_MULCNT & (1U << 29));
 841:Drivers/STM32F7xx_HAL_Driver/Src/stm32f7xx_ll_usb.c ****       }
 842:Drivers/STM32F7xx_HAL_Driver/Src/stm32f7xx_ll_usb.c ****     }
 843:Drivers/STM32F7xx_HAL_Driver/Src/stm32f7xx_ll_usb.c **** 
 844:Drivers/STM32F7xx_HAL_Driver/Src/stm32f7xx_ll_usb.c ****     if (dma == 1U)
 845:Drivers/STM32F7xx_HAL_Driver/Src/stm32f7xx_ll_usb.c ****     {
 846:Drivers/STM32F7xx_HAL_Driver/Src/stm32f7xx_ll_usb.c ****       if ((uint32_t)ep->dma_addr != 0U)
 847:Drivers/STM32F7xx_HAL_Driver/Src/stm32f7xx_ll_usb.c ****       {
 848:Drivers/STM32F7xx_HAL_Driver/Src/stm32f7xx_ll_usb.c ****         USBx_INEP(epnum)->DIEPDMA = (uint32_t)(ep->dma_addr);
 849:Drivers/STM32F7xx_HAL_Driver/Src/stm32f7xx_ll_usb.c ****       }
 850:Drivers/STM32F7xx_HAL_Driver/Src/stm32f7xx_ll_usb.c **** 
 851:Drivers/STM32F7xx_HAL_Driver/Src/stm32f7xx_ll_usb.c ****       if (ep->type == EP_TYPE_ISOC)
 852:Drivers/STM32F7xx_HAL_Driver/Src/stm32f7xx_ll_usb.c ****       {
 853:Drivers/STM32F7xx_HAL_Driver/Src/stm32f7xx_ll_usb.c ****         if ((USBx_DEVICE->DSTS & (1U << 8)) == 0U)
 854:Drivers/STM32F7xx_HAL_Driver/Src/stm32f7xx_ll_usb.c ****         {
 855:Drivers/STM32F7xx_HAL_Driver/Src/stm32f7xx_ll_usb.c ****           USBx_INEP(epnum)->DIEPCTL |= USB_OTG_DIEPCTL_SODDFRM;
 856:Drivers/STM32F7xx_HAL_Driver/Src/stm32f7xx_ll_usb.c ****         }
 857:Drivers/STM32F7xx_HAL_Driver/Src/stm32f7xx_ll_usb.c ****         else
 858:Drivers/STM32F7xx_HAL_Driver/Src/stm32f7xx_ll_usb.c ****         {
 859:Drivers/STM32F7xx_HAL_Driver/Src/stm32f7xx_ll_usb.c ****           USBx_INEP(epnum)->DIEPCTL |= USB_OTG_DIEPCTL_SD0PID_SEVNFRM;
 860:Drivers/STM32F7xx_HAL_Driver/Src/stm32f7xx_ll_usb.c ****         }
 861:Drivers/STM32F7xx_HAL_Driver/Src/stm32f7xx_ll_usb.c ****       }
 862:Drivers/STM32F7xx_HAL_Driver/Src/stm32f7xx_ll_usb.c **** 
 863:Drivers/STM32F7xx_HAL_Driver/Src/stm32f7xx_ll_usb.c ****       /* EP enable, IN data in FIFO */
 864:Drivers/STM32F7xx_HAL_Driver/Src/stm32f7xx_ll_usb.c ****       USBx_INEP(epnum)->DIEPCTL |= (USB_OTG_DIEPCTL_CNAK | USB_OTG_DIEPCTL_EPENA);
 865:Drivers/STM32F7xx_HAL_Driver/Src/stm32f7xx_ll_usb.c ****     }
 866:Drivers/STM32F7xx_HAL_Driver/Src/stm32f7xx_ll_usb.c ****     else
 867:Drivers/STM32F7xx_HAL_Driver/Src/stm32f7xx_ll_usb.c ****     {
 868:Drivers/STM32F7xx_HAL_Driver/Src/stm32f7xx_ll_usb.c ****       /* EP enable, IN data in FIFO */
 869:Drivers/STM32F7xx_HAL_Driver/Src/stm32f7xx_ll_usb.c ****       USBx_INEP(epnum)->DIEPCTL |= (USB_OTG_DIEPCTL_CNAK | USB_OTG_DIEPCTL_EPENA);
 870:Drivers/STM32F7xx_HAL_Driver/Src/stm32f7xx_ll_usb.c **** 
 871:Drivers/STM32F7xx_HAL_Driver/Src/stm32f7xx_ll_usb.c ****       if (ep->type != EP_TYPE_ISOC)
 872:Drivers/STM32F7xx_HAL_Driver/Src/stm32f7xx_ll_usb.c ****       {
 873:Drivers/STM32F7xx_HAL_Driver/Src/stm32f7xx_ll_usb.c ****         /* Enable the Tx FIFO Empty Interrupt for this EP */
 874:Drivers/STM32F7xx_HAL_Driver/Src/stm32f7xx_ll_usb.c ****         if (ep->xfer_len > 0U)
 875:Drivers/STM32F7xx_HAL_Driver/Src/stm32f7xx_ll_usb.c ****         {
 876:Drivers/STM32F7xx_HAL_Driver/Src/stm32f7xx_ll_usb.c ****           USBx_DEVICE->DIEPEMPMSK |= 1UL << (ep->num & EP_ADDR_MSK);
 877:Drivers/STM32F7xx_HAL_Driver/Src/stm32f7xx_ll_usb.c ****         }
 878:Drivers/STM32F7xx_HAL_Driver/Src/stm32f7xx_ll_usb.c ****       }
 879:Drivers/STM32F7xx_HAL_Driver/Src/stm32f7xx_ll_usb.c ****       else
 880:Drivers/STM32F7xx_HAL_Driver/Src/stm32f7xx_ll_usb.c ****       {
 881:Drivers/STM32F7xx_HAL_Driver/Src/stm32f7xx_ll_usb.c ****         if ((USBx_DEVICE->DSTS & (1U << 8)) == 0U)
 882:Drivers/STM32F7xx_HAL_Driver/Src/stm32f7xx_ll_usb.c ****         {
 883:Drivers/STM32F7xx_HAL_Driver/Src/stm32f7xx_ll_usb.c ****           USBx_INEP(epnum)->DIEPCTL |= USB_OTG_DIEPCTL_SODDFRM;
 884:Drivers/STM32F7xx_HAL_Driver/Src/stm32f7xx_ll_usb.c ****         }
 885:Drivers/STM32F7xx_HAL_Driver/Src/stm32f7xx_ll_usb.c ****         else
 886:Drivers/STM32F7xx_HAL_Driver/Src/stm32f7xx_ll_usb.c ****         {
ARM GAS  /var/folders/8d/8djywmp92nx9cg9c5pcw0px00000gn/T//ccLp59Ij.s 			page 17


 887:Drivers/STM32F7xx_HAL_Driver/Src/stm32f7xx_ll_usb.c ****           USBx_INEP(epnum)->DIEPCTL |= USB_OTG_DIEPCTL_SD0PID_SEVNFRM;
 888:Drivers/STM32F7xx_HAL_Driver/Src/stm32f7xx_ll_usb.c ****         }
 889:Drivers/STM32F7xx_HAL_Driver/Src/stm32f7xx_ll_usb.c **** 
 890:Drivers/STM32F7xx_HAL_Driver/Src/stm32f7xx_ll_usb.c ****         (void)USB_WritePacket(USBx, ep->xfer_buff, ep->num, (uint16_t)ep->xfer_len, dma);
 891:Drivers/STM32F7xx_HAL_Driver/Src/stm32f7xx_ll_usb.c ****       }
 892:Drivers/STM32F7xx_HAL_Driver/Src/stm32f7xx_ll_usb.c ****     }
 893:Drivers/STM32F7xx_HAL_Driver/Src/stm32f7xx_ll_usb.c ****   }
 894:Drivers/STM32F7xx_HAL_Driver/Src/stm32f7xx_ll_usb.c ****   else /* OUT endpoint */
 895:Drivers/STM32F7xx_HAL_Driver/Src/stm32f7xx_ll_usb.c ****   {
 896:Drivers/STM32F7xx_HAL_Driver/Src/stm32f7xx_ll_usb.c ****     /* Program the transfer size and packet count as follows:
 897:Drivers/STM32F7xx_HAL_Driver/Src/stm32f7xx_ll_usb.c ****     * pktcnt = N
 898:Drivers/STM32F7xx_HAL_Driver/Src/stm32f7xx_ll_usb.c ****     * xfersize = N * maxpacket
 899:Drivers/STM32F7xx_HAL_Driver/Src/stm32f7xx_ll_usb.c ****     */
 900:Drivers/STM32F7xx_HAL_Driver/Src/stm32f7xx_ll_usb.c ****     USBx_OUTEP(epnum)->DOEPTSIZ &= ~(USB_OTG_DOEPTSIZ_XFRSIZ);
 901:Drivers/STM32F7xx_HAL_Driver/Src/stm32f7xx_ll_usb.c ****     USBx_OUTEP(epnum)->DOEPTSIZ &= ~(USB_OTG_DOEPTSIZ_PKTCNT);
 902:Drivers/STM32F7xx_HAL_Driver/Src/stm32f7xx_ll_usb.c **** 
 903:Drivers/STM32F7xx_HAL_Driver/Src/stm32f7xx_ll_usb.c ****     if (epnum == 0U)
 904:Drivers/STM32F7xx_HAL_Driver/Src/stm32f7xx_ll_usb.c ****     {
 905:Drivers/STM32F7xx_HAL_Driver/Src/stm32f7xx_ll_usb.c ****       if (ep->xfer_len > 0U)
 906:Drivers/STM32F7xx_HAL_Driver/Src/stm32f7xx_ll_usb.c ****       {
 907:Drivers/STM32F7xx_HAL_Driver/Src/stm32f7xx_ll_usb.c ****         ep->xfer_len = ep->maxpacket;
 908:Drivers/STM32F7xx_HAL_Driver/Src/stm32f7xx_ll_usb.c ****       }
 909:Drivers/STM32F7xx_HAL_Driver/Src/stm32f7xx_ll_usb.c **** 
 910:Drivers/STM32F7xx_HAL_Driver/Src/stm32f7xx_ll_usb.c ****       /* Store transfer size, for EP0 this is equal to endpoint max packet size */
 911:Drivers/STM32F7xx_HAL_Driver/Src/stm32f7xx_ll_usb.c ****       ep->xfer_size = ep->maxpacket;
 912:Drivers/STM32F7xx_HAL_Driver/Src/stm32f7xx_ll_usb.c **** 
 913:Drivers/STM32F7xx_HAL_Driver/Src/stm32f7xx_ll_usb.c ****       USBx_OUTEP(epnum)->DOEPTSIZ |= (USB_OTG_DOEPTSIZ_XFRSIZ & ep->xfer_size);
 914:Drivers/STM32F7xx_HAL_Driver/Src/stm32f7xx_ll_usb.c ****       USBx_OUTEP(epnum)->DOEPTSIZ |= (USB_OTG_DOEPTSIZ_PKTCNT & (1U << 19));
 915:Drivers/STM32F7xx_HAL_Driver/Src/stm32f7xx_ll_usb.c ****     }
 916:Drivers/STM32F7xx_HAL_Driver/Src/stm32f7xx_ll_usb.c ****     else
 917:Drivers/STM32F7xx_HAL_Driver/Src/stm32f7xx_ll_usb.c ****     {
 918:Drivers/STM32F7xx_HAL_Driver/Src/stm32f7xx_ll_usb.c ****       if (ep->xfer_len == 0U)
 919:Drivers/STM32F7xx_HAL_Driver/Src/stm32f7xx_ll_usb.c ****       {
 920:Drivers/STM32F7xx_HAL_Driver/Src/stm32f7xx_ll_usb.c ****         USBx_OUTEP(epnum)->DOEPTSIZ |= (USB_OTG_DOEPTSIZ_XFRSIZ & ep->maxpacket);
 921:Drivers/STM32F7xx_HAL_Driver/Src/stm32f7xx_ll_usb.c ****         USBx_OUTEP(epnum)->DOEPTSIZ |= (USB_OTG_DOEPTSIZ_PKTCNT & (1U << 19));
 922:Drivers/STM32F7xx_HAL_Driver/Src/stm32f7xx_ll_usb.c ****       }
 923:Drivers/STM32F7xx_HAL_Driver/Src/stm32f7xx_ll_usb.c ****       else
 924:Drivers/STM32F7xx_HAL_Driver/Src/stm32f7xx_ll_usb.c ****       {
 925:Drivers/STM32F7xx_HAL_Driver/Src/stm32f7xx_ll_usb.c ****         pktcnt = (uint16_t)((ep->xfer_len + ep->maxpacket - 1U) / ep->maxpacket);
 926:Drivers/STM32F7xx_HAL_Driver/Src/stm32f7xx_ll_usb.c ****         ep->xfer_size = ep->maxpacket * pktcnt;
 927:Drivers/STM32F7xx_HAL_Driver/Src/stm32f7xx_ll_usb.c **** 
 928:Drivers/STM32F7xx_HAL_Driver/Src/stm32f7xx_ll_usb.c ****         USBx_OUTEP(epnum)->DOEPTSIZ |= USB_OTG_DOEPTSIZ_PKTCNT & ((uint32_t)pktcnt << 19);
 929:Drivers/STM32F7xx_HAL_Driver/Src/stm32f7xx_ll_usb.c ****         USBx_OUTEP(epnum)->DOEPTSIZ |= USB_OTG_DOEPTSIZ_XFRSIZ & ep->xfer_size;
 930:Drivers/STM32F7xx_HAL_Driver/Src/stm32f7xx_ll_usb.c ****       }
 931:Drivers/STM32F7xx_HAL_Driver/Src/stm32f7xx_ll_usb.c ****     }
 932:Drivers/STM32F7xx_HAL_Driver/Src/stm32f7xx_ll_usb.c **** 
 933:Drivers/STM32F7xx_HAL_Driver/Src/stm32f7xx_ll_usb.c ****     if (dma == 1U)
 934:Drivers/STM32F7xx_HAL_Driver/Src/stm32f7xx_ll_usb.c ****     {
 935:Drivers/STM32F7xx_HAL_Driver/Src/stm32f7xx_ll_usb.c ****       if ((uint32_t)ep->xfer_buff != 0U)
 936:Drivers/STM32F7xx_HAL_Driver/Src/stm32f7xx_ll_usb.c ****       {
 937:Drivers/STM32F7xx_HAL_Driver/Src/stm32f7xx_ll_usb.c ****         USBx_OUTEP(epnum)->DOEPDMA = (uint32_t)(ep->xfer_buff);
 938:Drivers/STM32F7xx_HAL_Driver/Src/stm32f7xx_ll_usb.c ****       }
 939:Drivers/STM32F7xx_HAL_Driver/Src/stm32f7xx_ll_usb.c ****     }
 940:Drivers/STM32F7xx_HAL_Driver/Src/stm32f7xx_ll_usb.c **** 
 941:Drivers/STM32F7xx_HAL_Driver/Src/stm32f7xx_ll_usb.c ****     if (ep->type == EP_TYPE_ISOC)
 942:Drivers/STM32F7xx_HAL_Driver/Src/stm32f7xx_ll_usb.c ****     {
 943:Drivers/STM32F7xx_HAL_Driver/Src/stm32f7xx_ll_usb.c ****       if ((USBx_DEVICE->DSTS & (1U << 8)) == 0U)
ARM GAS  /var/folders/8d/8djywmp92nx9cg9c5pcw0px00000gn/T//ccLp59Ij.s 			page 18


 944:Drivers/STM32F7xx_HAL_Driver/Src/stm32f7xx_ll_usb.c ****       {
 945:Drivers/STM32F7xx_HAL_Driver/Src/stm32f7xx_ll_usb.c ****         USBx_OUTEP(epnum)->DOEPCTL |= USB_OTG_DOEPCTL_SODDFRM;
 946:Drivers/STM32F7xx_HAL_Driver/Src/stm32f7xx_ll_usb.c ****       }
 947:Drivers/STM32F7xx_HAL_Driver/Src/stm32f7xx_ll_usb.c ****       else
 948:Drivers/STM32F7xx_HAL_Driver/Src/stm32f7xx_ll_usb.c ****       {
 949:Drivers/STM32F7xx_HAL_Driver/Src/stm32f7xx_ll_usb.c ****         USBx_OUTEP(epnum)->DOEPCTL |= USB_OTG_DOEPCTL_SD0PID_SEVNFRM;
 950:Drivers/STM32F7xx_HAL_Driver/Src/stm32f7xx_ll_usb.c ****       }
 951:Drivers/STM32F7xx_HAL_Driver/Src/stm32f7xx_ll_usb.c ****     }
 952:Drivers/STM32F7xx_HAL_Driver/Src/stm32f7xx_ll_usb.c ****     /* EP enable */
 953:Drivers/STM32F7xx_HAL_Driver/Src/stm32f7xx_ll_usb.c ****     USBx_OUTEP(epnum)->DOEPCTL |= (USB_OTG_DOEPCTL_CNAK | USB_OTG_DOEPCTL_EPENA);
 954:Drivers/STM32F7xx_HAL_Driver/Src/stm32f7xx_ll_usb.c ****   }
 955:Drivers/STM32F7xx_HAL_Driver/Src/stm32f7xx_ll_usb.c **** 
 956:Drivers/STM32F7xx_HAL_Driver/Src/stm32f7xx_ll_usb.c ****   return HAL_OK;
 957:Drivers/STM32F7xx_HAL_Driver/Src/stm32f7xx_ll_usb.c **** }
 958:Drivers/STM32F7xx_HAL_Driver/Src/stm32f7xx_ll_usb.c **** 
 959:Drivers/STM32F7xx_HAL_Driver/Src/stm32f7xx_ll_usb.c **** 
 960:Drivers/STM32F7xx_HAL_Driver/Src/stm32f7xx_ll_usb.c **** /**
 961:Drivers/STM32F7xx_HAL_Driver/Src/stm32f7xx_ll_usb.c ****    * @brief  USB_EPStoptXfer  Stop transfer on an EP
 962:Drivers/STM32F7xx_HAL_Driver/Src/stm32f7xx_ll_usb.c ****    * @param  USBx  usb device instance
 963:Drivers/STM32F7xx_HAL_Driver/Src/stm32f7xx_ll_usb.c ****    * @param  ep pointer to endpoint structure
 964:Drivers/STM32F7xx_HAL_Driver/Src/stm32f7xx_ll_usb.c ****    * @retval HAL status
 965:Drivers/STM32F7xx_HAL_Driver/Src/stm32f7xx_ll_usb.c ****    */
 966:Drivers/STM32F7xx_HAL_Driver/Src/stm32f7xx_ll_usb.c **** HAL_StatusTypeDef USB_EPStopXfer(const USB_OTG_GlobalTypeDef *USBx, USB_OTG_EPTypeDef *ep)
 967:Drivers/STM32F7xx_HAL_Driver/Src/stm32f7xx_ll_usb.c **** {
 968:Drivers/STM32F7xx_HAL_Driver/Src/stm32f7xx_ll_usb.c ****   __IO uint32_t count = 0U;
 969:Drivers/STM32F7xx_HAL_Driver/Src/stm32f7xx_ll_usb.c ****   HAL_StatusTypeDef ret = HAL_OK;
 970:Drivers/STM32F7xx_HAL_Driver/Src/stm32f7xx_ll_usb.c ****   uint32_t USBx_BASE = (uint32_t)USBx;
 971:Drivers/STM32F7xx_HAL_Driver/Src/stm32f7xx_ll_usb.c **** 
 972:Drivers/STM32F7xx_HAL_Driver/Src/stm32f7xx_ll_usb.c ****   /* IN endpoint */
 973:Drivers/STM32F7xx_HAL_Driver/Src/stm32f7xx_ll_usb.c ****   if (ep->is_in == 1U)
 974:Drivers/STM32F7xx_HAL_Driver/Src/stm32f7xx_ll_usb.c ****   {
 975:Drivers/STM32F7xx_HAL_Driver/Src/stm32f7xx_ll_usb.c ****     /* EP enable, IN data in FIFO */
 976:Drivers/STM32F7xx_HAL_Driver/Src/stm32f7xx_ll_usb.c ****     if (((USBx_INEP(ep->num)->DIEPCTL) & USB_OTG_DIEPCTL_EPENA) == USB_OTG_DIEPCTL_EPENA)
 977:Drivers/STM32F7xx_HAL_Driver/Src/stm32f7xx_ll_usb.c ****     {
 978:Drivers/STM32F7xx_HAL_Driver/Src/stm32f7xx_ll_usb.c ****       USBx_INEP(ep->num)->DIEPCTL |= (USB_OTG_DIEPCTL_SNAK);
 979:Drivers/STM32F7xx_HAL_Driver/Src/stm32f7xx_ll_usb.c ****       USBx_INEP(ep->num)->DIEPCTL |= (USB_OTG_DIEPCTL_EPDIS);
 980:Drivers/STM32F7xx_HAL_Driver/Src/stm32f7xx_ll_usb.c **** 
 981:Drivers/STM32F7xx_HAL_Driver/Src/stm32f7xx_ll_usb.c ****       do
 982:Drivers/STM32F7xx_HAL_Driver/Src/stm32f7xx_ll_usb.c ****       {
 983:Drivers/STM32F7xx_HAL_Driver/Src/stm32f7xx_ll_usb.c ****         count++;
 984:Drivers/STM32F7xx_HAL_Driver/Src/stm32f7xx_ll_usb.c **** 
 985:Drivers/STM32F7xx_HAL_Driver/Src/stm32f7xx_ll_usb.c ****         if (count > 10000U)
 986:Drivers/STM32F7xx_HAL_Driver/Src/stm32f7xx_ll_usb.c ****         {
 987:Drivers/STM32F7xx_HAL_Driver/Src/stm32f7xx_ll_usb.c ****           ret = HAL_ERROR;
 988:Drivers/STM32F7xx_HAL_Driver/Src/stm32f7xx_ll_usb.c ****           break;
 989:Drivers/STM32F7xx_HAL_Driver/Src/stm32f7xx_ll_usb.c ****         }
 990:Drivers/STM32F7xx_HAL_Driver/Src/stm32f7xx_ll_usb.c ****       } while (((USBx_INEP(ep->num)->DIEPCTL) & USB_OTG_DIEPCTL_EPENA) ==  USB_OTG_DIEPCTL_EPENA);
 991:Drivers/STM32F7xx_HAL_Driver/Src/stm32f7xx_ll_usb.c ****     }
 992:Drivers/STM32F7xx_HAL_Driver/Src/stm32f7xx_ll_usb.c ****   }
 993:Drivers/STM32F7xx_HAL_Driver/Src/stm32f7xx_ll_usb.c ****   else /* OUT endpoint */
 994:Drivers/STM32F7xx_HAL_Driver/Src/stm32f7xx_ll_usb.c ****   {
 995:Drivers/STM32F7xx_HAL_Driver/Src/stm32f7xx_ll_usb.c ****     if (((USBx_OUTEP(ep->num)->DOEPCTL) & USB_OTG_DOEPCTL_EPENA) == USB_OTG_DOEPCTL_EPENA)
 996:Drivers/STM32F7xx_HAL_Driver/Src/stm32f7xx_ll_usb.c ****     {
 997:Drivers/STM32F7xx_HAL_Driver/Src/stm32f7xx_ll_usb.c ****       USBx_OUTEP(ep->num)->DOEPCTL |= (USB_OTG_DOEPCTL_SNAK);
 998:Drivers/STM32F7xx_HAL_Driver/Src/stm32f7xx_ll_usb.c ****       USBx_OUTEP(ep->num)->DOEPCTL |= (USB_OTG_DOEPCTL_EPDIS);
 999:Drivers/STM32F7xx_HAL_Driver/Src/stm32f7xx_ll_usb.c **** 
1000:Drivers/STM32F7xx_HAL_Driver/Src/stm32f7xx_ll_usb.c ****       do
ARM GAS  /var/folders/8d/8djywmp92nx9cg9c5pcw0px00000gn/T//ccLp59Ij.s 			page 19


1001:Drivers/STM32F7xx_HAL_Driver/Src/stm32f7xx_ll_usb.c ****       {
1002:Drivers/STM32F7xx_HAL_Driver/Src/stm32f7xx_ll_usb.c ****         count++;
1003:Drivers/STM32F7xx_HAL_Driver/Src/stm32f7xx_ll_usb.c **** 
1004:Drivers/STM32F7xx_HAL_Driver/Src/stm32f7xx_ll_usb.c ****         if (count > 10000U)
1005:Drivers/STM32F7xx_HAL_Driver/Src/stm32f7xx_ll_usb.c ****         {
1006:Drivers/STM32F7xx_HAL_Driver/Src/stm32f7xx_ll_usb.c ****           ret = HAL_ERROR;
1007:Drivers/STM32F7xx_HAL_Driver/Src/stm32f7xx_ll_usb.c ****           break;
1008:Drivers/STM32F7xx_HAL_Driver/Src/stm32f7xx_ll_usb.c ****         }
1009:Drivers/STM32F7xx_HAL_Driver/Src/stm32f7xx_ll_usb.c ****       } while (((USBx_OUTEP(ep->num)->DOEPCTL) & USB_OTG_DOEPCTL_EPENA) ==  USB_OTG_DOEPCTL_EPENA);
1010:Drivers/STM32F7xx_HAL_Driver/Src/stm32f7xx_ll_usb.c ****     }
1011:Drivers/STM32F7xx_HAL_Driver/Src/stm32f7xx_ll_usb.c ****   }
1012:Drivers/STM32F7xx_HAL_Driver/Src/stm32f7xx_ll_usb.c **** 
1013:Drivers/STM32F7xx_HAL_Driver/Src/stm32f7xx_ll_usb.c ****   return ret;
1014:Drivers/STM32F7xx_HAL_Driver/Src/stm32f7xx_ll_usb.c **** }
1015:Drivers/STM32F7xx_HAL_Driver/Src/stm32f7xx_ll_usb.c **** 
1016:Drivers/STM32F7xx_HAL_Driver/Src/stm32f7xx_ll_usb.c **** 
1017:Drivers/STM32F7xx_HAL_Driver/Src/stm32f7xx_ll_usb.c **** /**
1018:Drivers/STM32F7xx_HAL_Driver/Src/stm32f7xx_ll_usb.c ****   * @brief  USB_WritePacket : Writes a packet into the Tx FIFO associated
1019:Drivers/STM32F7xx_HAL_Driver/Src/stm32f7xx_ll_usb.c ****   *         with the EP/channel
1020:Drivers/STM32F7xx_HAL_Driver/Src/stm32f7xx_ll_usb.c ****   * @param  USBx  Selected device
1021:Drivers/STM32F7xx_HAL_Driver/Src/stm32f7xx_ll_usb.c ****   * @param  src   pointer to source buffer
1022:Drivers/STM32F7xx_HAL_Driver/Src/stm32f7xx_ll_usb.c ****   * @param  ch_ep_num  endpoint or host channel number
1023:Drivers/STM32F7xx_HAL_Driver/Src/stm32f7xx_ll_usb.c ****   * @param  len  Number of bytes to write
1024:Drivers/STM32F7xx_HAL_Driver/Src/stm32f7xx_ll_usb.c ****   * @param  dma USB dma enabled or disabled
1025:Drivers/STM32F7xx_HAL_Driver/Src/stm32f7xx_ll_usb.c ****   *          This parameter can be one of these values:
1026:Drivers/STM32F7xx_HAL_Driver/Src/stm32f7xx_ll_usb.c ****   *           0 : DMA feature not used
1027:Drivers/STM32F7xx_HAL_Driver/Src/stm32f7xx_ll_usb.c ****   *           1 : DMA feature used
1028:Drivers/STM32F7xx_HAL_Driver/Src/stm32f7xx_ll_usb.c ****   * @retval HAL status
1029:Drivers/STM32F7xx_HAL_Driver/Src/stm32f7xx_ll_usb.c ****   */
1030:Drivers/STM32F7xx_HAL_Driver/Src/stm32f7xx_ll_usb.c **** HAL_StatusTypeDef USB_WritePacket(const USB_OTG_GlobalTypeDef *USBx, uint8_t *src,
1031:Drivers/STM32F7xx_HAL_Driver/Src/stm32f7xx_ll_usb.c ****                                   uint8_t ch_ep_num, uint16_t len, uint8_t dma)
1032:Drivers/STM32F7xx_HAL_Driver/Src/stm32f7xx_ll_usb.c **** {
1033:Drivers/STM32F7xx_HAL_Driver/Src/stm32f7xx_ll_usb.c ****   uint32_t USBx_BASE = (uint32_t)USBx;
1034:Drivers/STM32F7xx_HAL_Driver/Src/stm32f7xx_ll_usb.c ****   uint8_t *pSrc = src;
1035:Drivers/STM32F7xx_HAL_Driver/Src/stm32f7xx_ll_usb.c ****   uint32_t count32b;
1036:Drivers/STM32F7xx_HAL_Driver/Src/stm32f7xx_ll_usb.c ****   uint32_t i;
1037:Drivers/STM32F7xx_HAL_Driver/Src/stm32f7xx_ll_usb.c **** 
1038:Drivers/STM32F7xx_HAL_Driver/Src/stm32f7xx_ll_usb.c ****   if (dma == 0U)
1039:Drivers/STM32F7xx_HAL_Driver/Src/stm32f7xx_ll_usb.c ****   {
1040:Drivers/STM32F7xx_HAL_Driver/Src/stm32f7xx_ll_usb.c ****     count32b = ((uint32_t)len + 3U) / 4U;
1041:Drivers/STM32F7xx_HAL_Driver/Src/stm32f7xx_ll_usb.c ****     for (i = 0U; i < count32b; i++)
1042:Drivers/STM32F7xx_HAL_Driver/Src/stm32f7xx_ll_usb.c ****     {
1043:Drivers/STM32F7xx_HAL_Driver/Src/stm32f7xx_ll_usb.c ****       USBx_DFIFO((uint32_t)ch_ep_num) = __UNALIGNED_UINT32_READ(pSrc);
1044:Drivers/STM32F7xx_HAL_Driver/Src/stm32f7xx_ll_usb.c ****       pSrc++;
1045:Drivers/STM32F7xx_HAL_Driver/Src/stm32f7xx_ll_usb.c ****       pSrc++;
1046:Drivers/STM32F7xx_HAL_Driver/Src/stm32f7xx_ll_usb.c ****       pSrc++;
1047:Drivers/STM32F7xx_HAL_Driver/Src/stm32f7xx_ll_usb.c ****       pSrc++;
1048:Drivers/STM32F7xx_HAL_Driver/Src/stm32f7xx_ll_usb.c ****     }
1049:Drivers/STM32F7xx_HAL_Driver/Src/stm32f7xx_ll_usb.c ****   }
1050:Drivers/STM32F7xx_HAL_Driver/Src/stm32f7xx_ll_usb.c **** 
1051:Drivers/STM32F7xx_HAL_Driver/Src/stm32f7xx_ll_usb.c ****   return HAL_OK;
1052:Drivers/STM32F7xx_HAL_Driver/Src/stm32f7xx_ll_usb.c **** }
1053:Drivers/STM32F7xx_HAL_Driver/Src/stm32f7xx_ll_usb.c **** 
1054:Drivers/STM32F7xx_HAL_Driver/Src/stm32f7xx_ll_usb.c **** /**
1055:Drivers/STM32F7xx_HAL_Driver/Src/stm32f7xx_ll_usb.c ****   * @brief  USB_ReadPacket : read a packet from the RX FIFO
1056:Drivers/STM32F7xx_HAL_Driver/Src/stm32f7xx_ll_usb.c ****   * @param  USBx  Selected device
1057:Drivers/STM32F7xx_HAL_Driver/Src/stm32f7xx_ll_usb.c ****   * @param  dest  source pointer
ARM GAS  /var/folders/8d/8djywmp92nx9cg9c5pcw0px00000gn/T//ccLp59Ij.s 			page 20


1058:Drivers/STM32F7xx_HAL_Driver/Src/stm32f7xx_ll_usb.c ****   * @param  len  Number of bytes to read
1059:Drivers/STM32F7xx_HAL_Driver/Src/stm32f7xx_ll_usb.c ****   * @retval pointer to destination buffer
1060:Drivers/STM32F7xx_HAL_Driver/Src/stm32f7xx_ll_usb.c ****   */
1061:Drivers/STM32F7xx_HAL_Driver/Src/stm32f7xx_ll_usb.c **** void *USB_ReadPacket(const USB_OTG_GlobalTypeDef *USBx, uint8_t *dest, uint16_t len)
1062:Drivers/STM32F7xx_HAL_Driver/Src/stm32f7xx_ll_usb.c **** {
1063:Drivers/STM32F7xx_HAL_Driver/Src/stm32f7xx_ll_usb.c ****   uint32_t USBx_BASE = (uint32_t)USBx;
1064:Drivers/STM32F7xx_HAL_Driver/Src/stm32f7xx_ll_usb.c ****   uint8_t *pDest = dest;
1065:Drivers/STM32F7xx_HAL_Driver/Src/stm32f7xx_ll_usb.c ****   uint32_t pData;
1066:Drivers/STM32F7xx_HAL_Driver/Src/stm32f7xx_ll_usb.c ****   uint32_t i;
1067:Drivers/STM32F7xx_HAL_Driver/Src/stm32f7xx_ll_usb.c ****   uint32_t count32b = (uint32_t)len >> 2U;
1068:Drivers/STM32F7xx_HAL_Driver/Src/stm32f7xx_ll_usb.c ****   uint16_t remaining_bytes = len % 4U;
1069:Drivers/STM32F7xx_HAL_Driver/Src/stm32f7xx_ll_usb.c **** 
1070:Drivers/STM32F7xx_HAL_Driver/Src/stm32f7xx_ll_usb.c ****   for (i = 0U; i < count32b; i++)
1071:Drivers/STM32F7xx_HAL_Driver/Src/stm32f7xx_ll_usb.c ****   {
1072:Drivers/STM32F7xx_HAL_Driver/Src/stm32f7xx_ll_usb.c ****     __UNALIGNED_UINT32_WRITE(pDest, USBx_DFIFO(0U));
1073:Drivers/STM32F7xx_HAL_Driver/Src/stm32f7xx_ll_usb.c ****     pDest++;
1074:Drivers/STM32F7xx_HAL_Driver/Src/stm32f7xx_ll_usb.c ****     pDest++;
1075:Drivers/STM32F7xx_HAL_Driver/Src/stm32f7xx_ll_usb.c ****     pDest++;
1076:Drivers/STM32F7xx_HAL_Driver/Src/stm32f7xx_ll_usb.c ****     pDest++;
1077:Drivers/STM32F7xx_HAL_Driver/Src/stm32f7xx_ll_usb.c ****   }
1078:Drivers/STM32F7xx_HAL_Driver/Src/stm32f7xx_ll_usb.c **** 
1079:Drivers/STM32F7xx_HAL_Driver/Src/stm32f7xx_ll_usb.c ****   /* When Number of data is not word aligned, read the remaining byte */
1080:Drivers/STM32F7xx_HAL_Driver/Src/stm32f7xx_ll_usb.c ****   if (remaining_bytes != 0U)
1081:Drivers/STM32F7xx_HAL_Driver/Src/stm32f7xx_ll_usb.c ****   {
1082:Drivers/STM32F7xx_HAL_Driver/Src/stm32f7xx_ll_usb.c ****     i = 0U;
1083:Drivers/STM32F7xx_HAL_Driver/Src/stm32f7xx_ll_usb.c ****     __UNALIGNED_UINT32_WRITE(&pData, USBx_DFIFO(0U));
1084:Drivers/STM32F7xx_HAL_Driver/Src/stm32f7xx_ll_usb.c **** 
1085:Drivers/STM32F7xx_HAL_Driver/Src/stm32f7xx_ll_usb.c ****     do
1086:Drivers/STM32F7xx_HAL_Driver/Src/stm32f7xx_ll_usb.c ****     {
1087:Drivers/STM32F7xx_HAL_Driver/Src/stm32f7xx_ll_usb.c ****       *(uint8_t *)pDest = (uint8_t)(pData >> (8U * (uint8_t)(i)));
1088:Drivers/STM32F7xx_HAL_Driver/Src/stm32f7xx_ll_usb.c ****       i++;
1089:Drivers/STM32F7xx_HAL_Driver/Src/stm32f7xx_ll_usb.c ****       pDest++;
1090:Drivers/STM32F7xx_HAL_Driver/Src/stm32f7xx_ll_usb.c ****       remaining_bytes--;
1091:Drivers/STM32F7xx_HAL_Driver/Src/stm32f7xx_ll_usb.c ****     } while (remaining_bytes != 0U);
1092:Drivers/STM32F7xx_HAL_Driver/Src/stm32f7xx_ll_usb.c ****   }
1093:Drivers/STM32F7xx_HAL_Driver/Src/stm32f7xx_ll_usb.c **** 
1094:Drivers/STM32F7xx_HAL_Driver/Src/stm32f7xx_ll_usb.c ****   return ((void *)pDest);
1095:Drivers/STM32F7xx_HAL_Driver/Src/stm32f7xx_ll_usb.c **** }
1096:Drivers/STM32F7xx_HAL_Driver/Src/stm32f7xx_ll_usb.c **** 
1097:Drivers/STM32F7xx_HAL_Driver/Src/stm32f7xx_ll_usb.c **** /**
1098:Drivers/STM32F7xx_HAL_Driver/Src/stm32f7xx_ll_usb.c ****   * @brief  USB_EPSetStall : set a stall condition over an EP
1099:Drivers/STM32F7xx_HAL_Driver/Src/stm32f7xx_ll_usb.c ****   * @param  USBx  Selected device
1100:Drivers/STM32F7xx_HAL_Driver/Src/stm32f7xx_ll_usb.c ****   * @param  ep pointer to endpoint structure
1101:Drivers/STM32F7xx_HAL_Driver/Src/stm32f7xx_ll_usb.c ****   * @retval HAL status
1102:Drivers/STM32F7xx_HAL_Driver/Src/stm32f7xx_ll_usb.c ****   */
1103:Drivers/STM32F7xx_HAL_Driver/Src/stm32f7xx_ll_usb.c **** HAL_StatusTypeDef USB_EPSetStall(const USB_OTG_GlobalTypeDef *USBx, const USB_OTG_EPTypeDef *ep)
1104:Drivers/STM32F7xx_HAL_Driver/Src/stm32f7xx_ll_usb.c **** {
1105:Drivers/STM32F7xx_HAL_Driver/Src/stm32f7xx_ll_usb.c ****   uint32_t USBx_BASE = (uint32_t)USBx;
1106:Drivers/STM32F7xx_HAL_Driver/Src/stm32f7xx_ll_usb.c ****   uint32_t epnum = (uint32_t)ep->num;
1107:Drivers/STM32F7xx_HAL_Driver/Src/stm32f7xx_ll_usb.c **** 
1108:Drivers/STM32F7xx_HAL_Driver/Src/stm32f7xx_ll_usb.c ****   if (ep->is_in == 1U)
1109:Drivers/STM32F7xx_HAL_Driver/Src/stm32f7xx_ll_usb.c ****   {
1110:Drivers/STM32F7xx_HAL_Driver/Src/stm32f7xx_ll_usb.c ****     if (((USBx_INEP(epnum)->DIEPCTL & USB_OTG_DIEPCTL_EPENA) == 0U) && (epnum != 0U))
1111:Drivers/STM32F7xx_HAL_Driver/Src/stm32f7xx_ll_usb.c ****     {
1112:Drivers/STM32F7xx_HAL_Driver/Src/stm32f7xx_ll_usb.c ****       USBx_INEP(epnum)->DIEPCTL &= ~(USB_OTG_DIEPCTL_EPDIS);
1113:Drivers/STM32F7xx_HAL_Driver/Src/stm32f7xx_ll_usb.c ****     }
1114:Drivers/STM32F7xx_HAL_Driver/Src/stm32f7xx_ll_usb.c ****     USBx_INEP(epnum)->DIEPCTL |= USB_OTG_DIEPCTL_STALL;
ARM GAS  /var/folders/8d/8djywmp92nx9cg9c5pcw0px00000gn/T//ccLp59Ij.s 			page 21


1115:Drivers/STM32F7xx_HAL_Driver/Src/stm32f7xx_ll_usb.c ****   }
1116:Drivers/STM32F7xx_HAL_Driver/Src/stm32f7xx_ll_usb.c ****   else
1117:Drivers/STM32F7xx_HAL_Driver/Src/stm32f7xx_ll_usb.c ****   {
1118:Drivers/STM32F7xx_HAL_Driver/Src/stm32f7xx_ll_usb.c ****     if (((USBx_OUTEP(epnum)->DOEPCTL & USB_OTG_DOEPCTL_EPENA) == 0U) && (epnum != 0U))
1119:Drivers/STM32F7xx_HAL_Driver/Src/stm32f7xx_ll_usb.c ****     {
1120:Drivers/STM32F7xx_HAL_Driver/Src/stm32f7xx_ll_usb.c ****       USBx_OUTEP(epnum)->DOEPCTL &= ~(USB_OTG_DOEPCTL_EPDIS);
1121:Drivers/STM32F7xx_HAL_Driver/Src/stm32f7xx_ll_usb.c ****     }
1122:Drivers/STM32F7xx_HAL_Driver/Src/stm32f7xx_ll_usb.c ****     USBx_OUTEP(epnum)->DOEPCTL |= USB_OTG_DOEPCTL_STALL;
1123:Drivers/STM32F7xx_HAL_Driver/Src/stm32f7xx_ll_usb.c ****   }
1124:Drivers/STM32F7xx_HAL_Driver/Src/stm32f7xx_ll_usb.c **** 
1125:Drivers/STM32F7xx_HAL_Driver/Src/stm32f7xx_ll_usb.c ****   return HAL_OK;
1126:Drivers/STM32F7xx_HAL_Driver/Src/stm32f7xx_ll_usb.c **** }
1127:Drivers/STM32F7xx_HAL_Driver/Src/stm32f7xx_ll_usb.c **** 
1128:Drivers/STM32F7xx_HAL_Driver/Src/stm32f7xx_ll_usb.c **** /**
1129:Drivers/STM32F7xx_HAL_Driver/Src/stm32f7xx_ll_usb.c ****   * @brief  USB_EPClearStall : Clear a stall condition over an EP
1130:Drivers/STM32F7xx_HAL_Driver/Src/stm32f7xx_ll_usb.c ****   * @param  USBx  Selected device
1131:Drivers/STM32F7xx_HAL_Driver/Src/stm32f7xx_ll_usb.c ****   * @param  ep pointer to endpoint structure
1132:Drivers/STM32F7xx_HAL_Driver/Src/stm32f7xx_ll_usb.c ****   * @retval HAL status
1133:Drivers/STM32F7xx_HAL_Driver/Src/stm32f7xx_ll_usb.c ****   */
1134:Drivers/STM32F7xx_HAL_Driver/Src/stm32f7xx_ll_usb.c **** HAL_StatusTypeDef USB_EPClearStall(const USB_OTG_GlobalTypeDef *USBx, const USB_OTG_EPTypeDef *ep)
1135:Drivers/STM32F7xx_HAL_Driver/Src/stm32f7xx_ll_usb.c **** {
1136:Drivers/STM32F7xx_HAL_Driver/Src/stm32f7xx_ll_usb.c ****   uint32_t USBx_BASE = (uint32_t)USBx;
1137:Drivers/STM32F7xx_HAL_Driver/Src/stm32f7xx_ll_usb.c ****   uint32_t epnum = (uint32_t)ep->num;
1138:Drivers/STM32F7xx_HAL_Driver/Src/stm32f7xx_ll_usb.c **** 
1139:Drivers/STM32F7xx_HAL_Driver/Src/stm32f7xx_ll_usb.c ****   if (ep->is_in == 1U)
1140:Drivers/STM32F7xx_HAL_Driver/Src/stm32f7xx_ll_usb.c ****   {
1141:Drivers/STM32F7xx_HAL_Driver/Src/stm32f7xx_ll_usb.c ****     USBx_INEP(epnum)->DIEPCTL &= ~USB_OTG_DIEPCTL_STALL;
1142:Drivers/STM32F7xx_HAL_Driver/Src/stm32f7xx_ll_usb.c ****     if ((ep->type == EP_TYPE_INTR) || (ep->type == EP_TYPE_BULK))
1143:Drivers/STM32F7xx_HAL_Driver/Src/stm32f7xx_ll_usb.c ****     {
1144:Drivers/STM32F7xx_HAL_Driver/Src/stm32f7xx_ll_usb.c ****       USBx_INEP(epnum)->DIEPCTL |= USB_OTG_DIEPCTL_SD0PID_SEVNFRM; /* DATA0 */
1145:Drivers/STM32F7xx_HAL_Driver/Src/stm32f7xx_ll_usb.c ****     }
1146:Drivers/STM32F7xx_HAL_Driver/Src/stm32f7xx_ll_usb.c ****   }
1147:Drivers/STM32F7xx_HAL_Driver/Src/stm32f7xx_ll_usb.c ****   else
1148:Drivers/STM32F7xx_HAL_Driver/Src/stm32f7xx_ll_usb.c ****   {
1149:Drivers/STM32F7xx_HAL_Driver/Src/stm32f7xx_ll_usb.c ****     USBx_OUTEP(epnum)->DOEPCTL &= ~USB_OTG_DOEPCTL_STALL;
1150:Drivers/STM32F7xx_HAL_Driver/Src/stm32f7xx_ll_usb.c ****     if ((ep->type == EP_TYPE_INTR) || (ep->type == EP_TYPE_BULK))
1151:Drivers/STM32F7xx_HAL_Driver/Src/stm32f7xx_ll_usb.c ****     {
1152:Drivers/STM32F7xx_HAL_Driver/Src/stm32f7xx_ll_usb.c ****       USBx_OUTEP(epnum)->DOEPCTL |= USB_OTG_DOEPCTL_SD0PID_SEVNFRM; /* DATA0 */
1153:Drivers/STM32F7xx_HAL_Driver/Src/stm32f7xx_ll_usb.c ****     }
1154:Drivers/STM32F7xx_HAL_Driver/Src/stm32f7xx_ll_usb.c ****   }
1155:Drivers/STM32F7xx_HAL_Driver/Src/stm32f7xx_ll_usb.c ****   return HAL_OK;
1156:Drivers/STM32F7xx_HAL_Driver/Src/stm32f7xx_ll_usb.c **** }
1157:Drivers/STM32F7xx_HAL_Driver/Src/stm32f7xx_ll_usb.c **** 
1158:Drivers/STM32F7xx_HAL_Driver/Src/stm32f7xx_ll_usb.c **** /**
1159:Drivers/STM32F7xx_HAL_Driver/Src/stm32f7xx_ll_usb.c ****   * @brief  USB_StopDevice : Stop the usb device mode
1160:Drivers/STM32F7xx_HAL_Driver/Src/stm32f7xx_ll_usb.c ****   * @param  USBx  Selected device
1161:Drivers/STM32F7xx_HAL_Driver/Src/stm32f7xx_ll_usb.c ****   * @retval HAL status
1162:Drivers/STM32F7xx_HAL_Driver/Src/stm32f7xx_ll_usb.c ****   */
1163:Drivers/STM32F7xx_HAL_Driver/Src/stm32f7xx_ll_usb.c **** HAL_StatusTypeDef USB_StopDevice(USB_OTG_GlobalTypeDef *USBx)
1164:Drivers/STM32F7xx_HAL_Driver/Src/stm32f7xx_ll_usb.c **** {
1165:Drivers/STM32F7xx_HAL_Driver/Src/stm32f7xx_ll_usb.c ****   HAL_StatusTypeDef ret;
1166:Drivers/STM32F7xx_HAL_Driver/Src/stm32f7xx_ll_usb.c ****   uint32_t USBx_BASE = (uint32_t)USBx;
1167:Drivers/STM32F7xx_HAL_Driver/Src/stm32f7xx_ll_usb.c ****   uint32_t i;
1168:Drivers/STM32F7xx_HAL_Driver/Src/stm32f7xx_ll_usb.c **** 
1169:Drivers/STM32F7xx_HAL_Driver/Src/stm32f7xx_ll_usb.c ****   /* Clear Pending interrupt */
1170:Drivers/STM32F7xx_HAL_Driver/Src/stm32f7xx_ll_usb.c ****   for (i = 0U; i < 15U; i++)
1171:Drivers/STM32F7xx_HAL_Driver/Src/stm32f7xx_ll_usb.c ****   {
ARM GAS  /var/folders/8d/8djywmp92nx9cg9c5pcw0px00000gn/T//ccLp59Ij.s 			page 22


1172:Drivers/STM32F7xx_HAL_Driver/Src/stm32f7xx_ll_usb.c ****     USBx_INEP(i)->DIEPINT = 0xFB7FU;
1173:Drivers/STM32F7xx_HAL_Driver/Src/stm32f7xx_ll_usb.c ****     USBx_OUTEP(i)->DOEPINT = 0xFB7FU;
1174:Drivers/STM32F7xx_HAL_Driver/Src/stm32f7xx_ll_usb.c ****   }
1175:Drivers/STM32F7xx_HAL_Driver/Src/stm32f7xx_ll_usb.c **** 
1176:Drivers/STM32F7xx_HAL_Driver/Src/stm32f7xx_ll_usb.c ****   /* Clear interrupt masks */
1177:Drivers/STM32F7xx_HAL_Driver/Src/stm32f7xx_ll_usb.c ****   USBx_DEVICE->DIEPMSK  = 0U;
1178:Drivers/STM32F7xx_HAL_Driver/Src/stm32f7xx_ll_usb.c ****   USBx_DEVICE->DOEPMSK  = 0U;
1179:Drivers/STM32F7xx_HAL_Driver/Src/stm32f7xx_ll_usb.c ****   USBx_DEVICE->DAINTMSK = 0U;
1180:Drivers/STM32F7xx_HAL_Driver/Src/stm32f7xx_ll_usb.c **** 
1181:Drivers/STM32F7xx_HAL_Driver/Src/stm32f7xx_ll_usb.c ****   /* Flush the FIFO */
1182:Drivers/STM32F7xx_HAL_Driver/Src/stm32f7xx_ll_usb.c ****   ret = USB_FlushRxFifo(USBx);
1183:Drivers/STM32F7xx_HAL_Driver/Src/stm32f7xx_ll_usb.c ****   if (ret != HAL_OK)
1184:Drivers/STM32F7xx_HAL_Driver/Src/stm32f7xx_ll_usb.c ****   {
1185:Drivers/STM32F7xx_HAL_Driver/Src/stm32f7xx_ll_usb.c ****     return ret;
1186:Drivers/STM32F7xx_HAL_Driver/Src/stm32f7xx_ll_usb.c ****   }
1187:Drivers/STM32F7xx_HAL_Driver/Src/stm32f7xx_ll_usb.c **** 
1188:Drivers/STM32F7xx_HAL_Driver/Src/stm32f7xx_ll_usb.c ****   ret = USB_FlushTxFifo(USBx,  0x10U);
1189:Drivers/STM32F7xx_HAL_Driver/Src/stm32f7xx_ll_usb.c ****   if (ret != HAL_OK)
1190:Drivers/STM32F7xx_HAL_Driver/Src/stm32f7xx_ll_usb.c ****   {
1191:Drivers/STM32F7xx_HAL_Driver/Src/stm32f7xx_ll_usb.c ****     return ret;
1192:Drivers/STM32F7xx_HAL_Driver/Src/stm32f7xx_ll_usb.c ****   }
1193:Drivers/STM32F7xx_HAL_Driver/Src/stm32f7xx_ll_usb.c **** 
1194:Drivers/STM32F7xx_HAL_Driver/Src/stm32f7xx_ll_usb.c ****   return ret;
1195:Drivers/STM32F7xx_HAL_Driver/Src/stm32f7xx_ll_usb.c **** }
1196:Drivers/STM32F7xx_HAL_Driver/Src/stm32f7xx_ll_usb.c **** 
1197:Drivers/STM32F7xx_HAL_Driver/Src/stm32f7xx_ll_usb.c **** /**
1198:Drivers/STM32F7xx_HAL_Driver/Src/stm32f7xx_ll_usb.c ****   * @brief  USB_SetDevAddress : Stop the usb device mode
1199:Drivers/STM32F7xx_HAL_Driver/Src/stm32f7xx_ll_usb.c ****   * @param  USBx  Selected device
1200:Drivers/STM32F7xx_HAL_Driver/Src/stm32f7xx_ll_usb.c ****   * @param  address  new device address to be assigned
1201:Drivers/STM32F7xx_HAL_Driver/Src/stm32f7xx_ll_usb.c ****   *          This parameter can be a value from 0 to 255
1202:Drivers/STM32F7xx_HAL_Driver/Src/stm32f7xx_ll_usb.c ****   * @retval HAL status
1203:Drivers/STM32F7xx_HAL_Driver/Src/stm32f7xx_ll_usb.c ****   */
1204:Drivers/STM32F7xx_HAL_Driver/Src/stm32f7xx_ll_usb.c **** HAL_StatusTypeDef USB_SetDevAddress(const USB_OTG_GlobalTypeDef *USBx, uint8_t address)
1205:Drivers/STM32F7xx_HAL_Driver/Src/stm32f7xx_ll_usb.c **** {
1206:Drivers/STM32F7xx_HAL_Driver/Src/stm32f7xx_ll_usb.c ****   uint32_t USBx_BASE = (uint32_t)USBx;
1207:Drivers/STM32F7xx_HAL_Driver/Src/stm32f7xx_ll_usb.c **** 
1208:Drivers/STM32F7xx_HAL_Driver/Src/stm32f7xx_ll_usb.c ****   USBx_DEVICE->DCFG &= ~(USB_OTG_DCFG_DAD);
1209:Drivers/STM32F7xx_HAL_Driver/Src/stm32f7xx_ll_usb.c ****   USBx_DEVICE->DCFG |= ((uint32_t)address << 4) & USB_OTG_DCFG_DAD;
1210:Drivers/STM32F7xx_HAL_Driver/Src/stm32f7xx_ll_usb.c **** 
1211:Drivers/STM32F7xx_HAL_Driver/Src/stm32f7xx_ll_usb.c ****   return HAL_OK;
1212:Drivers/STM32F7xx_HAL_Driver/Src/stm32f7xx_ll_usb.c **** }
1213:Drivers/STM32F7xx_HAL_Driver/Src/stm32f7xx_ll_usb.c **** 
1214:Drivers/STM32F7xx_HAL_Driver/Src/stm32f7xx_ll_usb.c **** /**
1215:Drivers/STM32F7xx_HAL_Driver/Src/stm32f7xx_ll_usb.c ****   * @brief  USB_DevConnect : Connect the USB device by enabling Rpu
1216:Drivers/STM32F7xx_HAL_Driver/Src/stm32f7xx_ll_usb.c ****   * @param  USBx  Selected device
1217:Drivers/STM32F7xx_HAL_Driver/Src/stm32f7xx_ll_usb.c ****   * @retval HAL status
1218:Drivers/STM32F7xx_HAL_Driver/Src/stm32f7xx_ll_usb.c ****   */
1219:Drivers/STM32F7xx_HAL_Driver/Src/stm32f7xx_ll_usb.c **** HAL_StatusTypeDef USB_DevConnect(const USB_OTG_GlobalTypeDef *USBx)
1220:Drivers/STM32F7xx_HAL_Driver/Src/stm32f7xx_ll_usb.c **** {
1221:Drivers/STM32F7xx_HAL_Driver/Src/stm32f7xx_ll_usb.c ****   uint32_t USBx_BASE = (uint32_t)USBx;
1222:Drivers/STM32F7xx_HAL_Driver/Src/stm32f7xx_ll_usb.c **** 
1223:Drivers/STM32F7xx_HAL_Driver/Src/stm32f7xx_ll_usb.c ****   /* In case phy is stopped, ensure to ungate and restore the phy CLK */
1224:Drivers/STM32F7xx_HAL_Driver/Src/stm32f7xx_ll_usb.c ****   USBx_PCGCCTL &= ~(USB_OTG_PCGCCTL_STOPCLK | USB_OTG_PCGCCTL_GATECLK);
1225:Drivers/STM32F7xx_HAL_Driver/Src/stm32f7xx_ll_usb.c **** 
1226:Drivers/STM32F7xx_HAL_Driver/Src/stm32f7xx_ll_usb.c ****   USBx_DEVICE->DCTL &= ~USB_OTG_DCTL_SDIS;
1227:Drivers/STM32F7xx_HAL_Driver/Src/stm32f7xx_ll_usb.c **** 
1228:Drivers/STM32F7xx_HAL_Driver/Src/stm32f7xx_ll_usb.c ****   return HAL_OK;
ARM GAS  /var/folders/8d/8djywmp92nx9cg9c5pcw0px00000gn/T//ccLp59Ij.s 			page 23


1229:Drivers/STM32F7xx_HAL_Driver/Src/stm32f7xx_ll_usb.c **** }
1230:Drivers/STM32F7xx_HAL_Driver/Src/stm32f7xx_ll_usb.c **** 
1231:Drivers/STM32F7xx_HAL_Driver/Src/stm32f7xx_ll_usb.c **** /**
1232:Drivers/STM32F7xx_HAL_Driver/Src/stm32f7xx_ll_usb.c ****   * @brief  USB_DevDisconnect : Disconnect the USB device by disabling Rpu
1233:Drivers/STM32F7xx_HAL_Driver/Src/stm32f7xx_ll_usb.c ****   * @param  USBx  Selected device
1234:Drivers/STM32F7xx_HAL_Driver/Src/stm32f7xx_ll_usb.c ****   * @retval HAL status
1235:Drivers/STM32F7xx_HAL_Driver/Src/stm32f7xx_ll_usb.c ****   */
1236:Drivers/STM32F7xx_HAL_Driver/Src/stm32f7xx_ll_usb.c **** HAL_StatusTypeDef USB_DevDisconnect(const USB_OTG_GlobalTypeDef *USBx)
1237:Drivers/STM32F7xx_HAL_Driver/Src/stm32f7xx_ll_usb.c **** {
1238:Drivers/STM32F7xx_HAL_Driver/Src/stm32f7xx_ll_usb.c ****   uint32_t USBx_BASE = (uint32_t)USBx;
1239:Drivers/STM32F7xx_HAL_Driver/Src/stm32f7xx_ll_usb.c **** 
1240:Drivers/STM32F7xx_HAL_Driver/Src/stm32f7xx_ll_usb.c ****   /* In case phy is stopped, ensure to ungate and restore the phy CLK */
1241:Drivers/STM32F7xx_HAL_Driver/Src/stm32f7xx_ll_usb.c ****   USBx_PCGCCTL &= ~(USB_OTG_PCGCCTL_STOPCLK | USB_OTG_PCGCCTL_GATECLK);
1242:Drivers/STM32F7xx_HAL_Driver/Src/stm32f7xx_ll_usb.c **** 
1243:Drivers/STM32F7xx_HAL_Driver/Src/stm32f7xx_ll_usb.c ****   USBx_DEVICE->DCTL |= USB_OTG_DCTL_SDIS;
1244:Drivers/STM32F7xx_HAL_Driver/Src/stm32f7xx_ll_usb.c **** 
1245:Drivers/STM32F7xx_HAL_Driver/Src/stm32f7xx_ll_usb.c ****   return HAL_OK;
1246:Drivers/STM32F7xx_HAL_Driver/Src/stm32f7xx_ll_usb.c **** }
1247:Drivers/STM32F7xx_HAL_Driver/Src/stm32f7xx_ll_usb.c **** 
1248:Drivers/STM32F7xx_HAL_Driver/Src/stm32f7xx_ll_usb.c **** /**
1249:Drivers/STM32F7xx_HAL_Driver/Src/stm32f7xx_ll_usb.c ****   * @brief  USB_ReadInterrupts: return the global USB interrupt status
1250:Drivers/STM32F7xx_HAL_Driver/Src/stm32f7xx_ll_usb.c ****   * @param  USBx  Selected device
1251:Drivers/STM32F7xx_HAL_Driver/Src/stm32f7xx_ll_usb.c ****   * @retval USB Global Interrupt status
1252:Drivers/STM32F7xx_HAL_Driver/Src/stm32f7xx_ll_usb.c ****   */
1253:Drivers/STM32F7xx_HAL_Driver/Src/stm32f7xx_ll_usb.c **** uint32_t USB_ReadInterrupts(USB_OTG_GlobalTypeDef const *USBx)
1254:Drivers/STM32F7xx_HAL_Driver/Src/stm32f7xx_ll_usb.c **** {
1255:Drivers/STM32F7xx_HAL_Driver/Src/stm32f7xx_ll_usb.c ****   uint32_t tmpreg;
1256:Drivers/STM32F7xx_HAL_Driver/Src/stm32f7xx_ll_usb.c **** 
1257:Drivers/STM32F7xx_HAL_Driver/Src/stm32f7xx_ll_usb.c ****   tmpreg = USBx->GINTSTS;
1258:Drivers/STM32F7xx_HAL_Driver/Src/stm32f7xx_ll_usb.c ****   tmpreg &= USBx->GINTMSK;
1259:Drivers/STM32F7xx_HAL_Driver/Src/stm32f7xx_ll_usb.c **** 
1260:Drivers/STM32F7xx_HAL_Driver/Src/stm32f7xx_ll_usb.c ****   return tmpreg;
1261:Drivers/STM32F7xx_HAL_Driver/Src/stm32f7xx_ll_usb.c **** }
1262:Drivers/STM32F7xx_HAL_Driver/Src/stm32f7xx_ll_usb.c **** 
1263:Drivers/STM32F7xx_HAL_Driver/Src/stm32f7xx_ll_usb.c **** /**
1264:Drivers/STM32F7xx_HAL_Driver/Src/stm32f7xx_ll_usb.c ****   * @brief  USB_ReadChInterrupts: return USB channel interrupt status
1265:Drivers/STM32F7xx_HAL_Driver/Src/stm32f7xx_ll_usb.c ****   * @param  USBx  Selected device
1266:Drivers/STM32F7xx_HAL_Driver/Src/stm32f7xx_ll_usb.c ****   * @param  chnum Channel number
1267:Drivers/STM32F7xx_HAL_Driver/Src/stm32f7xx_ll_usb.c ****   * @retval USB Channel Interrupt status
1268:Drivers/STM32F7xx_HAL_Driver/Src/stm32f7xx_ll_usb.c ****   */
1269:Drivers/STM32F7xx_HAL_Driver/Src/stm32f7xx_ll_usb.c **** uint32_t USB_ReadChInterrupts(const USB_OTG_GlobalTypeDef *USBx, uint8_t chnum)
1270:Drivers/STM32F7xx_HAL_Driver/Src/stm32f7xx_ll_usb.c **** {
1271:Drivers/STM32F7xx_HAL_Driver/Src/stm32f7xx_ll_usb.c ****   uint32_t USBx_BASE = (uint32_t)USBx;
1272:Drivers/STM32F7xx_HAL_Driver/Src/stm32f7xx_ll_usb.c ****   uint32_t tmpreg;
1273:Drivers/STM32F7xx_HAL_Driver/Src/stm32f7xx_ll_usb.c **** 
1274:Drivers/STM32F7xx_HAL_Driver/Src/stm32f7xx_ll_usb.c ****   tmpreg = USBx_HC(chnum)->HCINT;
1275:Drivers/STM32F7xx_HAL_Driver/Src/stm32f7xx_ll_usb.c ****   tmpreg &= USBx_HC(chnum)->HCINTMSK;
1276:Drivers/STM32F7xx_HAL_Driver/Src/stm32f7xx_ll_usb.c **** 
1277:Drivers/STM32F7xx_HAL_Driver/Src/stm32f7xx_ll_usb.c ****   return tmpreg;
1278:Drivers/STM32F7xx_HAL_Driver/Src/stm32f7xx_ll_usb.c **** }
1279:Drivers/STM32F7xx_HAL_Driver/Src/stm32f7xx_ll_usb.c **** 
1280:Drivers/STM32F7xx_HAL_Driver/Src/stm32f7xx_ll_usb.c **** /**
1281:Drivers/STM32F7xx_HAL_Driver/Src/stm32f7xx_ll_usb.c ****   * @brief  USB_ReadDevAllOutEpInterrupt: return the USB device OUT endpoints interrupt status
1282:Drivers/STM32F7xx_HAL_Driver/Src/stm32f7xx_ll_usb.c ****   * @param  USBx  Selected device
1283:Drivers/STM32F7xx_HAL_Driver/Src/stm32f7xx_ll_usb.c ****   * @retval USB Device OUT EP interrupt status
1284:Drivers/STM32F7xx_HAL_Driver/Src/stm32f7xx_ll_usb.c ****   */
1285:Drivers/STM32F7xx_HAL_Driver/Src/stm32f7xx_ll_usb.c **** uint32_t USB_ReadDevAllOutEpInterrupt(const USB_OTG_GlobalTypeDef *USBx)
ARM GAS  /var/folders/8d/8djywmp92nx9cg9c5pcw0px00000gn/T//ccLp59Ij.s 			page 24


1286:Drivers/STM32F7xx_HAL_Driver/Src/stm32f7xx_ll_usb.c **** {
1287:Drivers/STM32F7xx_HAL_Driver/Src/stm32f7xx_ll_usb.c ****   uint32_t USBx_BASE = (uint32_t)USBx;
1288:Drivers/STM32F7xx_HAL_Driver/Src/stm32f7xx_ll_usb.c ****   uint32_t tmpreg;
1289:Drivers/STM32F7xx_HAL_Driver/Src/stm32f7xx_ll_usb.c **** 
1290:Drivers/STM32F7xx_HAL_Driver/Src/stm32f7xx_ll_usb.c ****   tmpreg  = USBx_DEVICE->DAINT;
1291:Drivers/STM32F7xx_HAL_Driver/Src/stm32f7xx_ll_usb.c ****   tmpreg &= USBx_DEVICE->DAINTMSK;
1292:Drivers/STM32F7xx_HAL_Driver/Src/stm32f7xx_ll_usb.c **** 
1293:Drivers/STM32F7xx_HAL_Driver/Src/stm32f7xx_ll_usb.c ****   return ((tmpreg & 0xffff0000U) >> 16);
1294:Drivers/STM32F7xx_HAL_Driver/Src/stm32f7xx_ll_usb.c **** }
1295:Drivers/STM32F7xx_HAL_Driver/Src/stm32f7xx_ll_usb.c **** 
1296:Drivers/STM32F7xx_HAL_Driver/Src/stm32f7xx_ll_usb.c **** /**
1297:Drivers/STM32F7xx_HAL_Driver/Src/stm32f7xx_ll_usb.c ****   * @brief  USB_ReadDevAllInEpInterrupt: return the USB device IN endpoints interrupt status
1298:Drivers/STM32F7xx_HAL_Driver/Src/stm32f7xx_ll_usb.c ****   * @param  USBx  Selected device
1299:Drivers/STM32F7xx_HAL_Driver/Src/stm32f7xx_ll_usb.c ****   * @retval USB Device IN EP interrupt status
1300:Drivers/STM32F7xx_HAL_Driver/Src/stm32f7xx_ll_usb.c ****   */
1301:Drivers/STM32F7xx_HAL_Driver/Src/stm32f7xx_ll_usb.c **** uint32_t USB_ReadDevAllInEpInterrupt(const USB_OTG_GlobalTypeDef *USBx)
1302:Drivers/STM32F7xx_HAL_Driver/Src/stm32f7xx_ll_usb.c **** {
1303:Drivers/STM32F7xx_HAL_Driver/Src/stm32f7xx_ll_usb.c ****   uint32_t USBx_BASE = (uint32_t)USBx;
1304:Drivers/STM32F7xx_HAL_Driver/Src/stm32f7xx_ll_usb.c ****   uint32_t tmpreg;
1305:Drivers/STM32F7xx_HAL_Driver/Src/stm32f7xx_ll_usb.c **** 
1306:Drivers/STM32F7xx_HAL_Driver/Src/stm32f7xx_ll_usb.c ****   tmpreg  = USBx_DEVICE->DAINT;
1307:Drivers/STM32F7xx_HAL_Driver/Src/stm32f7xx_ll_usb.c ****   tmpreg &= USBx_DEVICE->DAINTMSK;
1308:Drivers/STM32F7xx_HAL_Driver/Src/stm32f7xx_ll_usb.c **** 
1309:Drivers/STM32F7xx_HAL_Driver/Src/stm32f7xx_ll_usb.c ****   return ((tmpreg & 0xFFFFU));
1310:Drivers/STM32F7xx_HAL_Driver/Src/stm32f7xx_ll_usb.c **** }
1311:Drivers/STM32F7xx_HAL_Driver/Src/stm32f7xx_ll_usb.c **** 
1312:Drivers/STM32F7xx_HAL_Driver/Src/stm32f7xx_ll_usb.c **** /**
1313:Drivers/STM32F7xx_HAL_Driver/Src/stm32f7xx_ll_usb.c ****   * @brief  Returns Device OUT EP Interrupt register
1314:Drivers/STM32F7xx_HAL_Driver/Src/stm32f7xx_ll_usb.c ****   * @param  USBx  Selected device
1315:Drivers/STM32F7xx_HAL_Driver/Src/stm32f7xx_ll_usb.c ****   * @param  epnum  endpoint number
1316:Drivers/STM32F7xx_HAL_Driver/Src/stm32f7xx_ll_usb.c ****   *          This parameter can be a value from 0 to 15
1317:Drivers/STM32F7xx_HAL_Driver/Src/stm32f7xx_ll_usb.c ****   * @retval Device OUT EP Interrupt register
1318:Drivers/STM32F7xx_HAL_Driver/Src/stm32f7xx_ll_usb.c ****   */
1319:Drivers/STM32F7xx_HAL_Driver/Src/stm32f7xx_ll_usb.c **** uint32_t USB_ReadDevOutEPInterrupt(const USB_OTG_GlobalTypeDef *USBx, uint8_t epnum)
1320:Drivers/STM32F7xx_HAL_Driver/Src/stm32f7xx_ll_usb.c **** {
1321:Drivers/STM32F7xx_HAL_Driver/Src/stm32f7xx_ll_usb.c ****   uint32_t USBx_BASE = (uint32_t)USBx;
1322:Drivers/STM32F7xx_HAL_Driver/Src/stm32f7xx_ll_usb.c ****   uint32_t tmpreg;
1323:Drivers/STM32F7xx_HAL_Driver/Src/stm32f7xx_ll_usb.c **** 
1324:Drivers/STM32F7xx_HAL_Driver/Src/stm32f7xx_ll_usb.c ****   tmpreg  = USBx_OUTEP((uint32_t)epnum)->DOEPINT;
1325:Drivers/STM32F7xx_HAL_Driver/Src/stm32f7xx_ll_usb.c ****   tmpreg &= USBx_DEVICE->DOEPMSK;
1326:Drivers/STM32F7xx_HAL_Driver/Src/stm32f7xx_ll_usb.c **** 
1327:Drivers/STM32F7xx_HAL_Driver/Src/stm32f7xx_ll_usb.c ****   return tmpreg;
1328:Drivers/STM32F7xx_HAL_Driver/Src/stm32f7xx_ll_usb.c **** }
1329:Drivers/STM32F7xx_HAL_Driver/Src/stm32f7xx_ll_usb.c **** 
1330:Drivers/STM32F7xx_HAL_Driver/Src/stm32f7xx_ll_usb.c **** /**
1331:Drivers/STM32F7xx_HAL_Driver/Src/stm32f7xx_ll_usb.c ****   * @brief  Returns Device IN EP Interrupt register
1332:Drivers/STM32F7xx_HAL_Driver/Src/stm32f7xx_ll_usb.c ****   * @param  USBx  Selected device
1333:Drivers/STM32F7xx_HAL_Driver/Src/stm32f7xx_ll_usb.c ****   * @param  epnum  endpoint number
1334:Drivers/STM32F7xx_HAL_Driver/Src/stm32f7xx_ll_usb.c ****   *          This parameter can be a value from 0 to 15
1335:Drivers/STM32F7xx_HAL_Driver/Src/stm32f7xx_ll_usb.c ****   * @retval Device IN EP Interrupt register
1336:Drivers/STM32F7xx_HAL_Driver/Src/stm32f7xx_ll_usb.c ****   */
1337:Drivers/STM32F7xx_HAL_Driver/Src/stm32f7xx_ll_usb.c **** uint32_t USB_ReadDevInEPInterrupt(const USB_OTG_GlobalTypeDef *USBx, uint8_t epnum)
1338:Drivers/STM32F7xx_HAL_Driver/Src/stm32f7xx_ll_usb.c **** {
1339:Drivers/STM32F7xx_HAL_Driver/Src/stm32f7xx_ll_usb.c ****   uint32_t USBx_BASE = (uint32_t)USBx;
1340:Drivers/STM32F7xx_HAL_Driver/Src/stm32f7xx_ll_usb.c ****   uint32_t tmpreg;
1341:Drivers/STM32F7xx_HAL_Driver/Src/stm32f7xx_ll_usb.c ****   uint32_t msk;
1342:Drivers/STM32F7xx_HAL_Driver/Src/stm32f7xx_ll_usb.c ****   uint32_t emp;
ARM GAS  /var/folders/8d/8djywmp92nx9cg9c5pcw0px00000gn/T//ccLp59Ij.s 			page 25


1343:Drivers/STM32F7xx_HAL_Driver/Src/stm32f7xx_ll_usb.c **** 
1344:Drivers/STM32F7xx_HAL_Driver/Src/stm32f7xx_ll_usb.c ****   msk = USBx_DEVICE->DIEPMSK;
1345:Drivers/STM32F7xx_HAL_Driver/Src/stm32f7xx_ll_usb.c ****   emp = USBx_DEVICE->DIEPEMPMSK;
1346:Drivers/STM32F7xx_HAL_Driver/Src/stm32f7xx_ll_usb.c ****   msk |= ((emp >> (epnum & EP_ADDR_MSK)) & 0x1U) << 7;
1347:Drivers/STM32F7xx_HAL_Driver/Src/stm32f7xx_ll_usb.c ****   tmpreg = USBx_INEP((uint32_t)epnum)->DIEPINT & msk;
1348:Drivers/STM32F7xx_HAL_Driver/Src/stm32f7xx_ll_usb.c **** 
1349:Drivers/STM32F7xx_HAL_Driver/Src/stm32f7xx_ll_usb.c ****   return tmpreg;
1350:Drivers/STM32F7xx_HAL_Driver/Src/stm32f7xx_ll_usb.c **** }
1351:Drivers/STM32F7xx_HAL_Driver/Src/stm32f7xx_ll_usb.c **** 
1352:Drivers/STM32F7xx_HAL_Driver/Src/stm32f7xx_ll_usb.c **** /**
1353:Drivers/STM32F7xx_HAL_Driver/Src/stm32f7xx_ll_usb.c ****   * @brief  USB_ClearInterrupts: clear a USB interrupt
1354:Drivers/STM32F7xx_HAL_Driver/Src/stm32f7xx_ll_usb.c ****   * @param  USBx  Selected device
1355:Drivers/STM32F7xx_HAL_Driver/Src/stm32f7xx_ll_usb.c ****   * @param  interrupt  flag
1356:Drivers/STM32F7xx_HAL_Driver/Src/stm32f7xx_ll_usb.c ****   * @retval None
1357:Drivers/STM32F7xx_HAL_Driver/Src/stm32f7xx_ll_usb.c ****   */
1358:Drivers/STM32F7xx_HAL_Driver/Src/stm32f7xx_ll_usb.c **** void  USB_ClearInterrupts(USB_OTG_GlobalTypeDef *USBx, uint32_t interrupt)
1359:Drivers/STM32F7xx_HAL_Driver/Src/stm32f7xx_ll_usb.c **** {
1360:Drivers/STM32F7xx_HAL_Driver/Src/stm32f7xx_ll_usb.c ****   USBx->GINTSTS &= interrupt;
1361:Drivers/STM32F7xx_HAL_Driver/Src/stm32f7xx_ll_usb.c **** }
1362:Drivers/STM32F7xx_HAL_Driver/Src/stm32f7xx_ll_usb.c **** 
1363:Drivers/STM32F7xx_HAL_Driver/Src/stm32f7xx_ll_usb.c **** /**
1364:Drivers/STM32F7xx_HAL_Driver/Src/stm32f7xx_ll_usb.c ****   * @brief  Returns USB core mode
1365:Drivers/STM32F7xx_HAL_Driver/Src/stm32f7xx_ll_usb.c ****   * @param  USBx  Selected device
1366:Drivers/STM32F7xx_HAL_Driver/Src/stm32f7xx_ll_usb.c ****   * @retval return core mode : Host or Device
1367:Drivers/STM32F7xx_HAL_Driver/Src/stm32f7xx_ll_usb.c ****   *          This parameter can be one of these values:
1368:Drivers/STM32F7xx_HAL_Driver/Src/stm32f7xx_ll_usb.c ****   *           0 : Host
1369:Drivers/STM32F7xx_HAL_Driver/Src/stm32f7xx_ll_usb.c ****   *           1 : Device
1370:Drivers/STM32F7xx_HAL_Driver/Src/stm32f7xx_ll_usb.c ****   */
1371:Drivers/STM32F7xx_HAL_Driver/Src/stm32f7xx_ll_usb.c **** uint32_t USB_GetMode(const USB_OTG_GlobalTypeDef *USBx)
1372:Drivers/STM32F7xx_HAL_Driver/Src/stm32f7xx_ll_usb.c **** {
1373:Drivers/STM32F7xx_HAL_Driver/Src/stm32f7xx_ll_usb.c ****   return ((USBx->GINTSTS) & 0x1U);
1374:Drivers/STM32F7xx_HAL_Driver/Src/stm32f7xx_ll_usb.c **** }
1375:Drivers/STM32F7xx_HAL_Driver/Src/stm32f7xx_ll_usb.c **** 
1376:Drivers/STM32F7xx_HAL_Driver/Src/stm32f7xx_ll_usb.c **** /**
1377:Drivers/STM32F7xx_HAL_Driver/Src/stm32f7xx_ll_usb.c ****   * @brief  Activate EP0 for Setup transactions
1378:Drivers/STM32F7xx_HAL_Driver/Src/stm32f7xx_ll_usb.c ****   * @param  USBx  Selected device
1379:Drivers/STM32F7xx_HAL_Driver/Src/stm32f7xx_ll_usb.c ****   * @retval HAL status
1380:Drivers/STM32F7xx_HAL_Driver/Src/stm32f7xx_ll_usb.c ****   */
1381:Drivers/STM32F7xx_HAL_Driver/Src/stm32f7xx_ll_usb.c **** HAL_StatusTypeDef USB_ActivateSetup(const USB_OTG_GlobalTypeDef *USBx)
1382:Drivers/STM32F7xx_HAL_Driver/Src/stm32f7xx_ll_usb.c **** {
1383:Drivers/STM32F7xx_HAL_Driver/Src/stm32f7xx_ll_usb.c ****   uint32_t USBx_BASE = (uint32_t)USBx;
1384:Drivers/STM32F7xx_HAL_Driver/Src/stm32f7xx_ll_usb.c **** 
1385:Drivers/STM32F7xx_HAL_Driver/Src/stm32f7xx_ll_usb.c ****   /* Set the MPS of the IN EP0 to 64 bytes */
1386:Drivers/STM32F7xx_HAL_Driver/Src/stm32f7xx_ll_usb.c ****   USBx_INEP(0U)->DIEPCTL &= ~USB_OTG_DIEPCTL_MPSIZ;
1387:Drivers/STM32F7xx_HAL_Driver/Src/stm32f7xx_ll_usb.c **** 
1388:Drivers/STM32F7xx_HAL_Driver/Src/stm32f7xx_ll_usb.c ****   USBx_DEVICE->DCTL |= USB_OTG_DCTL_CGINAK;
1389:Drivers/STM32F7xx_HAL_Driver/Src/stm32f7xx_ll_usb.c **** 
1390:Drivers/STM32F7xx_HAL_Driver/Src/stm32f7xx_ll_usb.c ****   return HAL_OK;
1391:Drivers/STM32F7xx_HAL_Driver/Src/stm32f7xx_ll_usb.c **** }
1392:Drivers/STM32F7xx_HAL_Driver/Src/stm32f7xx_ll_usb.c **** 
1393:Drivers/STM32F7xx_HAL_Driver/Src/stm32f7xx_ll_usb.c **** /**
1394:Drivers/STM32F7xx_HAL_Driver/Src/stm32f7xx_ll_usb.c ****   * @brief  Prepare the EP0 to start the first control setup
1395:Drivers/STM32F7xx_HAL_Driver/Src/stm32f7xx_ll_usb.c ****   * @param  USBx  Selected device
1396:Drivers/STM32F7xx_HAL_Driver/Src/stm32f7xx_ll_usb.c ****   * @param  dma USB dma enabled or disabled
1397:Drivers/STM32F7xx_HAL_Driver/Src/stm32f7xx_ll_usb.c ****   *          This parameter can be one of these values:
1398:Drivers/STM32F7xx_HAL_Driver/Src/stm32f7xx_ll_usb.c ****   *           0 : DMA feature not used
1399:Drivers/STM32F7xx_HAL_Driver/Src/stm32f7xx_ll_usb.c ****   *           1 : DMA feature used
ARM GAS  /var/folders/8d/8djywmp92nx9cg9c5pcw0px00000gn/T//ccLp59Ij.s 			page 26


1400:Drivers/STM32F7xx_HAL_Driver/Src/stm32f7xx_ll_usb.c ****   * @param  psetup  pointer to setup packet
1401:Drivers/STM32F7xx_HAL_Driver/Src/stm32f7xx_ll_usb.c ****   * @retval HAL status
1402:Drivers/STM32F7xx_HAL_Driver/Src/stm32f7xx_ll_usb.c ****   */
1403:Drivers/STM32F7xx_HAL_Driver/Src/stm32f7xx_ll_usb.c **** HAL_StatusTypeDef USB_EP0_OutStart(const USB_OTG_GlobalTypeDef *USBx, uint8_t dma, const uint8_t *p
1404:Drivers/STM32F7xx_HAL_Driver/Src/stm32f7xx_ll_usb.c **** {
1405:Drivers/STM32F7xx_HAL_Driver/Src/stm32f7xx_ll_usb.c ****   uint32_t USBx_BASE = (uint32_t)USBx;
1406:Drivers/STM32F7xx_HAL_Driver/Src/stm32f7xx_ll_usb.c ****   uint32_t gSNPSiD = *(__IO const uint32_t *)(&USBx->CID + 0x1U);
1407:Drivers/STM32F7xx_HAL_Driver/Src/stm32f7xx_ll_usb.c **** 
1408:Drivers/STM32F7xx_HAL_Driver/Src/stm32f7xx_ll_usb.c ****   if (gSNPSiD > USB_OTG_CORE_ID_300A)
1409:Drivers/STM32F7xx_HAL_Driver/Src/stm32f7xx_ll_usb.c ****   {
1410:Drivers/STM32F7xx_HAL_Driver/Src/stm32f7xx_ll_usb.c ****     if ((USBx_OUTEP(0U)->DOEPCTL & USB_OTG_DOEPCTL_EPENA) == USB_OTG_DOEPCTL_EPENA)
1411:Drivers/STM32F7xx_HAL_Driver/Src/stm32f7xx_ll_usb.c ****     {
1412:Drivers/STM32F7xx_HAL_Driver/Src/stm32f7xx_ll_usb.c ****       return HAL_OK;
1413:Drivers/STM32F7xx_HAL_Driver/Src/stm32f7xx_ll_usb.c ****     }
1414:Drivers/STM32F7xx_HAL_Driver/Src/stm32f7xx_ll_usb.c ****   }
1415:Drivers/STM32F7xx_HAL_Driver/Src/stm32f7xx_ll_usb.c **** 
1416:Drivers/STM32F7xx_HAL_Driver/Src/stm32f7xx_ll_usb.c ****   USBx_OUTEP(0U)->DOEPTSIZ = 0U;
1417:Drivers/STM32F7xx_HAL_Driver/Src/stm32f7xx_ll_usb.c ****   USBx_OUTEP(0U)->DOEPTSIZ |= (USB_OTG_DOEPTSIZ_PKTCNT & (1U << 19));
1418:Drivers/STM32F7xx_HAL_Driver/Src/stm32f7xx_ll_usb.c ****   USBx_OUTEP(0U)->DOEPTSIZ |= (3U * 8U);
1419:Drivers/STM32F7xx_HAL_Driver/Src/stm32f7xx_ll_usb.c ****   USBx_OUTEP(0U)->DOEPTSIZ |=  USB_OTG_DOEPTSIZ_STUPCNT;
1420:Drivers/STM32F7xx_HAL_Driver/Src/stm32f7xx_ll_usb.c **** 
1421:Drivers/STM32F7xx_HAL_Driver/Src/stm32f7xx_ll_usb.c ****   if (dma == 1U)
1422:Drivers/STM32F7xx_HAL_Driver/Src/stm32f7xx_ll_usb.c ****   {
1423:Drivers/STM32F7xx_HAL_Driver/Src/stm32f7xx_ll_usb.c ****     USBx_OUTEP(0U)->DOEPDMA = (uint32_t)psetup;
1424:Drivers/STM32F7xx_HAL_Driver/Src/stm32f7xx_ll_usb.c ****     /* EP enable */
1425:Drivers/STM32F7xx_HAL_Driver/Src/stm32f7xx_ll_usb.c ****     USBx_OUTEP(0U)->DOEPCTL |= USB_OTG_DOEPCTL_EPENA | USB_OTG_DOEPCTL_USBAEP;
1426:Drivers/STM32F7xx_HAL_Driver/Src/stm32f7xx_ll_usb.c ****   }
1427:Drivers/STM32F7xx_HAL_Driver/Src/stm32f7xx_ll_usb.c **** 
1428:Drivers/STM32F7xx_HAL_Driver/Src/stm32f7xx_ll_usb.c ****   return HAL_OK;
1429:Drivers/STM32F7xx_HAL_Driver/Src/stm32f7xx_ll_usb.c **** }
1430:Drivers/STM32F7xx_HAL_Driver/Src/stm32f7xx_ll_usb.c **** 
1431:Drivers/STM32F7xx_HAL_Driver/Src/stm32f7xx_ll_usb.c **** /**
1432:Drivers/STM32F7xx_HAL_Driver/Src/stm32f7xx_ll_usb.c ****   * @brief  Reset the USB Core (needed after USB clock settings change)
1433:Drivers/STM32F7xx_HAL_Driver/Src/stm32f7xx_ll_usb.c ****   * @param  USBx  Selected device
1434:Drivers/STM32F7xx_HAL_Driver/Src/stm32f7xx_ll_usb.c ****   * @retval HAL status
1435:Drivers/STM32F7xx_HAL_Driver/Src/stm32f7xx_ll_usb.c ****   */
1436:Drivers/STM32F7xx_HAL_Driver/Src/stm32f7xx_ll_usb.c **** static HAL_StatusTypeDef USB_CoreReset(USB_OTG_GlobalTypeDef *USBx)
1437:Drivers/STM32F7xx_HAL_Driver/Src/stm32f7xx_ll_usb.c **** {
  28              		.loc 1 1437 1 view -0
  29              		.cfi_startproc
  30              		@ args = 0, pretend = 0, frame = 8
  31              		@ frame_needed = 0, uses_anonymous_args = 0
  32              		@ link register save eliminated.
  33              		.loc 1 1437 1 is_stmt 0 view .LVU1
  34 0000 82B0     		sub	sp, sp, #8
  35              		.cfi_def_cfa_offset 8
1438:Drivers/STM32F7xx_HAL_Driver/Src/stm32f7xx_ll_usb.c ****   __IO uint32_t count = 0U;
  36              		.loc 1 1438 3 is_stmt 1 view .LVU2
  37              		.loc 1 1438 17 is_stmt 0 view .LVU3
  38 0002 0023     		movs	r3, #0
  39 0004 0193     		str	r3, [sp, #4]
  40              	.L3:
1439:Drivers/STM32F7xx_HAL_Driver/Src/stm32f7xx_ll_usb.c **** 
1440:Drivers/STM32F7xx_HAL_Driver/Src/stm32f7xx_ll_usb.c ****   /* Wait for AHB master IDLE state. */
1441:Drivers/STM32F7xx_HAL_Driver/Src/stm32f7xx_ll_usb.c ****   do
  41              		.loc 1 1441 3 is_stmt 1 view .LVU4
1442:Drivers/STM32F7xx_HAL_Driver/Src/stm32f7xx_ll_usb.c ****   {
ARM GAS  /var/folders/8d/8djywmp92nx9cg9c5pcw0px00000gn/T//ccLp59Ij.s 			page 27


1443:Drivers/STM32F7xx_HAL_Driver/Src/stm32f7xx_ll_usb.c ****     count++;
  42              		.loc 1 1443 5 view .LVU5
  43              		.loc 1 1443 10 is_stmt 0 view .LVU6
  44 0006 019B     		ldr	r3, [sp, #4]
  45 0008 0133     		adds	r3, r3, #1
  46 000a 0193     		str	r3, [sp, #4]
1444:Drivers/STM32F7xx_HAL_Driver/Src/stm32f7xx_ll_usb.c **** 
1445:Drivers/STM32F7xx_HAL_Driver/Src/stm32f7xx_ll_usb.c ****     if (count > HAL_USB_TIMEOUT)
  47              		.loc 1 1445 5 is_stmt 1 view .LVU7
  48              		.loc 1 1445 15 is_stmt 0 view .LVU8
  49 000c 019B     		ldr	r3, [sp, #4]
  50              		.loc 1 1445 8 view .LVU9
  51 000e B3F1706F 		cmp	r3, #251658240
  52 0012 15D8     		bhi	.L5
1446:Drivers/STM32F7xx_HAL_Driver/Src/stm32f7xx_ll_usb.c ****     {
1447:Drivers/STM32F7xx_HAL_Driver/Src/stm32f7xx_ll_usb.c ****       return HAL_TIMEOUT;
1448:Drivers/STM32F7xx_HAL_Driver/Src/stm32f7xx_ll_usb.c ****     }
1449:Drivers/STM32F7xx_HAL_Driver/Src/stm32f7xx_ll_usb.c ****   } while ((USBx->GRSTCTL & USB_OTG_GRSTCTL_AHBIDL) == 0U);
  53              		.loc 1 1449 53 is_stmt 1 view .LVU10
  54              		.loc 1 1449 17 is_stmt 0 view .LVU11
  55 0014 0369     		ldr	r3, [r0, #16]
  56              		.loc 1 1449 53 view .LVU12
  57 0016 002B     		cmp	r3, #0
  58 0018 F5DA     		bge	.L3
1450:Drivers/STM32F7xx_HAL_Driver/Src/stm32f7xx_ll_usb.c **** 
1451:Drivers/STM32F7xx_HAL_Driver/Src/stm32f7xx_ll_usb.c ****   /* Core Soft Reset */
1452:Drivers/STM32F7xx_HAL_Driver/Src/stm32f7xx_ll_usb.c ****   count = 0U;
  59              		.loc 1 1452 3 is_stmt 1 view .LVU13
  60              		.loc 1 1452 9 is_stmt 0 view .LVU14
  61 001a 0023     		movs	r3, #0
  62 001c 0193     		str	r3, [sp, #4]
1453:Drivers/STM32F7xx_HAL_Driver/Src/stm32f7xx_ll_usb.c ****   USBx->GRSTCTL |= USB_OTG_GRSTCTL_CSRST;
  63              		.loc 1 1453 3 is_stmt 1 view .LVU15
  64              		.loc 1 1453 7 is_stmt 0 view .LVU16
  65 001e 0369     		ldr	r3, [r0, #16]
  66              		.loc 1 1453 17 view .LVU17
  67 0020 43F00103 		orr	r3, r3, #1
  68 0024 0361     		str	r3, [r0, #16]
  69              	.L4:
1454:Drivers/STM32F7xx_HAL_Driver/Src/stm32f7xx_ll_usb.c **** 
1455:Drivers/STM32F7xx_HAL_Driver/Src/stm32f7xx_ll_usb.c ****   do
  70              		.loc 1 1455 3 is_stmt 1 view .LVU18
1456:Drivers/STM32F7xx_HAL_Driver/Src/stm32f7xx_ll_usb.c ****   {
1457:Drivers/STM32F7xx_HAL_Driver/Src/stm32f7xx_ll_usb.c ****     count++;
  71              		.loc 1 1457 5 view .LVU19
  72              		.loc 1 1457 10 is_stmt 0 view .LVU20
  73 0026 019B     		ldr	r3, [sp, #4]
  74 0028 0133     		adds	r3, r3, #1
  75 002a 0193     		str	r3, [sp, #4]
1458:Drivers/STM32F7xx_HAL_Driver/Src/stm32f7xx_ll_usb.c **** 
1459:Drivers/STM32F7xx_HAL_Driver/Src/stm32f7xx_ll_usb.c ****     if (count > HAL_USB_TIMEOUT)
  76              		.loc 1 1459 5 is_stmt 1 view .LVU21
  77              		.loc 1 1459 15 is_stmt 0 view .LVU22
  78 002c 019B     		ldr	r3, [sp, #4]
  79              		.loc 1 1459 8 view .LVU23
  80 002e B3F1706F 		cmp	r3, #251658240
  81 0032 08D8     		bhi	.L6
ARM GAS  /var/folders/8d/8djywmp92nx9cg9c5pcw0px00000gn/T//ccLp59Ij.s 			page 28


1460:Drivers/STM32F7xx_HAL_Driver/Src/stm32f7xx_ll_usb.c ****     {
1461:Drivers/STM32F7xx_HAL_Driver/Src/stm32f7xx_ll_usb.c ****       return HAL_TIMEOUT;
1462:Drivers/STM32F7xx_HAL_Driver/Src/stm32f7xx_ll_usb.c ****     }
1463:Drivers/STM32F7xx_HAL_Driver/Src/stm32f7xx_ll_usb.c ****   } while ((USBx->GRSTCTL & USB_OTG_GRSTCTL_CSRST) == USB_OTG_GRSTCTL_CSRST);
  82              		.loc 1 1463 52 is_stmt 1 view .LVU24
  83              		.loc 1 1463 17 is_stmt 0 view .LVU25
  84 0034 0369     		ldr	r3, [r0, #16]
  85              		.loc 1 1463 52 view .LVU26
  86 0036 13F0010F 		tst	r3, #1
  87 003a F4D1     		bne	.L4
1464:Drivers/STM32F7xx_HAL_Driver/Src/stm32f7xx_ll_usb.c **** 
1465:Drivers/STM32F7xx_HAL_Driver/Src/stm32f7xx_ll_usb.c ****   return HAL_OK;
  88              		.loc 1 1465 10 view .LVU27
  89 003c 0020     		movs	r0, #0
  90              	.LVL1:
  91              		.loc 1 1465 10 view .LVU28
  92 003e 00E0     		b	.L2
  93              	.LVL2:
  94              	.L5:
1447:Drivers/STM32F7xx_HAL_Driver/Src/stm32f7xx_ll_usb.c ****     }
  95              		.loc 1 1447 14 view .LVU29
  96 0040 0320     		movs	r0, #3
  97              	.LVL3:
  98              	.L2:
1466:Drivers/STM32F7xx_HAL_Driver/Src/stm32f7xx_ll_usb.c **** }
  99              		.loc 1 1466 1 view .LVU30
 100 0042 02B0     		add	sp, sp, #8
 101              		.cfi_remember_state
 102              		.cfi_def_cfa_offset 0
 103              		@ sp needed
 104 0044 7047     		bx	lr
 105              	.LVL4:
 106              	.L6:
 107              		.cfi_restore_state
1461:Drivers/STM32F7xx_HAL_Driver/Src/stm32f7xx_ll_usb.c ****     }
 108              		.loc 1 1461 14 view .LVU31
 109 0046 0320     		movs	r0, #3
 110              	.LVL5:
1461:Drivers/STM32F7xx_HAL_Driver/Src/stm32f7xx_ll_usb.c ****     }
 111              		.loc 1 1461 14 view .LVU32
 112 0048 FBE7     		b	.L2
 113              		.cfi_endproc
 114              	.LFE175:
 116              		.section	.text.USB_CoreInit,"ax",%progbits
 117              		.align	1
 118              		.global	USB_CoreInit
 119              		.syntax unified
 120              		.thumb
 121              		.thumb_func
 123              	USB_CoreInit:
 124              	.LVL6:
 125              	.LFB141:
  87:Drivers/STM32F7xx_HAL_Driver/Src/stm32f7xx_ll_usb.c ****   HAL_StatusTypeDef ret;
 126              		.loc 1 87 1 is_stmt 1 view -0
 127              		.cfi_startproc
 128              		@ args = 20, pretend = 16, frame = 0
 129              		@ frame_needed = 0, uses_anonymous_args = 0
ARM GAS  /var/folders/8d/8djywmp92nx9cg9c5pcw0px00000gn/T//ccLp59Ij.s 			page 29


  87:Drivers/STM32F7xx_HAL_Driver/Src/stm32f7xx_ll_usb.c ****   HAL_StatusTypeDef ret;
 130              		.loc 1 87 1 is_stmt 0 view .LVU34
 131 0000 84B0     		sub	sp, sp, #16
 132              		.cfi_def_cfa_offset 16
 133 0002 10B5     		push	{r4, lr}
 134              		.cfi_def_cfa_offset 24
 135              		.cfi_offset 4, -24
 136              		.cfi_offset 14, -20
 137 0004 0446     		mov	r4, r0
 138 0006 03A8     		add	r0, sp, #12
 139              	.LVL7:
  87:Drivers/STM32F7xx_HAL_Driver/Src/stm32f7xx_ll_usb.c ****   HAL_StatusTypeDef ret;
 140              		.loc 1 87 1 view .LVU35
 141 0008 80E80E00 		stm	r0, {r1, r2, r3}
  88:Drivers/STM32F7xx_HAL_Driver/Src/stm32f7xx_ll_usb.c **** 
 142              		.loc 1 88 3 is_stmt 1 view .LVU36
  90:Drivers/STM32F7xx_HAL_Driver/Src/stm32f7xx_ll_usb.c ****   {
 143              		.loc 1 90 3 view .LVU37
  90:Drivers/STM32F7xx_HAL_Driver/Src/stm32f7xx_ll_usb.c ****   {
 144              		.loc 1 90 10 is_stmt 0 view .LVU38
 145 000c 9DF81130 		ldrb	r3, [sp, #17]	@ zero_extendqisi2
  90:Drivers/STM32F7xx_HAL_Driver/Src/stm32f7xx_ll_usb.c ****   {
 146              		.loc 1 90 6 view .LVU39
 147 0010 012B     		cmp	r3, #1
 148 0012 1FD1     		bne	.L9
  92:Drivers/STM32F7xx_HAL_Driver/Src/stm32f7xx_ll_usb.c **** 
 149              		.loc 1 92 5 is_stmt 1 view .LVU40
  92:Drivers/STM32F7xx_HAL_Driver/Src/stm32f7xx_ll_usb.c **** 
 150              		.loc 1 92 9 is_stmt 0 view .LVU41
 151 0014 A36B     		ldr	r3, [r4, #56]
  92:Drivers/STM32F7xx_HAL_Driver/Src/stm32f7xx_ll_usb.c **** 
 152              		.loc 1 92 17 view .LVU42
 153 0016 23F48033 		bic	r3, r3, #65536
 154 001a A363     		str	r3, [r4, #56]
  95:Drivers/STM32F7xx_HAL_Driver/Src/stm32f7xx_ll_usb.c **** 
 155              		.loc 1 95 5 is_stmt 1 view .LVU43
  95:Drivers/STM32F7xx_HAL_Driver/Src/stm32f7xx_ll_usb.c **** 
 156              		.loc 1 95 9 is_stmt 0 view .LVU44
 157 001c E268     		ldr	r2, [r4, #12]
  95:Drivers/STM32F7xx_HAL_Driver/Src/stm32f7xx_ll_usb.c **** 
 158              		.loc 1 95 19 view .LVU45
 159 001e 184B     		ldr	r3, .L16
 160 0020 1340     		ands	r3, r3, r2
 161 0022 E360     		str	r3, [r4, #12]
 105:Drivers/STM32F7xx_HAL_Driver/Src/stm32f7xx_ll_usb.c ****     if (cfg.use_external_vbus == 1U)
 162              		.loc 1 105 5 is_stmt 1 view .LVU46
 105:Drivers/STM32F7xx_HAL_Driver/Src/stm32f7xx_ll_usb.c ****     if (cfg.use_external_vbus == 1U)
 163              		.loc 1 105 9 is_stmt 0 view .LVU47
 164 0024 E368     		ldr	r3, [r4, #12]
 105:Drivers/STM32F7xx_HAL_Driver/Src/stm32f7xx_ll_usb.c ****     if (cfg.use_external_vbus == 1U)
 165              		.loc 1 105 19 view .LVU48
 166 0026 23F44013 		bic	r3, r3, #3145728
 167 002a E360     		str	r3, [r4, #12]
 106:Drivers/STM32F7xx_HAL_Driver/Src/stm32f7xx_ll_usb.c ****     {
 168              		.loc 1 106 5 is_stmt 1 view .LVU49
 106:Drivers/STM32F7xx_HAL_Driver/Src/stm32f7xx_ll_usb.c ****     {
 169              		.loc 1 106 12 is_stmt 0 view .LVU50
ARM GAS  /var/folders/8d/8djywmp92nx9cg9c5pcw0px00000gn/T//ccLp59Ij.s 			page 30


 170 002c 9DF81830 		ldrb	r3, [sp, #24]	@ zero_extendqisi2
 106:Drivers/STM32F7xx_HAL_Driver/Src/stm32f7xx_ll_usb.c ****     {
 171              		.loc 1 106 8 view .LVU51
 172 0030 012B     		cmp	r3, #1
 173 0032 0AD0     		beq	.L14
 174              	.L10:
 112:Drivers/STM32F7xx_HAL_Driver/Src/stm32f7xx_ll_usb.c ****   }
 175              		.loc 1 112 5 is_stmt 1 view .LVU52
 112:Drivers/STM32F7xx_HAL_Driver/Src/stm32f7xx_ll_usb.c ****   }
 176              		.loc 1 112 11 is_stmt 0 view .LVU53
 177 0034 2046     		mov	r0, r4
 178 0036 FFF7FEFF 		bl	USB_CoreReset
 179              	.LVL8:
 180              	.L11:
 161:Drivers/STM32F7xx_HAL_Driver/Src/stm32f7xx_ll_usb.c ****   {
 181              		.loc 1 161 3 is_stmt 1 view .LVU54
 161:Drivers/STM32F7xx_HAL_Driver/Src/stm32f7xx_ll_usb.c ****   {
 182              		.loc 1 161 10 is_stmt 0 view .LVU55
 183 003a 9DF80E30 		ldrb	r3, [sp, #14]	@ zero_extendqisi2
 161:Drivers/STM32F7xx_HAL_Driver/Src/stm32f7xx_ll_usb.c ****   {
 184              		.loc 1 161 6 view .LVU56
 185 003e 012B     		cmp	r3, #1
 186 0040 14D0     		beq	.L15
 187              	.L12:
 167:Drivers/STM32F7xx_HAL_Driver/Src/stm32f7xx_ll_usb.c **** }
 188              		.loc 1 167 3 is_stmt 1 view .LVU57
 168:Drivers/STM32F7xx_HAL_Driver/Src/stm32f7xx_ll_usb.c **** 
 189              		.loc 1 168 1 is_stmt 0 view .LVU58
 190 0042 BDE81040 		pop	{r4, lr}
 191              		.cfi_remember_state
 192              		.cfi_restore 14
 193              		.cfi_restore 4
 194              		.cfi_def_cfa_offset 16
 195              	.LVL9:
 168:Drivers/STM32F7xx_HAL_Driver/Src/stm32f7xx_ll_usb.c **** 
 196              		.loc 1 168 1 view .LVU59
 197 0046 04B0     		add	sp, sp, #16
 198              		.cfi_def_cfa_offset 0
 199 0048 7047     		bx	lr
 200              	.LVL10:
 201              	.L14:
 202              		.cfi_restore_state
 108:Drivers/STM32F7xx_HAL_Driver/Src/stm32f7xx_ll_usb.c ****     }
 203              		.loc 1 108 7 is_stmt 1 view .LVU60
 108:Drivers/STM32F7xx_HAL_Driver/Src/stm32f7xx_ll_usb.c ****     }
 204              		.loc 1 108 11 is_stmt 0 view .LVU61
 205 004a E368     		ldr	r3, [r4, #12]
 108:Drivers/STM32F7xx_HAL_Driver/Src/stm32f7xx_ll_usb.c ****     }
 206              		.loc 1 108 21 view .LVU62
 207 004c 43F48013 		orr	r3, r3, #1048576
 208 0050 E360     		str	r3, [r4, #12]
 209 0052 EFE7     		b	.L10
 210              	.L9:
 152:Drivers/STM32F7xx_HAL_Driver/Src/stm32f7xx_ll_usb.c **** 
 211              		.loc 1 152 5 is_stmt 1 view .LVU63
 152:Drivers/STM32F7xx_HAL_Driver/Src/stm32f7xx_ll_usb.c **** 
 212              		.loc 1 152 9 is_stmt 0 view .LVU64
ARM GAS  /var/folders/8d/8djywmp92nx9cg9c5pcw0px00000gn/T//ccLp59Ij.s 			page 31


 213 0054 E368     		ldr	r3, [r4, #12]
 152:Drivers/STM32F7xx_HAL_Driver/Src/stm32f7xx_ll_usb.c **** 
 214              		.loc 1 152 19 view .LVU65
 215 0056 43F04003 		orr	r3, r3, #64
 216 005a E360     		str	r3, [r4, #12]
 155:Drivers/STM32F7xx_HAL_Driver/Src/stm32f7xx_ll_usb.c **** 
 217              		.loc 1 155 5 is_stmt 1 view .LVU66
 155:Drivers/STM32F7xx_HAL_Driver/Src/stm32f7xx_ll_usb.c **** 
 218              		.loc 1 155 11 is_stmt 0 view .LVU67
 219 005c 2046     		mov	r0, r4
 220 005e FFF7FEFF 		bl	USB_CoreReset
 221              	.LVL11:
 158:Drivers/STM32F7xx_HAL_Driver/Src/stm32f7xx_ll_usb.c ****   }
 222              		.loc 1 158 5 is_stmt 1 view .LVU68
 158:Drivers/STM32F7xx_HAL_Driver/Src/stm32f7xx_ll_usb.c ****   }
 223              		.loc 1 158 9 is_stmt 0 view .LVU69
 224 0062 A36B     		ldr	r3, [r4, #56]
 158:Drivers/STM32F7xx_HAL_Driver/Src/stm32f7xx_ll_usb.c ****   }
 225              		.loc 1 158 17 view .LVU70
 226 0064 43F48033 		orr	r3, r3, #65536
 227 0068 A363     		str	r3, [r4, #56]
 228 006a E6E7     		b	.L11
 229              	.L15:
 163:Drivers/STM32F7xx_HAL_Driver/Src/stm32f7xx_ll_usb.c ****     USBx->GAHBCFG |= USB_OTG_GAHBCFG_DMAEN;
 230              		.loc 1 163 5 is_stmt 1 view .LVU71
 163:Drivers/STM32F7xx_HAL_Driver/Src/stm32f7xx_ll_usb.c ****     USBx->GAHBCFG |= USB_OTG_GAHBCFG_DMAEN;
 231              		.loc 1 163 9 is_stmt 0 view .LVU72
 232 006c A368     		ldr	r3, [r4, #8]
 163:Drivers/STM32F7xx_HAL_Driver/Src/stm32f7xx_ll_usb.c ****     USBx->GAHBCFG |= USB_OTG_GAHBCFG_DMAEN;
 233              		.loc 1 163 19 view .LVU73
 234 006e 43F00603 		orr	r3, r3, #6
 235 0072 A360     		str	r3, [r4, #8]
 164:Drivers/STM32F7xx_HAL_Driver/Src/stm32f7xx_ll_usb.c ****   }
 236              		.loc 1 164 5 is_stmt 1 view .LVU74
 164:Drivers/STM32F7xx_HAL_Driver/Src/stm32f7xx_ll_usb.c ****   }
 237              		.loc 1 164 9 is_stmt 0 view .LVU75
 238 0074 A368     		ldr	r3, [r4, #8]
 164:Drivers/STM32F7xx_HAL_Driver/Src/stm32f7xx_ll_usb.c ****   }
 239              		.loc 1 164 19 view .LVU76
 240 0076 43F02003 		orr	r3, r3, #32
 241 007a A360     		str	r3, [r4, #8]
 242 007c E1E7     		b	.L12
 243              	.L17:
 244 007e 00BF     		.align	2
 245              	.L16:
 246 0080 BFFFBDFF 		.word	-4325441
 247              		.cfi_endproc
 248              	.LFE141:
 250              		.section	.text.USB_SetTurnaroundTime,"ax",%progbits
 251              		.align	1
 252              		.global	USB_SetTurnaroundTime
 253              		.syntax unified
 254              		.thumb
 255              		.thumb_func
 257              	USB_SetTurnaroundTime:
 258              	.LVL12:
 259              	.LFB142:
ARM GAS  /var/folders/8d/8djywmp92nx9cg9c5pcw0px00000gn/T//ccLp59Ij.s 			page 32


 179:Drivers/STM32F7xx_HAL_Driver/Src/stm32f7xx_ll_usb.c ****   uint32_t UsbTrd;
 260              		.loc 1 179 1 is_stmt 1 view -0
 261              		.cfi_startproc
 262              		@ args = 0, pretend = 0, frame = 0
 263              		@ frame_needed = 0, uses_anonymous_args = 0
 264              		@ link register save eliminated.
 180:Drivers/STM32F7xx_HAL_Driver/Src/stm32f7xx_ll_usb.c **** 
 265              		.loc 1 180 3 view .LVU78
 186:Drivers/STM32F7xx_HAL_Driver/Src/stm32f7xx_ll_usb.c ****   {
 266              		.loc 1 186 3 view .LVU79
 186:Drivers/STM32F7xx_HAL_Driver/Src/stm32f7xx_ll_usb.c ****   {
 267              		.loc 1 186 6 is_stmt 0 view .LVU80
 268 0000 022A     		cmp	r2, #2
 269 0002 0AD0     		beq	.L30
 241:Drivers/STM32F7xx_HAL_Driver/Src/stm32f7xx_ll_usb.c ****   }
 270              		.loc 1 241 12 view .LVU81
 271 0004 0922     		movs	r2, #9
 272              	.LVL13:
 273              	.L19:
 248:Drivers/STM32F7xx_HAL_Driver/Src/stm32f7xx_ll_usb.c ****   USBx->GUSBCFG |= (uint32_t)((UsbTrd << 10) & USB_OTG_GUSBCFG_TRDT);
 274              		.loc 1 248 3 is_stmt 1 view .LVU82
 248:Drivers/STM32F7xx_HAL_Driver/Src/stm32f7xx_ll_usb.c ****   USBx->GUSBCFG |= (uint32_t)((UsbTrd << 10) & USB_OTG_GUSBCFG_TRDT);
 275              		.loc 1 248 7 is_stmt 0 view .LVU83
 276 0006 C368     		ldr	r3, [r0, #12]
 248:Drivers/STM32F7xx_HAL_Driver/Src/stm32f7xx_ll_usb.c ****   USBx->GUSBCFG |= (uint32_t)((UsbTrd << 10) & USB_OTG_GUSBCFG_TRDT);
 277              		.loc 1 248 17 view .LVU84
 278 0008 23F47053 		bic	r3, r3, #15360
 279 000c C360     		str	r3, [r0, #12]
 249:Drivers/STM32F7xx_HAL_Driver/Src/stm32f7xx_ll_usb.c **** 
 280              		.loc 1 249 3 is_stmt 1 view .LVU85
 249:Drivers/STM32F7xx_HAL_Driver/Src/stm32f7xx_ll_usb.c **** 
 281              		.loc 1 249 7 is_stmt 0 view .LVU86
 282 000e C368     		ldr	r3, [r0, #12]
 249:Drivers/STM32F7xx_HAL_Driver/Src/stm32f7xx_ll_usb.c **** 
 283              		.loc 1 249 17 view .LVU87
 284 0010 43EA8223 		orr	r3, r3, r2, lsl #10
 285 0014 C360     		str	r3, [r0, #12]
 251:Drivers/STM32F7xx_HAL_Driver/Src/stm32f7xx_ll_usb.c **** }
 286              		.loc 1 251 3 is_stmt 1 view .LVU88
 252:Drivers/STM32F7xx_HAL_Driver/Src/stm32f7xx_ll_usb.c **** 
 287              		.loc 1 252 1 is_stmt 0 view .LVU89
 288 0016 0020     		movs	r0, #0
 289              	.LVL14:
 252:Drivers/STM32F7xx_HAL_Driver/Src/stm32f7xx_ll_usb.c **** 
 290              		.loc 1 252 1 view .LVU90
 291 0018 7047     		bx	lr
 292              	.LVL15:
 293              	.L30:
 188:Drivers/STM32F7xx_HAL_Driver/Src/stm32f7xx_ll_usb.c ****     {
 294              		.loc 1 188 5 is_stmt 1 view .LVU91
 188:Drivers/STM32F7xx_HAL_Driver/Src/stm32f7xx_ll_usb.c ****     {
 295              		.loc 1 188 29 is_stmt 0 view .LVU92
 296 001a 204B     		ldr	r3, .L31
 297 001c 0B44     		add	r3, r3, r1
 188:Drivers/STM32F7xx_HAL_Driver/Src/stm32f7xx_ll_usb.c ****     {
 298              		.loc 1 188 8 view .LVU93
 299 001e 204A     		ldr	r2, .L31+4
ARM GAS  /var/folders/8d/8djywmp92nx9cg9c5pcw0px00000gn/T//ccLp59Ij.s 			page 33


 300              	.LVL16:
 188:Drivers/STM32F7xx_HAL_Driver/Src/stm32f7xx_ll_usb.c ****     {
 301              		.loc 1 188 8 view .LVU94
 302 0020 9342     		cmp	r3, r2
 303 0022 29D9     		bls	.L21
 193:Drivers/STM32F7xx_HAL_Driver/Src/stm32f7xx_ll_usb.c ****     {
 304              		.loc 1 193 10 is_stmt 1 view .LVU95
 193:Drivers/STM32F7xx_HAL_Driver/Src/stm32f7xx_ll_usb.c ****     {
 305              		.loc 1 193 34 is_stmt 0 view .LVU96
 306 0024 1F4B     		ldr	r3, .L31+8
 307 0026 0B44     		add	r3, r3, r1
 193:Drivers/STM32F7xx_HAL_Driver/Src/stm32f7xx_ll_usb.c ****     {
 308              		.loc 1 193 13 view .LVU97
 309 0028 1F4A     		ldr	r2, .L31+12
 310 002a 9342     		cmp	r3, r2
 311 002c 26D9     		bls	.L22
 198:Drivers/STM32F7xx_HAL_Driver/Src/stm32f7xx_ll_usb.c ****     {
 312              		.loc 1 198 10 is_stmt 1 view .LVU98
 198:Drivers/STM32F7xx_HAL_Driver/Src/stm32f7xx_ll_usb.c ****     {
 313              		.loc 1 198 34 is_stmt 0 view .LVU99
 314 002e 1F4B     		ldr	r3, .L31+16
 315 0030 0B44     		add	r3, r3, r1
 198:Drivers/STM32F7xx_HAL_Driver/Src/stm32f7xx_ll_usb.c ****     {
 316              		.loc 1 198 13 view .LVU100
 317 0032 1F4A     		ldr	r2, .L31+20
 318 0034 9342     		cmp	r3, r2
 319 0036 23D9     		bls	.L23
 203:Drivers/STM32F7xx_HAL_Driver/Src/stm32f7xx_ll_usb.c ****     {
 320              		.loc 1 203 10 is_stmt 1 view .LVU101
 203:Drivers/STM32F7xx_HAL_Driver/Src/stm32f7xx_ll_usb.c ****     {
 321              		.loc 1 203 34 is_stmt 0 view .LVU102
 322 0038 1E4B     		ldr	r3, .L31+24
 323 003a 0B44     		add	r3, r3, r1
 203:Drivers/STM32F7xx_HAL_Driver/Src/stm32f7xx_ll_usb.c ****     {
 324              		.loc 1 203 13 view .LVU103
 325 003c 1E4A     		ldr	r2, .L31+28
 326 003e 9342     		cmp	r3, r2
 327 0040 20D3     		bcc	.L24
 208:Drivers/STM32F7xx_HAL_Driver/Src/stm32f7xx_ll_usb.c ****     {
 328              		.loc 1 208 10 is_stmt 1 view .LVU104
 208:Drivers/STM32F7xx_HAL_Driver/Src/stm32f7xx_ll_usb.c ****     {
 329              		.loc 1 208 34 is_stmt 0 view .LVU105
 330 0042 1E4B     		ldr	r3, .L31+32
 331 0044 0B44     		add	r3, r3, r1
 208:Drivers/STM32F7xx_HAL_Driver/Src/stm32f7xx_ll_usb.c ****     {
 332              		.loc 1 208 13 view .LVU106
 333 0046 1E4A     		ldr	r2, .L31+36
 334 0048 9342     		cmp	r3, r2
 335 004a 1DD9     		bls	.L25
 213:Drivers/STM32F7xx_HAL_Driver/Src/stm32f7xx_ll_usb.c ****     {
 336              		.loc 1 213 10 is_stmt 1 view .LVU107
 213:Drivers/STM32F7xx_HAL_Driver/Src/stm32f7xx_ll_usb.c ****     {
 337              		.loc 1 213 34 is_stmt 0 view .LVU108
 338 004c 1D4B     		ldr	r3, .L31+40
 339 004e 0B44     		add	r3, r3, r1
 213:Drivers/STM32F7xx_HAL_Driver/Src/stm32f7xx_ll_usb.c ****     {
 340              		.loc 1 213 13 view .LVU109
ARM GAS  /var/folders/8d/8djywmp92nx9cg9c5pcw0px00000gn/T//ccLp59Ij.s 			page 34


 341 0050 1D4A     		ldr	r2, .L31+44
 342 0052 9342     		cmp	r3, r2
 343 0054 1AD3     		bcc	.L26
 218:Drivers/STM32F7xx_HAL_Driver/Src/stm32f7xx_ll_usb.c ****     {
 344              		.loc 1 218 10 is_stmt 1 view .LVU110
 218:Drivers/STM32F7xx_HAL_Driver/Src/stm32f7xx_ll_usb.c ****     {
 345              		.loc 1 218 34 is_stmt 0 view .LVU111
 346 0056 1D4B     		ldr	r3, .L31+48
 347 0058 0B44     		add	r3, r3, r1
 218:Drivers/STM32F7xx_HAL_Driver/Src/stm32f7xx_ll_usb.c ****     {
 348              		.loc 1 218 13 view .LVU112
 349 005a 1D4A     		ldr	r2, .L31+52
 350 005c 9342     		cmp	r3, r2
 351 005e 17D3     		bcc	.L27
 223:Drivers/STM32F7xx_HAL_Driver/Src/stm32f7xx_ll_usb.c ****     {
 352              		.loc 1 223 10 is_stmt 1 view .LVU113
 223:Drivers/STM32F7xx_HAL_Driver/Src/stm32f7xx_ll_usb.c ****     {
 353              		.loc 1 223 34 is_stmt 0 view .LVU114
 354 0060 1C4B     		ldr	r3, .L31+56
 355 0062 0B44     		add	r3, r3, r1
 223:Drivers/STM32F7xx_HAL_Driver/Src/stm32f7xx_ll_usb.c ****     {
 356              		.loc 1 223 13 view .LVU115
 357 0064 1C4A     		ldr	r2, .L31+60
 358 0066 9342     		cmp	r3, r2
 359 0068 14D3     		bcc	.L28
 228:Drivers/STM32F7xx_HAL_Driver/Src/stm32f7xx_ll_usb.c ****     {
 360              		.loc 1 228 10 is_stmt 1 view .LVU116
 228:Drivers/STM32F7xx_HAL_Driver/Src/stm32f7xx_ll_usb.c ****     {
 361              		.loc 1 228 34 is_stmt 0 view .LVU117
 362 006a 1C4B     		ldr	r3, .L31+64
 363 006c 0B44     		add	r3, r3, r1
 228:Drivers/STM32F7xx_HAL_Driver/Src/stm32f7xx_ll_usb.c ****     {
 364              		.loc 1 228 13 view .LVU118
 365 006e 1C4A     		ldr	r2, .L31+68
 366 0070 9342     		cmp	r3, r2
 367 0072 11D2     		bcs	.L29
 231:Drivers/STM32F7xx_HAL_Driver/Src/stm32f7xx_ll_usb.c ****     }
 368              		.loc 1 231 14 view .LVU119
 369 0074 0722     		movs	r2, #7
 370 0076 C6E7     		b	.L19
 371              	.L21:
 191:Drivers/STM32F7xx_HAL_Driver/Src/stm32f7xx_ll_usb.c ****     }
 372              		.loc 1 191 14 view .LVU120
 373 0078 0F22     		movs	r2, #15
 374 007a C4E7     		b	.L19
 375              	.L22:
 196:Drivers/STM32F7xx_HAL_Driver/Src/stm32f7xx_ll_usb.c ****     }
 376              		.loc 1 196 14 view .LVU121
 377 007c 0E22     		movs	r2, #14
 378 007e C2E7     		b	.L19
 379              	.L23:
 201:Drivers/STM32F7xx_HAL_Driver/Src/stm32f7xx_ll_usb.c ****     }
 380              		.loc 1 201 14 view .LVU122
 381 0080 0D22     		movs	r2, #13
 382 0082 C0E7     		b	.L19
 383              	.L24:
 206:Drivers/STM32F7xx_HAL_Driver/Src/stm32f7xx_ll_usb.c ****     }
ARM GAS  /var/folders/8d/8djywmp92nx9cg9c5pcw0px00000gn/T//ccLp59Ij.s 			page 35


 384              		.loc 1 206 14 view .LVU123
 385 0084 0C22     		movs	r2, #12
 386 0086 BEE7     		b	.L19
 387              	.L25:
 211:Drivers/STM32F7xx_HAL_Driver/Src/stm32f7xx_ll_usb.c ****     }
 388              		.loc 1 211 14 view .LVU124
 389 0088 0B22     		movs	r2, #11
 390 008a BCE7     		b	.L19
 391              	.L26:
 216:Drivers/STM32F7xx_HAL_Driver/Src/stm32f7xx_ll_usb.c ****     }
 392              		.loc 1 216 14 view .LVU125
 393 008c 0A22     		movs	r2, #10
 394 008e BAE7     		b	.L19
 395              	.L27:
 221:Drivers/STM32F7xx_HAL_Driver/Src/stm32f7xx_ll_usb.c ****     }
 396              		.loc 1 221 14 view .LVU126
 397 0090 0922     		movs	r2, #9
 398 0092 B8E7     		b	.L19
 399              	.L28:
 226:Drivers/STM32F7xx_HAL_Driver/Src/stm32f7xx_ll_usb.c ****     }
 400              		.loc 1 226 14 view .LVU127
 401 0094 0822     		movs	r2, #8
 402 0096 B6E7     		b	.L19
 403              	.L29:
 236:Drivers/STM32F7xx_HAL_Driver/Src/stm32f7xx_ll_usb.c ****     }
 404              		.loc 1 236 14 view .LVU128
 405 0098 0622     		movs	r2, #6
 406 009a B4E7     		b	.L19
 407              	.L32:
 408              		.align	2
 409              	.L31:
 410 009c 405327FF 		.word	-14200000
 411 00a0 FF340C00 		.word	799999
 412 00a4 401E1BFF 		.word	-15000000
 413 00a8 3F420F00 		.word	999999
 414 00ac 00DC0BFF 		.word	-16000000
 415 00b0 7F4F1200 		.word	1199999
 416 00b4 808CF9FE 		.word	-17200000
 417 00b8 20D61300 		.word	1300000
 418 00bc 60B6E5FE 		.word	-18500000
 419 00c0 5FE31600 		.word	1499999
 420 00c4 00D3CEFE 		.word	-20000000
 421 00c8 40771B00 		.word	1800000
 422 00cc C05BB3FE 		.word	-21800000
 423 00d0 C0912100 		.word	2200000
 424 00d4 00CA91FE 		.word	-24000000
 425 00d8 20753800 		.word	3700000
 426 00dc E05459FE 		.word	-27700000
 427 00e0 E09C4100 		.word	4300000
 428              		.cfi_endproc
 429              	.LFE142:
 431              		.section	.text.USB_EnableGlobalInt,"ax",%progbits
 432              		.align	1
 433              		.global	USB_EnableGlobalInt
 434              		.syntax unified
 435              		.thumb
 436              		.thumb_func
ARM GAS  /var/folders/8d/8djywmp92nx9cg9c5pcw0px00000gn/T//ccLp59Ij.s 			page 36


 438              	USB_EnableGlobalInt:
 439              	.LVL17:
 440              	.LFB143:
 261:Drivers/STM32F7xx_HAL_Driver/Src/stm32f7xx_ll_usb.c ****   USBx->GAHBCFG |= USB_OTG_GAHBCFG_GINT;
 441              		.loc 1 261 1 is_stmt 1 view -0
 442              		.cfi_startproc
 443              		@ args = 0, pretend = 0, frame = 0
 444              		@ frame_needed = 0, uses_anonymous_args = 0
 445              		@ link register save eliminated.
 262:Drivers/STM32F7xx_HAL_Driver/Src/stm32f7xx_ll_usb.c ****   return HAL_OK;
 446              		.loc 1 262 3 view .LVU130
 262:Drivers/STM32F7xx_HAL_Driver/Src/stm32f7xx_ll_usb.c ****   return HAL_OK;
 447              		.loc 1 262 7 is_stmt 0 view .LVU131
 448 0000 8368     		ldr	r3, [r0, #8]
 262:Drivers/STM32F7xx_HAL_Driver/Src/stm32f7xx_ll_usb.c ****   return HAL_OK;
 449              		.loc 1 262 17 view .LVU132
 450 0002 43F00103 		orr	r3, r3, #1
 451 0006 8360     		str	r3, [r0, #8]
 263:Drivers/STM32F7xx_HAL_Driver/Src/stm32f7xx_ll_usb.c **** }
 452              		.loc 1 263 3 is_stmt 1 view .LVU133
 264:Drivers/STM32F7xx_HAL_Driver/Src/stm32f7xx_ll_usb.c **** 
 453              		.loc 1 264 1 is_stmt 0 view .LVU134
 454 0008 0020     		movs	r0, #0
 455              	.LVL18:
 264:Drivers/STM32F7xx_HAL_Driver/Src/stm32f7xx_ll_usb.c **** 
 456              		.loc 1 264 1 view .LVU135
 457 000a 7047     		bx	lr
 458              		.cfi_endproc
 459              	.LFE143:
 461              		.section	.text.USB_DisableGlobalInt,"ax",%progbits
 462              		.align	1
 463              		.global	USB_DisableGlobalInt
 464              		.syntax unified
 465              		.thumb
 466              		.thumb_func
 468              	USB_DisableGlobalInt:
 469              	.LVL19:
 470              	.LFB144:
 273:Drivers/STM32F7xx_HAL_Driver/Src/stm32f7xx_ll_usb.c ****   USBx->GAHBCFG &= ~USB_OTG_GAHBCFG_GINT;
 471              		.loc 1 273 1 is_stmt 1 view -0
 472              		.cfi_startproc
 473              		@ args = 0, pretend = 0, frame = 0
 474              		@ frame_needed = 0, uses_anonymous_args = 0
 475              		@ link register save eliminated.
 274:Drivers/STM32F7xx_HAL_Driver/Src/stm32f7xx_ll_usb.c ****   return HAL_OK;
 476              		.loc 1 274 3 view .LVU137
 274:Drivers/STM32F7xx_HAL_Driver/Src/stm32f7xx_ll_usb.c ****   return HAL_OK;
 477              		.loc 1 274 7 is_stmt 0 view .LVU138
 478 0000 8368     		ldr	r3, [r0, #8]
 274:Drivers/STM32F7xx_HAL_Driver/Src/stm32f7xx_ll_usb.c ****   return HAL_OK;
 479              		.loc 1 274 17 view .LVU139
 480 0002 23F00103 		bic	r3, r3, #1
 481 0006 8360     		str	r3, [r0, #8]
 275:Drivers/STM32F7xx_HAL_Driver/Src/stm32f7xx_ll_usb.c **** }
 482              		.loc 1 275 3 is_stmt 1 view .LVU140
 276:Drivers/STM32F7xx_HAL_Driver/Src/stm32f7xx_ll_usb.c **** 
 483              		.loc 1 276 1 is_stmt 0 view .LVU141
ARM GAS  /var/folders/8d/8djywmp92nx9cg9c5pcw0px00000gn/T//ccLp59Ij.s 			page 37


 484 0008 0020     		movs	r0, #0
 485              	.LVL20:
 276:Drivers/STM32F7xx_HAL_Driver/Src/stm32f7xx_ll_usb.c **** 
 486              		.loc 1 276 1 view .LVU142
 487 000a 7047     		bx	lr
 488              		.cfi_endproc
 489              	.LFE144:
 491              		.section	.text.USB_FlushTxFifo,"ax",%progbits
 492              		.align	1
 493              		.global	USB_FlushTxFifo
 494              		.syntax unified
 495              		.thumb
 496              		.thumb_func
 498              	USB_FlushTxFifo:
 499              	.LVL21:
 500              	.LFB147:
 504:Drivers/STM32F7xx_HAL_Driver/Src/stm32f7xx_ll_usb.c ****   __IO uint32_t count = 0U;
 501              		.loc 1 504 1 is_stmt 1 view -0
 502              		.cfi_startproc
 503              		@ args = 0, pretend = 0, frame = 8
 504              		@ frame_needed = 0, uses_anonymous_args = 0
 505              		@ link register save eliminated.
 504:Drivers/STM32F7xx_HAL_Driver/Src/stm32f7xx_ll_usb.c ****   __IO uint32_t count = 0U;
 506              		.loc 1 504 1 is_stmt 0 view .LVU144
 507 0000 82B0     		sub	sp, sp, #8
 508              		.cfi_def_cfa_offset 8
 505:Drivers/STM32F7xx_HAL_Driver/Src/stm32f7xx_ll_usb.c **** 
 509              		.loc 1 505 3 is_stmt 1 view .LVU145
 505:Drivers/STM32F7xx_HAL_Driver/Src/stm32f7xx_ll_usb.c **** 
 510              		.loc 1 505 17 is_stmt 0 view .LVU146
 511 0002 0023     		movs	r3, #0
 512 0004 0193     		str	r3, [sp, #4]
 513              	.L37:
 508:Drivers/STM32F7xx_HAL_Driver/Src/stm32f7xx_ll_usb.c ****   {
 514              		.loc 1 508 3 is_stmt 1 view .LVU147
 510:Drivers/STM32F7xx_HAL_Driver/Src/stm32f7xx_ll_usb.c **** 
 515              		.loc 1 510 5 view .LVU148
 510:Drivers/STM32F7xx_HAL_Driver/Src/stm32f7xx_ll_usb.c **** 
 516              		.loc 1 510 10 is_stmt 0 view .LVU149
 517 0006 019B     		ldr	r3, [sp, #4]
 518 0008 0133     		adds	r3, r3, #1
 519 000a 0193     		str	r3, [sp, #4]
 512:Drivers/STM32F7xx_HAL_Driver/Src/stm32f7xx_ll_usb.c ****     {
 520              		.loc 1 512 5 is_stmt 1 view .LVU150
 512:Drivers/STM32F7xx_HAL_Driver/Src/stm32f7xx_ll_usb.c ****     {
 521              		.loc 1 512 15 is_stmt 0 view .LVU151
 522 000c 019B     		ldr	r3, [sp, #4]
 512:Drivers/STM32F7xx_HAL_Driver/Src/stm32f7xx_ll_usb.c ****     {
 523              		.loc 1 512 8 view .LVU152
 524 000e B3F1706F 		cmp	r3, #251658240
 525 0012 15D8     		bhi	.L39
 516:Drivers/STM32F7xx_HAL_Driver/Src/stm32f7xx_ll_usb.c **** 
 526              		.loc 1 516 53 is_stmt 1 view .LVU153
 516:Drivers/STM32F7xx_HAL_Driver/Src/stm32f7xx_ll_usb.c **** 
 527              		.loc 1 516 17 is_stmt 0 view .LVU154
 528 0014 0369     		ldr	r3, [r0, #16]
 516:Drivers/STM32F7xx_HAL_Driver/Src/stm32f7xx_ll_usb.c **** 
ARM GAS  /var/folders/8d/8djywmp92nx9cg9c5pcw0px00000gn/T//ccLp59Ij.s 			page 38


 529              		.loc 1 516 53 view .LVU155
 530 0016 002B     		cmp	r3, #0
 531 0018 F5DA     		bge	.L37
 519:Drivers/STM32F7xx_HAL_Driver/Src/stm32f7xx_ll_usb.c ****   USBx->GRSTCTL = (USB_OTG_GRSTCTL_TXFFLSH | (num << 6));
 532              		.loc 1 519 3 is_stmt 1 view .LVU156
 519:Drivers/STM32F7xx_HAL_Driver/Src/stm32f7xx_ll_usb.c ****   USBx->GRSTCTL = (USB_OTG_GRSTCTL_TXFFLSH | (num << 6));
 533              		.loc 1 519 9 is_stmt 0 view .LVU157
 534 001a 0023     		movs	r3, #0
 535 001c 0193     		str	r3, [sp, #4]
 520:Drivers/STM32F7xx_HAL_Driver/Src/stm32f7xx_ll_usb.c **** 
 536              		.loc 1 520 3 is_stmt 1 view .LVU158
 520:Drivers/STM32F7xx_HAL_Driver/Src/stm32f7xx_ll_usb.c **** 
 537              		.loc 1 520 51 is_stmt 0 view .LVU159
 538 001e 8901     		lsls	r1, r1, #6
 539              	.LVL22:
 520:Drivers/STM32F7xx_HAL_Driver/Src/stm32f7xx_ll_usb.c **** 
 540              		.loc 1 520 44 view .LVU160
 541 0020 41F02001 		orr	r1, r1, #32
 520:Drivers/STM32F7xx_HAL_Driver/Src/stm32f7xx_ll_usb.c **** 
 542              		.loc 1 520 17 view .LVU161
 543 0024 0161     		str	r1, [r0, #16]
 544              	.L38:
 522:Drivers/STM32F7xx_HAL_Driver/Src/stm32f7xx_ll_usb.c ****   {
 545              		.loc 1 522 3 is_stmt 1 view .LVU162
 524:Drivers/STM32F7xx_HAL_Driver/Src/stm32f7xx_ll_usb.c **** 
 546              		.loc 1 524 5 view .LVU163
 524:Drivers/STM32F7xx_HAL_Driver/Src/stm32f7xx_ll_usb.c **** 
 547              		.loc 1 524 10 is_stmt 0 view .LVU164
 548 0026 019B     		ldr	r3, [sp, #4]
 549 0028 0133     		adds	r3, r3, #1
 550 002a 0193     		str	r3, [sp, #4]
 526:Drivers/STM32F7xx_HAL_Driver/Src/stm32f7xx_ll_usb.c ****     {
 551              		.loc 1 526 5 is_stmt 1 view .LVU165
 526:Drivers/STM32F7xx_HAL_Driver/Src/stm32f7xx_ll_usb.c ****     {
 552              		.loc 1 526 15 is_stmt 0 view .LVU166
 553 002c 019B     		ldr	r3, [sp, #4]
 526:Drivers/STM32F7xx_HAL_Driver/Src/stm32f7xx_ll_usb.c ****     {
 554              		.loc 1 526 8 view .LVU167
 555 002e B3F1706F 		cmp	r3, #251658240
 556 0032 08D8     		bhi	.L40
 530:Drivers/STM32F7xx_HAL_Driver/Src/stm32f7xx_ll_usb.c **** 
 557              		.loc 1 530 54 is_stmt 1 view .LVU168
 530:Drivers/STM32F7xx_HAL_Driver/Src/stm32f7xx_ll_usb.c **** 
 558              		.loc 1 530 17 is_stmt 0 view .LVU169
 559 0034 0369     		ldr	r3, [r0, #16]
 530:Drivers/STM32F7xx_HAL_Driver/Src/stm32f7xx_ll_usb.c **** 
 560              		.loc 1 530 54 view .LVU170
 561 0036 13F0200F 		tst	r3, #32
 562 003a F4D1     		bne	.L38
 532:Drivers/STM32F7xx_HAL_Driver/Src/stm32f7xx_ll_usb.c **** }
 563              		.loc 1 532 10 view .LVU171
 564 003c 0020     		movs	r0, #0
 565              	.LVL23:
 532:Drivers/STM32F7xx_HAL_Driver/Src/stm32f7xx_ll_usb.c **** }
 566              		.loc 1 532 10 view .LVU172
 567 003e 00E0     		b	.L36
 568              	.LVL24:
ARM GAS  /var/folders/8d/8djywmp92nx9cg9c5pcw0px00000gn/T//ccLp59Ij.s 			page 39


 569              	.L39:
 514:Drivers/STM32F7xx_HAL_Driver/Src/stm32f7xx_ll_usb.c ****     }
 570              		.loc 1 514 14 view .LVU173
 571 0040 0320     		movs	r0, #3
 572              	.LVL25:
 573              	.L36:
 533:Drivers/STM32F7xx_HAL_Driver/Src/stm32f7xx_ll_usb.c **** 
 574              		.loc 1 533 1 view .LVU174
 575 0042 02B0     		add	sp, sp, #8
 576              		.cfi_remember_state
 577              		.cfi_def_cfa_offset 0
 578              		@ sp needed
 579 0044 7047     		bx	lr
 580              	.LVL26:
 581              	.L40:
 582              		.cfi_restore_state
 528:Drivers/STM32F7xx_HAL_Driver/Src/stm32f7xx_ll_usb.c ****     }
 583              		.loc 1 528 14 view .LVU175
 584 0046 0320     		movs	r0, #3
 585              	.LVL27:
 528:Drivers/STM32F7xx_HAL_Driver/Src/stm32f7xx_ll_usb.c ****     }
 586              		.loc 1 528 14 view .LVU176
 587 0048 FBE7     		b	.L36
 588              		.cfi_endproc
 589              	.LFE147:
 591              		.section	.text.USB_FlushRxFifo,"ax",%progbits
 592              		.align	1
 593              		.global	USB_FlushRxFifo
 594              		.syntax unified
 595              		.thumb
 596              		.thumb_func
 598              	USB_FlushRxFifo:
 599              	.LVL28:
 600              	.LFB148:
 541:Drivers/STM32F7xx_HAL_Driver/Src/stm32f7xx_ll_usb.c ****   __IO uint32_t count = 0U;
 601              		.loc 1 541 1 is_stmt 1 view -0
 602              		.cfi_startproc
 603              		@ args = 0, pretend = 0, frame = 8
 604              		@ frame_needed = 0, uses_anonymous_args = 0
 605              		@ link register save eliminated.
 541:Drivers/STM32F7xx_HAL_Driver/Src/stm32f7xx_ll_usb.c ****   __IO uint32_t count = 0U;
 606              		.loc 1 541 1 is_stmt 0 view .LVU178
 607 0000 82B0     		sub	sp, sp, #8
 608              		.cfi_def_cfa_offset 8
 542:Drivers/STM32F7xx_HAL_Driver/Src/stm32f7xx_ll_usb.c **** 
 609              		.loc 1 542 3 is_stmt 1 view .LVU179
 542:Drivers/STM32F7xx_HAL_Driver/Src/stm32f7xx_ll_usb.c **** 
 610              		.loc 1 542 17 is_stmt 0 view .LVU180
 611 0002 0023     		movs	r3, #0
 612 0004 0193     		str	r3, [sp, #4]
 613              	.L44:
 545:Drivers/STM32F7xx_HAL_Driver/Src/stm32f7xx_ll_usb.c ****   {
 614              		.loc 1 545 3 is_stmt 1 view .LVU181
 547:Drivers/STM32F7xx_HAL_Driver/Src/stm32f7xx_ll_usb.c **** 
 615              		.loc 1 547 5 view .LVU182
 547:Drivers/STM32F7xx_HAL_Driver/Src/stm32f7xx_ll_usb.c **** 
 616              		.loc 1 547 10 is_stmt 0 view .LVU183
ARM GAS  /var/folders/8d/8djywmp92nx9cg9c5pcw0px00000gn/T//ccLp59Ij.s 			page 40


 617 0006 019B     		ldr	r3, [sp, #4]
 618 0008 0133     		adds	r3, r3, #1
 619 000a 0193     		str	r3, [sp, #4]
 549:Drivers/STM32F7xx_HAL_Driver/Src/stm32f7xx_ll_usb.c ****     {
 620              		.loc 1 549 5 is_stmt 1 view .LVU184
 549:Drivers/STM32F7xx_HAL_Driver/Src/stm32f7xx_ll_usb.c ****     {
 621              		.loc 1 549 15 is_stmt 0 view .LVU185
 622 000c 019B     		ldr	r3, [sp, #4]
 549:Drivers/STM32F7xx_HAL_Driver/Src/stm32f7xx_ll_usb.c ****     {
 623              		.loc 1 549 8 view .LVU186
 624 000e B3F1706F 		cmp	r3, #251658240
 625 0012 13D8     		bhi	.L46
 553:Drivers/STM32F7xx_HAL_Driver/Src/stm32f7xx_ll_usb.c **** 
 626              		.loc 1 553 53 is_stmt 1 view .LVU187
 553:Drivers/STM32F7xx_HAL_Driver/Src/stm32f7xx_ll_usb.c **** 
 627              		.loc 1 553 17 is_stmt 0 view .LVU188
 628 0014 0369     		ldr	r3, [r0, #16]
 553:Drivers/STM32F7xx_HAL_Driver/Src/stm32f7xx_ll_usb.c **** 
 629              		.loc 1 553 53 view .LVU189
 630 0016 002B     		cmp	r3, #0
 631 0018 F5DA     		bge	.L44
 556:Drivers/STM32F7xx_HAL_Driver/Src/stm32f7xx_ll_usb.c ****   USBx->GRSTCTL = USB_OTG_GRSTCTL_RXFFLSH;
 632              		.loc 1 556 3 is_stmt 1 view .LVU190
 556:Drivers/STM32F7xx_HAL_Driver/Src/stm32f7xx_ll_usb.c ****   USBx->GRSTCTL = USB_OTG_GRSTCTL_RXFFLSH;
 633              		.loc 1 556 9 is_stmt 0 view .LVU191
 634 001a 0023     		movs	r3, #0
 635 001c 0193     		str	r3, [sp, #4]
 557:Drivers/STM32F7xx_HAL_Driver/Src/stm32f7xx_ll_usb.c **** 
 636              		.loc 1 557 3 is_stmt 1 view .LVU192
 557:Drivers/STM32F7xx_HAL_Driver/Src/stm32f7xx_ll_usb.c **** 
 637              		.loc 1 557 17 is_stmt 0 view .LVU193
 638 001e 1023     		movs	r3, #16
 639 0020 0361     		str	r3, [r0, #16]
 640              	.L45:
 559:Drivers/STM32F7xx_HAL_Driver/Src/stm32f7xx_ll_usb.c ****   {
 641              		.loc 1 559 3 is_stmt 1 view .LVU194
 561:Drivers/STM32F7xx_HAL_Driver/Src/stm32f7xx_ll_usb.c **** 
 642              		.loc 1 561 5 view .LVU195
 561:Drivers/STM32F7xx_HAL_Driver/Src/stm32f7xx_ll_usb.c **** 
 643              		.loc 1 561 10 is_stmt 0 view .LVU196
 644 0022 019B     		ldr	r3, [sp, #4]
 645 0024 0133     		adds	r3, r3, #1
 646 0026 0193     		str	r3, [sp, #4]
 563:Drivers/STM32F7xx_HAL_Driver/Src/stm32f7xx_ll_usb.c ****     {
 647              		.loc 1 563 5 is_stmt 1 view .LVU197
 563:Drivers/STM32F7xx_HAL_Driver/Src/stm32f7xx_ll_usb.c ****     {
 648              		.loc 1 563 15 is_stmt 0 view .LVU198
 649 0028 019B     		ldr	r3, [sp, #4]
 563:Drivers/STM32F7xx_HAL_Driver/Src/stm32f7xx_ll_usb.c ****     {
 650              		.loc 1 563 8 view .LVU199
 651 002a B3F1706F 		cmp	r3, #251658240
 652 002e 08D8     		bhi	.L47
 567:Drivers/STM32F7xx_HAL_Driver/Src/stm32f7xx_ll_usb.c **** 
 653              		.loc 1 567 54 is_stmt 1 view .LVU200
 567:Drivers/STM32F7xx_HAL_Driver/Src/stm32f7xx_ll_usb.c **** 
 654              		.loc 1 567 17 is_stmt 0 view .LVU201
 655 0030 0369     		ldr	r3, [r0, #16]
ARM GAS  /var/folders/8d/8djywmp92nx9cg9c5pcw0px00000gn/T//ccLp59Ij.s 			page 41


 567:Drivers/STM32F7xx_HAL_Driver/Src/stm32f7xx_ll_usb.c **** 
 656              		.loc 1 567 54 view .LVU202
 657 0032 13F0100F 		tst	r3, #16
 658 0036 F4D1     		bne	.L45
 569:Drivers/STM32F7xx_HAL_Driver/Src/stm32f7xx_ll_usb.c **** }
 659              		.loc 1 569 10 view .LVU203
 660 0038 0020     		movs	r0, #0
 661              	.LVL29:
 569:Drivers/STM32F7xx_HAL_Driver/Src/stm32f7xx_ll_usb.c **** }
 662              		.loc 1 569 10 view .LVU204
 663 003a 00E0     		b	.L43
 664              	.LVL30:
 665              	.L46:
 551:Drivers/STM32F7xx_HAL_Driver/Src/stm32f7xx_ll_usb.c ****     }
 666              		.loc 1 551 14 view .LVU205
 667 003c 0320     		movs	r0, #3
 668              	.LVL31:
 669              	.L43:
 570:Drivers/STM32F7xx_HAL_Driver/Src/stm32f7xx_ll_usb.c **** 
 670              		.loc 1 570 1 view .LVU206
 671 003e 02B0     		add	sp, sp, #8
 672              		.cfi_remember_state
 673              		.cfi_def_cfa_offset 0
 674              		@ sp needed
 675 0040 7047     		bx	lr
 676              	.LVL32:
 677              	.L47:
 678              		.cfi_restore_state
 565:Drivers/STM32F7xx_HAL_Driver/Src/stm32f7xx_ll_usb.c ****     }
 679              		.loc 1 565 14 view .LVU207
 680 0042 0320     		movs	r0, #3
 681              	.LVL33:
 565:Drivers/STM32F7xx_HAL_Driver/Src/stm32f7xx_ll_usb.c ****     }
 682              		.loc 1 565 14 view .LVU208
 683 0044 FBE7     		b	.L43
 684              		.cfi_endproc
 685              	.LFE148:
 687              		.section	.text.USB_SetDevSpeed,"ax",%progbits
 688              		.align	1
 689              		.global	USB_SetDevSpeed
 690              		.syntax unified
 691              		.thumb
 692              		.thumb_func
 694              	USB_SetDevSpeed:
 695              	.LVL34:
 696              	.LFB149:
 584:Drivers/STM32F7xx_HAL_Driver/Src/stm32f7xx_ll_usb.c ****   uint32_t USBx_BASE = (uint32_t)USBx;
 697              		.loc 1 584 1 is_stmt 1 view -0
 698              		.cfi_startproc
 699              		@ args = 0, pretend = 0, frame = 0
 700              		@ frame_needed = 0, uses_anonymous_args = 0
 701              		@ link register save eliminated.
 585:Drivers/STM32F7xx_HAL_Driver/Src/stm32f7xx_ll_usb.c **** 
 702              		.loc 1 585 3 view .LVU210
 587:Drivers/STM32F7xx_HAL_Driver/Src/stm32f7xx_ll_usb.c ****   return HAL_OK;
 703              		.loc 1 587 3 view .LVU211
 587:Drivers/STM32F7xx_HAL_Driver/Src/stm32f7xx_ll_usb.c ****   return HAL_OK;
ARM GAS  /var/folders/8d/8djywmp92nx9cg9c5pcw0px00000gn/T//ccLp59Ij.s 			page 42


 704              		.loc 1 587 14 is_stmt 0 view .LVU212
 705 0000 D0F80038 		ldr	r3, [r0, #2048]
 587:Drivers/STM32F7xx_HAL_Driver/Src/stm32f7xx_ll_usb.c ****   return HAL_OK;
 706              		.loc 1 587 21 view .LVU213
 707 0004 1943     		orrs	r1, r1, r3
 708              	.LVL35:
 587:Drivers/STM32F7xx_HAL_Driver/Src/stm32f7xx_ll_usb.c ****   return HAL_OK;
 709              		.loc 1 587 21 view .LVU214
 710 0006 C0F80018 		str	r1, [r0, #2048]
 588:Drivers/STM32F7xx_HAL_Driver/Src/stm32f7xx_ll_usb.c **** }
 711              		.loc 1 588 3 is_stmt 1 view .LVU215
 589:Drivers/STM32F7xx_HAL_Driver/Src/stm32f7xx_ll_usb.c **** 
 712              		.loc 1 589 1 is_stmt 0 view .LVU216
 713 000a 0020     		movs	r0, #0
 714              	.LVL36:
 589:Drivers/STM32F7xx_HAL_Driver/Src/stm32f7xx_ll_usb.c **** 
 715              		.loc 1 589 1 view .LVU217
 716 000c 7047     		bx	lr
 717              		.cfi_endproc
 718              	.LFE149:
 720              		.section	.text.USB_DevInit,"ax",%progbits
 721              		.align	1
 722              		.global	USB_DevInit
 723              		.syntax unified
 724              		.thumb
 725              		.thumb_func
 727              	USB_DevInit:
 728              	.LVL37:
 729              	.LFB146:
 335:Drivers/STM32F7xx_HAL_Driver/Src/stm32f7xx_ll_usb.c ****   HAL_StatusTypeDef ret = HAL_OK;
 730              		.loc 1 335 1 is_stmt 1 view -0
 731              		.cfi_startproc
 732              		@ args = 20, pretend = 16, frame = 0
 733              		@ frame_needed = 0, uses_anonymous_args = 0
 335:Drivers/STM32F7xx_HAL_Driver/Src/stm32f7xx_ll_usb.c ****   HAL_StatusTypeDef ret = HAL_OK;
 734              		.loc 1 335 1 is_stmt 0 view .LVU219
 735 0000 84B0     		sub	sp, sp, #16
 736              		.cfi_def_cfa_offset 16
 737 0002 F8B5     		push	{r3, r4, r5, r6, r7, lr}
 738              		.cfi_def_cfa_offset 40
 739              		.cfi_offset 3, -40
 740              		.cfi_offset 4, -36
 741              		.cfi_offset 5, -32
 742              		.cfi_offset 6, -28
 743              		.cfi_offset 7, -24
 744              		.cfi_offset 14, -20
 745 0004 0446     		mov	r4, r0
 746 0006 07A8     		add	r0, sp, #28
 747              	.LVL38:
 335:Drivers/STM32F7xx_HAL_Driver/Src/stm32f7xx_ll_usb.c ****   HAL_StatusTypeDef ret = HAL_OK;
 748              		.loc 1 335 1 view .LVU220
 749 0008 80E80E00 		stm	r0, {r1, r2, r3}
 336:Drivers/STM32F7xx_HAL_Driver/Src/stm32f7xx_ll_usb.c ****   uint32_t USBx_BASE = (uint32_t)USBx;
 750              		.loc 1 336 3 is_stmt 1 view .LVU221
 751              	.LVL39:
 337:Drivers/STM32F7xx_HAL_Driver/Src/stm32f7xx_ll_usb.c ****   uint32_t i;
 752              		.loc 1 337 3 view .LVU222
ARM GAS  /var/folders/8d/8djywmp92nx9cg9c5pcw0px00000gn/T//ccLp59Ij.s 			page 43


 338:Drivers/STM32F7xx_HAL_Driver/Src/stm32f7xx_ll_usb.c **** 
 753              		.loc 1 338 3 view .LVU223
 340:Drivers/STM32F7xx_HAL_Driver/Src/stm32f7xx_ll_usb.c ****   {
 754              		.loc 1 340 3 view .LVU224
 340:Drivers/STM32F7xx_HAL_Driver/Src/stm32f7xx_ll_usb.c ****   {
 755              		.loc 1 340 10 is_stmt 0 view .LVU225
 756 000c 0023     		movs	r3, #0
 340:Drivers/STM32F7xx_HAL_Driver/Src/stm32f7xx_ll_usb.c ****   {
 757              		.loc 1 340 3 view .LVU226
 758 000e 06E0     		b	.L51
 759              	.LVL40:
 760              	.L52:
 342:Drivers/STM32F7xx_HAL_Driver/Src/stm32f7xx_ll_usb.c ****   }
 761              		.loc 1 342 5 is_stmt 1 view .LVU227
 342:Drivers/STM32F7xx_HAL_Driver/Src/stm32f7xx_ll_usb.c ****   }
 762              		.loc 1 342 22 is_stmt 0 view .LVU228
 763 0010 03F14002 		add	r2, r3, #64
 764 0014 04EB8202 		add	r2, r4, r2, lsl #2
 765 0018 0021     		movs	r1, #0
 766 001a 5160     		str	r1, [r2, #4]
 340:Drivers/STM32F7xx_HAL_Driver/Src/stm32f7xx_ll_usb.c ****   {
 767              		.loc 1 340 26 is_stmt 1 discriminator 3 view .LVU229
 768 001c 0133     		adds	r3, r3, #1
 769              	.LVL41:
 770              	.L51:
 340:Drivers/STM32F7xx_HAL_Driver/Src/stm32f7xx_ll_usb.c ****   {
 771              		.loc 1 340 18 discriminator 1 view .LVU230
 772 001e 0E2B     		cmp	r3, #14
 773 0020 F6D9     		bls	.L52
 346:Drivers/STM32F7xx_HAL_Driver/Src/stm32f7xx_ll_usb.c ****   {
 774              		.loc 1 346 3 view .LVU231
 346:Drivers/STM32F7xx_HAL_Driver/Src/stm32f7xx_ll_usb.c ****   {
 775              		.loc 1 346 10 is_stmt 0 view .LVU232
 776 0022 9DF82660 		ldrb	r6, [sp, #38]	@ zero_extendqisi2
 346:Drivers/STM32F7xx_HAL_Driver/Src/stm32f7xx_ll_usb.c ****   {
 777              		.loc 1 346 6 view .LVU233
 778 0026 06BB     		cbnz	r6, .L53
 348:Drivers/STM32F7xx_HAL_Driver/Src/stm32f7xx_ll_usb.c **** 
 779              		.loc 1 348 5 is_stmt 1 view .LVU234
 348:Drivers/STM32F7xx_HAL_Driver/Src/stm32f7xx_ll_usb.c **** 
 780              		.loc 1 348 16 is_stmt 0 view .LVU235
 781 0028 D4F80438 		ldr	r3, [r4, #2052]
 782              	.LVL42:
 348:Drivers/STM32F7xx_HAL_Driver/Src/stm32f7xx_ll_usb.c **** 
 783              		.loc 1 348 23 view .LVU236
 784 002c 43F00203 		orr	r3, r3, #2
 785 0030 C4F80438 		str	r3, [r4, #2052]
 351:Drivers/STM32F7xx_HAL_Driver/Src/stm32f7xx_ll_usb.c **** 
 786              		.loc 1 351 5 is_stmt 1 view .LVU237
 351:Drivers/STM32F7xx_HAL_Driver/Src/stm32f7xx_ll_usb.c **** 
 787              		.loc 1 351 9 is_stmt 0 view .LVU238
 788 0034 A36B     		ldr	r3, [r4, #56]
 351:Drivers/STM32F7xx_HAL_Driver/Src/stm32f7xx_ll_usb.c **** 
 789              		.loc 1 351 17 view .LVU239
 790 0036 23F40013 		bic	r3, r3, #2097152
 791 003a A363     		str	r3, [r4, #56]
 354:Drivers/STM32F7xx_HAL_Driver/Src/stm32f7xx_ll_usb.c ****     USBx->GOTGCTL |= USB_OTG_GOTGCTL_BVALOVAL;
ARM GAS  /var/folders/8d/8djywmp92nx9cg9c5pcw0px00000gn/T//ccLp59Ij.s 			page 44


 792              		.loc 1 354 5 is_stmt 1 view .LVU240
 354:Drivers/STM32F7xx_HAL_Driver/Src/stm32f7xx_ll_usb.c ****     USBx->GOTGCTL |= USB_OTG_GOTGCTL_BVALOVAL;
 793              		.loc 1 354 9 is_stmt 0 view .LVU241
 794 003c 2368     		ldr	r3, [r4]
 354:Drivers/STM32F7xx_HAL_Driver/Src/stm32f7xx_ll_usb.c ****     USBx->GOTGCTL |= USB_OTG_GOTGCTL_BVALOVAL;
 795              		.loc 1 354 19 view .LVU242
 796 003e 43F04003 		orr	r3, r3, #64
 797 0042 2360     		str	r3, [r4]
 355:Drivers/STM32F7xx_HAL_Driver/Src/stm32f7xx_ll_usb.c ****   }
 798              		.loc 1 355 5 is_stmt 1 view .LVU243
 355:Drivers/STM32F7xx_HAL_Driver/Src/stm32f7xx_ll_usb.c ****   }
 799              		.loc 1 355 9 is_stmt 0 view .LVU244
 800 0044 2368     		ldr	r3, [r4]
 355:Drivers/STM32F7xx_HAL_Driver/Src/stm32f7xx_ll_usb.c ****   }
 801              		.loc 1 355 19 view .LVU245
 802 0046 43F08003 		orr	r3, r3, #128
 803 004a 2360     		str	r3, [r4]
 804              	.L54:
 364:Drivers/STM32F7xx_HAL_Driver/Src/stm32f7xx_ll_usb.c **** 
 805              		.loc 1 364 3 is_stmt 1 view .LVU246
 364:Drivers/STM32F7xx_HAL_Driver/Src/stm32f7xx_ll_usb.c **** 
 806              		.loc 1 364 16 is_stmt 0 view .LVU247
 807 004c 0023     		movs	r3, #0
 808 004e C4F8003E 		str	r3, [r4, #3584]
 366:Drivers/STM32F7xx_HAL_Driver/Src/stm32f7xx_ll_usb.c ****   {
 809              		.loc 1 366 3 is_stmt 1 view .LVU248
 366:Drivers/STM32F7xx_HAL_Driver/Src/stm32f7xx_ll_usb.c ****   {
 810              		.loc 1 366 10 is_stmt 0 view .LVU249
 811 0052 9DF82130 		ldrb	r3, [sp, #33]	@ zero_extendqisi2
 366:Drivers/STM32F7xx_HAL_Driver/Src/stm32f7xx_ll_usb.c ****   {
 812              		.loc 1 366 6 view .LVU250
 813 0056 012B     		cmp	r3, #1
 814 0058 11D1     		bne	.L55
 368:Drivers/STM32F7xx_HAL_Driver/Src/stm32f7xx_ll_usb.c ****     {
 815              		.loc 1 368 5 is_stmt 1 view .LVU251
 368:Drivers/STM32F7xx_HAL_Driver/Src/stm32f7xx_ll_usb.c ****     {
 816              		.loc 1 368 12 is_stmt 0 view .LVU252
 817 005a 9DF81F30 		ldrb	r3, [sp, #31]	@ zero_extendqisi2
 368:Drivers/STM32F7xx_HAL_Driver/Src/stm32f7xx_ll_usb.c ****     {
 818              		.loc 1 368 8 view .LVU253
 819 005e 4BB9     		cbnz	r3, .L56
 371:Drivers/STM32F7xx_HAL_Driver/Src/stm32f7xx_ll_usb.c ****     }
 820              		.loc 1 371 7 is_stmt 1 view .LVU254
 371:Drivers/STM32F7xx_HAL_Driver/Src/stm32f7xx_ll_usb.c ****     }
 821              		.loc 1 371 13 is_stmt 0 view .LVU255
 822 0060 0021     		movs	r1, #0
 823 0062 2046     		mov	r0, r4
 824 0064 FFF7FEFF 		bl	USB_SetDevSpeed
 825              	.LVL43:
 826 0068 0DE0     		b	.L57
 827              	.LVL44:
 828              	.L53:
 360:Drivers/STM32F7xx_HAL_Driver/Src/stm32f7xx_ll_usb.c ****   }
 829              		.loc 1 360 5 is_stmt 1 view .LVU256
 360:Drivers/STM32F7xx_HAL_Driver/Src/stm32f7xx_ll_usb.c ****   }
 830              		.loc 1 360 9 is_stmt 0 view .LVU257
 831 006a A36B     		ldr	r3, [r4, #56]
ARM GAS  /var/folders/8d/8djywmp92nx9cg9c5pcw0px00000gn/T//ccLp59Ij.s 			page 45


 832              	.LVL45:
 360:Drivers/STM32F7xx_HAL_Driver/Src/stm32f7xx_ll_usb.c ****   }
 833              		.loc 1 360 17 view .LVU258
 834 006c 43F40013 		orr	r3, r3, #2097152
 835 0070 A363     		str	r3, [r4, #56]
 836 0072 EBE7     		b	.L54
 837              	.L56:
 376:Drivers/STM32F7xx_HAL_Driver/Src/stm32f7xx_ll_usb.c ****     }
 838              		.loc 1 376 7 is_stmt 1 view .LVU259
 376:Drivers/STM32F7xx_HAL_Driver/Src/stm32f7xx_ll_usb.c ****     }
 839              		.loc 1 376 13 is_stmt 0 view .LVU260
 840 0074 0121     		movs	r1, #1
 841 0076 2046     		mov	r0, r4
 842 0078 FFF7FEFF 		bl	USB_SetDevSpeed
 843              	.LVL46:
 844 007c 03E0     		b	.L57
 845              	.L55:
 399:Drivers/STM32F7xx_HAL_Driver/Src/stm32f7xx_ll_usb.c ****   }
 846              		.loc 1 399 5 is_stmt 1 view .LVU261
 399:Drivers/STM32F7xx_HAL_Driver/Src/stm32f7xx_ll_usb.c ****   }
 847              		.loc 1 399 11 is_stmt 0 view .LVU262
 848 007e 0321     		movs	r1, #3
 849 0080 2046     		mov	r0, r4
 850 0082 FFF7FEFF 		bl	USB_SetDevSpeed
 851              	.LVL47:
 852              	.L57:
 403:Drivers/STM32F7xx_HAL_Driver/Src/stm32f7xx_ll_usb.c ****   {
 853              		.loc 1 403 3 is_stmt 1 view .LVU263
 403:Drivers/STM32F7xx_HAL_Driver/Src/stm32f7xx_ll_usb.c ****   {
 854              		.loc 1 403 7 is_stmt 0 view .LVU264
 855 0086 1021     		movs	r1, #16
 856 0088 2046     		mov	r0, r4
 857 008a FFF7FEFF 		bl	USB_FlushTxFifo
 858              	.LVL48:
 403:Drivers/STM32F7xx_HAL_Driver/Src/stm32f7xx_ll_usb.c ****   {
 859              		.loc 1 403 6 discriminator 1 view .LVU265
 860 008e 0546     		mov	r5, r0
 861 0090 00B1     		cbz	r0, .L58
 405:Drivers/STM32F7xx_HAL_Driver/Src/stm32f7xx_ll_usb.c ****   }
 862              		.loc 1 405 9 view .LVU266
 863 0092 0125     		movs	r5, #1
 864              	.L58:
 865              	.LVL49:
 408:Drivers/STM32F7xx_HAL_Driver/Src/stm32f7xx_ll_usb.c ****   {
 866              		.loc 1 408 3 is_stmt 1 view .LVU267
 408:Drivers/STM32F7xx_HAL_Driver/Src/stm32f7xx_ll_usb.c ****   {
 867              		.loc 1 408 7 is_stmt 0 view .LVU268
 868 0094 2046     		mov	r0, r4
 869 0096 FFF7FEFF 		bl	USB_FlushRxFifo
 870              	.LVL50:
 408:Drivers/STM32F7xx_HAL_Driver/Src/stm32f7xx_ll_usb.c ****   {
 871              		.loc 1 408 6 discriminator 1 view .LVU269
 872 009a 00B1     		cbz	r0, .L59
 410:Drivers/STM32F7xx_HAL_Driver/Src/stm32f7xx_ll_usb.c ****   }
 873              		.loc 1 410 9 view .LVU270
 874 009c 0125     		movs	r5, #1
 875              	.LVL51:
ARM GAS  /var/folders/8d/8djywmp92nx9cg9c5pcw0px00000gn/T//ccLp59Ij.s 			page 46


 876              	.L59:
 414:Drivers/STM32F7xx_HAL_Driver/Src/stm32f7xx_ll_usb.c ****   USBx_DEVICE->DOEPMSK = 0U;
 877              		.loc 1 414 3 is_stmt 1 view .LVU271
 878 009e 04F5006C 		add	ip, r4, #2048
 414:Drivers/STM32F7xx_HAL_Driver/Src/stm32f7xx_ll_usb.c ****   USBx_DEVICE->DOEPMSK = 0U;
 879              		.loc 1 414 24 is_stmt 0 view .LVU272
 880 00a2 0023     		movs	r3, #0
 881 00a4 CCF81030 		str	r3, [ip, #16]
 415:Drivers/STM32F7xx_HAL_Driver/Src/stm32f7xx_ll_usb.c ****   USBx_DEVICE->DAINTMSK = 0U;
 882              		.loc 1 415 3 is_stmt 1 view .LVU273
 415:Drivers/STM32F7xx_HAL_Driver/Src/stm32f7xx_ll_usb.c ****   USBx_DEVICE->DAINTMSK = 0U;
 883              		.loc 1 415 24 is_stmt 0 view .LVU274
 884 00a8 CCF81430 		str	r3, [ip, #20]
 416:Drivers/STM32F7xx_HAL_Driver/Src/stm32f7xx_ll_usb.c **** 
 885              		.loc 1 416 3 is_stmt 1 view .LVU275
 416:Drivers/STM32F7xx_HAL_Driver/Src/stm32f7xx_ll_usb.c **** 
 886              		.loc 1 416 25 is_stmt 0 view .LVU276
 887 00ac CCF81C30 		str	r3, [ip, #28]
 418:Drivers/STM32F7xx_HAL_Driver/Src/stm32f7xx_ll_usb.c ****   {
 888              		.loc 1 418 3 is_stmt 1 view .LVU277
 889              	.LVL52:
 418:Drivers/STM32F7xx_HAL_Driver/Src/stm32f7xx_ll_usb.c ****   {
 890              		.loc 1 418 3 is_stmt 0 view .LVU278
 891 00b0 0AE0     		b	.L60
 892              	.LVL53:
 893              	.L77:
 422:Drivers/STM32F7xx_HAL_Driver/Src/stm32f7xx_ll_usb.c ****       {
 894              		.loc 1 422 7 is_stmt 1 view .LVU279
 422:Drivers/STM32F7xx_HAL_Driver/Src/stm32f7xx_ll_usb.c ****       {
 895              		.loc 1 422 10 is_stmt 0 view .LVU280
 896 00b2 CBB9     		cbnz	r3, .L62
 424:Drivers/STM32F7xx_HAL_Driver/Src/stm32f7xx_ll_usb.c ****       }
 897              		.loc 1 424 9 is_stmt 1 view .LVU281
 424:Drivers/STM32F7xx_HAL_Driver/Src/stm32f7xx_ll_usb.c ****       }
 898              		.loc 1 424 31 is_stmt 0 view .LVU282
 899 00b4 4FF00060 		mov	r0, #134217728
 900 00b8 C2F80009 		str	r0, [r2, #2304]
 901              	.L63:
 436:Drivers/STM32F7xx_HAL_Driver/Src/stm32f7xx_ll_usb.c ****     USBx_INEP(i)->DIEPINT  = 0xFB7FU;
 902              		.loc 1 436 5 is_stmt 1 view .LVU283
 436:Drivers/STM32F7xx_HAL_Driver/Src/stm32f7xx_ll_usb.c ****     USBx_INEP(i)->DIEPINT  = 0xFB7FU;
 903              		.loc 1 436 28 is_stmt 0 view .LVU284
 904 00bc 0022     		movs	r2, #0
 905 00be 0A61     		str	r2, [r1, #16]
 437:Drivers/STM32F7xx_HAL_Driver/Src/stm32f7xx_ll_usb.c ****   }
 906              		.loc 1 437 5 is_stmt 1 view .LVU285
 437:Drivers/STM32F7xx_HAL_Driver/Src/stm32f7xx_ll_usb.c ****   }
 907              		.loc 1 437 28 is_stmt 0 view .LVU286
 908 00c0 4FF67F32 		movw	r2, #64383
 909 00c4 8A60     		str	r2, [r1, #8]
 418:Drivers/STM32F7xx_HAL_Driver/Src/stm32f7xx_ll_usb.c ****   {
 910              		.loc 1 418 40 is_stmt 1 discriminator 2 view .LVU287
 911 00c6 0133     		adds	r3, r3, #1
 912              	.LVL54:
 913              	.L60:
 418:Drivers/STM32F7xx_HAL_Driver/Src/stm32f7xx_ll_usb.c ****   {
 914              		.loc 1 418 18 discriminator 1 view .LVU288
ARM GAS  /var/folders/8d/8djywmp92nx9cg9c5pcw0px00000gn/T//ccLp59Ij.s 			page 47


 418:Drivers/STM32F7xx_HAL_Driver/Src/stm32f7xx_ll_usb.c ****   {
 915              		.loc 1 418 23 is_stmt 0 discriminator 1 view .LVU289
 916 00c8 9DF81C10 		ldrb	r1, [sp, #28]	@ zero_extendqisi2
 418:Drivers/STM32F7xx_HAL_Driver/Src/stm32f7xx_ll_usb.c ****   {
 917              		.loc 1 418 18 discriminator 1 view .LVU290
 918 00cc 9942     		cmp	r1, r3
 919 00ce 10D9     		bls	.L76
 420:Drivers/STM32F7xx_HAL_Driver/Src/stm32f7xx_ll_usb.c ****     {
 920              		.loc 1 420 5 is_stmt 1 view .LVU291
 420:Drivers/STM32F7xx_HAL_Driver/Src/stm32f7xx_ll_usb.c ****     {
 921              		.loc 1 420 10 is_stmt 0 view .LVU292
 922 00d0 04EB4312 		add	r2, r4, r3, lsl #5
 923 00d4 02F51061 		add	r1, r2, #2304
 420:Drivers/STM32F7xx_HAL_Driver/Src/stm32f7xx_ll_usb.c ****     {
 924              		.loc 1 420 22 view .LVU293
 925 00d8 D2F80009 		ldr	r0, [r2, #2304]
 420:Drivers/STM32F7xx_HAL_Driver/Src/stm32f7xx_ll_usb.c ****     {
 926              		.loc 1 420 8 view .LVU294
 927 00dc 0028     		cmp	r0, #0
 928 00de E8DB     		blt	.L77
 433:Drivers/STM32F7xx_HAL_Driver/Src/stm32f7xx_ll_usb.c ****     }
 929              		.loc 1 433 7 is_stmt 1 view .LVU295
 433:Drivers/STM32F7xx_HAL_Driver/Src/stm32f7xx_ll_usb.c ****     }
 930              		.loc 1 433 29 is_stmt 0 view .LVU296
 931 00e0 0020     		movs	r0, #0
 932 00e2 C2F80009 		str	r0, [r2, #2304]
 933 00e6 E9E7     		b	.L63
 934              	.L62:
 428:Drivers/STM32F7xx_HAL_Driver/Src/stm32f7xx_ll_usb.c ****       }
 935              		.loc 1 428 9 is_stmt 1 view .LVU297
 428:Drivers/STM32F7xx_HAL_Driver/Src/stm32f7xx_ll_usb.c ****       }
 936              		.loc 1 428 31 is_stmt 0 view .LVU298
 937 00e8 4FF09040 		mov	r0, #1207959552
 938 00ec C2F80009 		str	r0, [r2, #2304]
 939 00f0 E4E7     		b	.L63
 940              	.L76:
 440:Drivers/STM32F7xx_HAL_Driver/Src/stm32f7xx_ll_usb.c ****   {
 941              		.loc 1 440 10 view .LVU299
 942 00f2 0023     		movs	r3, #0
 943              	.LVL55:
 440:Drivers/STM32F7xx_HAL_Driver/Src/stm32f7xx_ll_usb.c ****   {
 944              		.loc 1 440 10 view .LVU300
 945 00f4 0AE0     		b	.L65
 946              	.LVL56:
 947              	.L80:
 444:Drivers/STM32F7xx_HAL_Driver/Src/stm32f7xx_ll_usb.c ****       {
 948              		.loc 1 444 7 is_stmt 1 view .LVU301
 444:Drivers/STM32F7xx_HAL_Driver/Src/stm32f7xx_ll_usb.c ****       {
 949              		.loc 1 444 10 is_stmt 0 view .LVU302
 950 00f6 BBB1     		cbz	r3, .L78
 450:Drivers/STM32F7xx_HAL_Driver/Src/stm32f7xx_ll_usb.c ****       }
 951              		.loc 1 450 9 is_stmt 1 view .LVU303
 450:Drivers/STM32F7xx_HAL_Driver/Src/stm32f7xx_ll_usb.c ****       }
 952              		.loc 1 450 32 is_stmt 0 view .LVU304
 953 00f8 4FF09047 		mov	r7, #1207959552
 954 00fc C2F8007B 		str	r7, [r2, #2816]
 955              	.L68:
ARM GAS  /var/folders/8d/8djywmp92nx9cg9c5pcw0px00000gn/T//ccLp59Ij.s 			page 48


 458:Drivers/STM32F7xx_HAL_Driver/Src/stm32f7xx_ll_usb.c ****     USBx_OUTEP(i)->DOEPINT  = 0xFB7FU;
 956              		.loc 1 458 5 is_stmt 1 view .LVU305
 458:Drivers/STM32F7xx_HAL_Driver/Src/stm32f7xx_ll_usb.c ****     USBx_OUTEP(i)->DOEPINT  = 0xFB7FU;
 957              		.loc 1 458 29 is_stmt 0 view .LVU306
 958 0100 0022     		movs	r2, #0
 959 0102 0261     		str	r2, [r0, #16]
 459:Drivers/STM32F7xx_HAL_Driver/Src/stm32f7xx_ll_usb.c ****   }
 960              		.loc 1 459 5 is_stmt 1 view .LVU307
 459:Drivers/STM32F7xx_HAL_Driver/Src/stm32f7xx_ll_usb.c ****   }
 961              		.loc 1 459 29 is_stmt 0 view .LVU308
 962 0104 4FF67F32 		movw	r2, #64383
 963 0108 8260     		str	r2, [r0, #8]
 440:Drivers/STM32F7xx_HAL_Driver/Src/stm32f7xx_ll_usb.c ****   {
 964              		.loc 1 440 40 is_stmt 1 discriminator 2 view .LVU309
 965 010a 0133     		adds	r3, r3, #1
 966              	.LVL57:
 967              	.L65:
 440:Drivers/STM32F7xx_HAL_Driver/Src/stm32f7xx_ll_usb.c ****   {
 968              		.loc 1 440 18 discriminator 1 view .LVU310
 969 010c 9942     		cmp	r1, r3
 970 010e 10D9     		bls	.L79
 442:Drivers/STM32F7xx_HAL_Driver/Src/stm32f7xx_ll_usb.c ****     {
 971              		.loc 1 442 5 view .LVU311
 442:Drivers/STM32F7xx_HAL_Driver/Src/stm32f7xx_ll_usb.c ****     {
 972              		.loc 1 442 10 is_stmt 0 view .LVU312
 973 0110 04EB4312 		add	r2, r4, r3, lsl #5
 974 0114 02F53060 		add	r0, r2, #2816
 442:Drivers/STM32F7xx_HAL_Driver/Src/stm32f7xx_ll_usb.c ****     {
 975              		.loc 1 442 23 view .LVU313
 976 0118 D2F8007B 		ldr	r7, [r2, #2816]
 442:Drivers/STM32F7xx_HAL_Driver/Src/stm32f7xx_ll_usb.c ****     {
 977              		.loc 1 442 8 view .LVU314
 978 011c 002F     		cmp	r7, #0
 979 011e EADB     		blt	.L80
 455:Drivers/STM32F7xx_HAL_Driver/Src/stm32f7xx_ll_usb.c ****     }
 980              		.loc 1 455 7 is_stmt 1 view .LVU315
 455:Drivers/STM32F7xx_HAL_Driver/Src/stm32f7xx_ll_usb.c ****     }
 981              		.loc 1 455 30 is_stmt 0 view .LVU316
 982 0120 0027     		movs	r7, #0
 983 0122 C2F8007B 		str	r7, [r2, #2816]
 984 0126 EBE7     		b	.L68
 985              	.L78:
 446:Drivers/STM32F7xx_HAL_Driver/Src/stm32f7xx_ll_usb.c ****       }
 986              		.loc 1 446 9 is_stmt 1 view .LVU317
 446:Drivers/STM32F7xx_HAL_Driver/Src/stm32f7xx_ll_usb.c ****       }
 987              		.loc 1 446 32 is_stmt 0 view .LVU318
 988 0128 4FF00067 		mov	r7, #134217728
 989 012c C2F8007B 		str	r7, [r2, #2816]
 990 0130 E6E7     		b	.L68
 991              	.L79:
 462:Drivers/STM32F7xx_HAL_Driver/Src/stm32f7xx_ll_usb.c **** 
 992              		.loc 1 462 3 is_stmt 1 view .LVU319
 462:Drivers/STM32F7xx_HAL_Driver/Src/stm32f7xx_ll_usb.c **** 
 993              		.loc 1 462 14 is_stmt 0 view .LVU320
 994 0132 DCF81030 		ldr	r3, [ip, #16]
 995              	.LVL58:
 462:Drivers/STM32F7xx_HAL_Driver/Src/stm32f7xx_ll_usb.c **** 
ARM GAS  /var/folders/8d/8djywmp92nx9cg9c5pcw0px00000gn/T//ccLp59Ij.s 			page 49


 996              		.loc 1 462 24 view .LVU321
 997 0136 23F48073 		bic	r3, r3, #256
 998 013a CCF81030 		str	r3, [ip, #16]
 465:Drivers/STM32F7xx_HAL_Driver/Src/stm32f7xx_ll_usb.c **** 
 999              		.loc 1 465 3 is_stmt 1 view .LVU322
 465:Drivers/STM32F7xx_HAL_Driver/Src/stm32f7xx_ll_usb.c **** 
 1000              		.loc 1 465 17 is_stmt 0 view .LVU323
 1001 013e 0023     		movs	r3, #0
 1002 0140 A361     		str	r3, [r4, #24]
 468:Drivers/STM32F7xx_HAL_Driver/Src/stm32f7xx_ll_usb.c **** 
 1003              		.loc 1 468 3 is_stmt 1 view .LVU324
 468:Drivers/STM32F7xx_HAL_Driver/Src/stm32f7xx_ll_usb.c **** 
 1004              		.loc 1 468 17 is_stmt 0 view .LVU325
 1005 0142 6FF08043 		mvn	r3, #1073741824
 1006 0146 6361     		str	r3, [r4, #20]
 471:Drivers/STM32F7xx_HAL_Driver/Src/stm32f7xx_ll_usb.c ****   {
 1007              		.loc 1 471 3 is_stmt 1 view .LVU326
 471:Drivers/STM32F7xx_HAL_Driver/Src/stm32f7xx_ll_usb.c ****   {
 1008              		.loc 1 471 10 is_stmt 0 view .LVU327
 1009 0148 9DF81E30 		ldrb	r3, [sp, #30]	@ zero_extendqisi2
 471:Drivers/STM32F7xx_HAL_Driver/Src/stm32f7xx_ll_usb.c ****   {
 1010              		.loc 1 471 6 view .LVU328
 1011 014c 1BB9     		cbnz	r3, .L70
 473:Drivers/STM32F7xx_HAL_Driver/Src/stm32f7xx_ll_usb.c ****   }
 1012              		.loc 1 473 5 is_stmt 1 view .LVU329
 473:Drivers/STM32F7xx_HAL_Driver/Src/stm32f7xx_ll_usb.c ****   }
 1013              		.loc 1 473 9 is_stmt 0 view .LVU330
 1014 014e A369     		ldr	r3, [r4, #24]
 473:Drivers/STM32F7xx_HAL_Driver/Src/stm32f7xx_ll_usb.c ****   }
 1015              		.loc 1 473 19 view .LVU331
 1016 0150 43F01003 		orr	r3, r3, #16
 1017 0154 A361     		str	r3, [r4, #24]
 1018              	.L70:
 477:Drivers/STM32F7xx_HAL_Driver/Src/stm32f7xx_ll_usb.c ****                    USB_OTG_GINTMSK_ENUMDNEM | USB_OTG_GINTMSK_IEPINT |
 1019              		.loc 1 477 3 is_stmt 1 view .LVU332
 477:Drivers/STM32F7xx_HAL_Driver/Src/stm32f7xx_ll_usb.c ****                    USB_OTG_GINTMSK_ENUMDNEM | USB_OTG_GINTMSK_IEPINT |
 1020              		.loc 1 477 7 is_stmt 0 view .LVU333
 1021 0156 A269     		ldr	r2, [r4, #24]
 477:Drivers/STM32F7xx_HAL_Driver/Src/stm32f7xx_ll_usb.c ****                    USB_OTG_GINTMSK_ENUMDNEM | USB_OTG_GINTMSK_IEPINT |
 1022              		.loc 1 477 17 view .LVU334
 1023 0158 0A4B     		ldr	r3, .L82
 1024 015a 1343     		orrs	r3, r3, r2
 1025 015c A361     		str	r3, [r4, #24]
 482:Drivers/STM32F7xx_HAL_Driver/Src/stm32f7xx_ll_usb.c ****   {
 1026              		.loc 1 482 3 is_stmt 1 view .LVU335
 482:Drivers/STM32F7xx_HAL_Driver/Src/stm32f7xx_ll_usb.c ****   {
 1027              		.loc 1 482 10 is_stmt 0 view .LVU336
 1028 015e 9DF82230 		ldrb	r3, [sp, #34]	@ zero_extendqisi2
 482:Drivers/STM32F7xx_HAL_Driver/Src/stm32f7xx_ll_usb.c ****   {
 1029              		.loc 1 482 6 view .LVU337
 1030 0162 1BB1     		cbz	r3, .L71
 484:Drivers/STM32F7xx_HAL_Driver/Src/stm32f7xx_ll_usb.c ****   }
 1031              		.loc 1 484 5 is_stmt 1 view .LVU338
 484:Drivers/STM32F7xx_HAL_Driver/Src/stm32f7xx_ll_usb.c ****   }
 1032              		.loc 1 484 9 is_stmt 0 view .LVU339
 1033 0164 A369     		ldr	r3, [r4, #24]
 484:Drivers/STM32F7xx_HAL_Driver/Src/stm32f7xx_ll_usb.c ****   }
ARM GAS  /var/folders/8d/8djywmp92nx9cg9c5pcw0px00000gn/T//ccLp59Ij.s 			page 50


 1034              		.loc 1 484 19 view .LVU340
 1035 0166 43F00803 		orr	r3, r3, #8
 1036 016a A361     		str	r3, [r4, #24]
 1037              	.L71:
 487:Drivers/STM32F7xx_HAL_Driver/Src/stm32f7xx_ll_usb.c ****   {
 1038              		.loc 1 487 3 is_stmt 1 view .LVU341
 487:Drivers/STM32F7xx_HAL_Driver/Src/stm32f7xx_ll_usb.c ****   {
 1039              		.loc 1 487 6 is_stmt 0 view .LVU342
 1040 016c 012E     		cmp	r6, #1
 1041 016e 04D0     		beq	.L81
 1042              	.L72:
 492:Drivers/STM32F7xx_HAL_Driver/Src/stm32f7xx_ll_usb.c **** }
 1043              		.loc 1 492 3 is_stmt 1 view .LVU343
 493:Drivers/STM32F7xx_HAL_Driver/Src/stm32f7xx_ll_usb.c **** 
 1044              		.loc 1 493 1 is_stmt 0 view .LVU344
 1045 0170 2846     		mov	r0, r5
 1046 0172 BDE8F840 		pop	{r3, r4, r5, r6, r7, lr}
 1047              		.cfi_remember_state
 1048              		.cfi_restore 14
 1049              		.cfi_restore 7
 1050              		.cfi_restore 6
 1051              		.cfi_restore 5
 1052              		.cfi_restore 4
 1053              		.cfi_restore 3
 1054              		.cfi_def_cfa_offset 16
 1055              	.LVL59:
 493:Drivers/STM32F7xx_HAL_Driver/Src/stm32f7xx_ll_usb.c **** 
 1056              		.loc 1 493 1 view .LVU345
 1057 0176 04B0     		add	sp, sp, #16
 1058              		.cfi_def_cfa_offset 0
 1059 0178 7047     		bx	lr
 1060              	.LVL60:
 1061              	.L81:
 1062              		.cfi_restore_state
 489:Drivers/STM32F7xx_HAL_Driver/Src/stm32f7xx_ll_usb.c ****   }
 1063              		.loc 1 489 5 is_stmt 1 view .LVU346
 489:Drivers/STM32F7xx_HAL_Driver/Src/stm32f7xx_ll_usb.c ****   }
 1064              		.loc 1 489 9 is_stmt 0 view .LVU347
 1065 017a A269     		ldr	r2, [r4, #24]
 489:Drivers/STM32F7xx_HAL_Driver/Src/stm32f7xx_ll_usb.c ****   }
 1066              		.loc 1 489 19 view .LVU348
 1067 017c 024B     		ldr	r3, .L82+4
 1068 017e 1343     		orrs	r3, r3, r2
 1069 0180 A361     		str	r3, [r4, #24]
 1070 0182 F5E7     		b	.L72
 1071              	.L83:
 1072              		.align	2
 1073              	.L82:
 1074 0184 00383C80 		.word	-2143537152
 1075 0188 04000040 		.word	1073741828
 1076              		.cfi_endproc
 1077              	.LFE146:
 1079              		.section	.text.USB_GetDevSpeed,"ax",%progbits
 1080              		.align	1
 1081              		.global	USB_GetDevSpeed
 1082              		.syntax unified
 1083              		.thumb
ARM GAS  /var/folders/8d/8djywmp92nx9cg9c5pcw0px00000gn/T//ccLp59Ij.s 			page 51


 1084              		.thumb_func
 1086              	USB_GetDevSpeed:
 1087              	.LVL61:
 1088              	.LFB150:
 600:Drivers/STM32F7xx_HAL_Driver/Src/stm32f7xx_ll_usb.c ****   uint32_t USBx_BASE = (uint32_t)USBx;
 1089              		.loc 1 600 1 is_stmt 1 view -0
 1090              		.cfi_startproc
 1091              		@ args = 0, pretend = 0, frame = 0
 1092              		@ frame_needed = 0, uses_anonymous_args = 0
 1093              		@ link register save eliminated.
 601:Drivers/STM32F7xx_HAL_Driver/Src/stm32f7xx_ll_usb.c ****   uint8_t speed;
 1094              		.loc 1 601 3 view .LVU350
 602:Drivers/STM32F7xx_HAL_Driver/Src/stm32f7xx_ll_usb.c ****   uint32_t DevEnumSpeed = USBx_DEVICE->DSTS & USB_OTG_DSTS_ENUMSPD;
 1095              		.loc 1 602 3 view .LVU351
 603:Drivers/STM32F7xx_HAL_Driver/Src/stm32f7xx_ll_usb.c **** 
 1096              		.loc 1 603 3 view .LVU352
 603:Drivers/STM32F7xx_HAL_Driver/Src/stm32f7xx_ll_usb.c **** 
 1097              		.loc 1 603 38 is_stmt 0 view .LVU353
 1098 0000 D0F80838 		ldr	r3, [r0, #2056]
 603:Drivers/STM32F7xx_HAL_Driver/Src/stm32f7xx_ll_usb.c **** 
 1099              		.loc 1 603 12 view .LVU354
 1100 0004 03F00603 		and	r3, r3, #6
 1101              	.LVL62:
 605:Drivers/STM32F7xx_HAL_Driver/Src/stm32f7xx_ll_usb.c ****   {
 1102              		.loc 1 605 3 is_stmt 1 view .LVU355
 1103 0008 022B     		cmp	r3, #2
 1104 000a 04D0     		beq	.L86
 1105 000c 062B     		cmp	r3, #6
 1106 000e 04D0     		beq	.L87
 1107 0010 2BB9     		cbnz	r3, .L88
 603:Drivers/STM32F7xx_HAL_Driver/Src/stm32f7xx_ll_usb.c **** 
 1108              		.loc 1 603 12 is_stmt 0 view .LVU356
 1109 0012 0020     		movs	r0, #0
 1110              	.LVL63:
 603:Drivers/STM32F7xx_HAL_Driver/Src/stm32f7xx_ll_usb.c **** 
 1111              		.loc 1 603 12 view .LVU357
 1112 0014 7047     		bx	lr
 1113              	.LVL64:
 1114              	.L86:
 603:Drivers/STM32F7xx_HAL_Driver/Src/stm32f7xx_ll_usb.c **** 
 1115              		.loc 1 603 12 view .LVU358
 1116 0016 0220     		movs	r0, #2
 1117              	.LVL65:
 603:Drivers/STM32F7xx_HAL_Driver/Src/stm32f7xx_ll_usb.c **** 
 1118              		.loc 1 603 12 view .LVU359
 1119 0018 7047     		bx	lr
 1120              	.LVL66:
 1121              	.L87:
 603:Drivers/STM32F7xx_HAL_Driver/Src/stm32f7xx_ll_usb.c **** 
 1122              		.loc 1 603 12 view .LVU360
 1123 001a 0220     		movs	r0, #2
 1124              	.LVL67:
 603:Drivers/STM32F7xx_HAL_Driver/Src/stm32f7xx_ll_usb.c **** 
 1125              		.loc 1 603 12 view .LVU361
 1126 001c 7047     		bx	lr
 1127              	.LVL68:
 1128              	.L88:
ARM GAS  /var/folders/8d/8djywmp92nx9cg9c5pcw0px00000gn/T//ccLp59Ij.s 			page 52


 603:Drivers/STM32F7xx_HAL_Driver/Src/stm32f7xx_ll_usb.c **** 
 1129              		.loc 1 603 12 view .LVU362
 1130 001e 0F20     		movs	r0, #15
 1131              	.LVL69:
 619:Drivers/STM32F7xx_HAL_Driver/Src/stm32f7xx_ll_usb.c **** }
 1132              		.loc 1 619 3 is_stmt 1 view .LVU363
 620:Drivers/STM32F7xx_HAL_Driver/Src/stm32f7xx_ll_usb.c **** 
 1133              		.loc 1 620 1 is_stmt 0 view .LVU364
 1134 0020 7047     		bx	lr
 1135              		.cfi_endproc
 1136              	.LFE150:
 1138              		.section	.text.USB_ActivateEndpoint,"ax",%progbits
 1139              		.align	1
 1140              		.global	USB_ActivateEndpoint
 1141              		.syntax unified
 1142              		.thumb
 1143              		.thumb_func
 1145              	USB_ActivateEndpoint:
 1146              	.LVL70:
 1147              	.LFB151:
 629:Drivers/STM32F7xx_HAL_Driver/Src/stm32f7xx_ll_usb.c ****   uint32_t USBx_BASE = (uint32_t)USBx;
 1148              		.loc 1 629 1 is_stmt 1 view -0
 1149              		.cfi_startproc
 1150              		@ args = 0, pretend = 0, frame = 0
 1151              		@ frame_needed = 0, uses_anonymous_args = 0
 629:Drivers/STM32F7xx_HAL_Driver/Src/stm32f7xx_ll_usb.c ****   uint32_t USBx_BASE = (uint32_t)USBx;
 1152              		.loc 1 629 1 is_stmt 0 view .LVU366
 1153 0000 10B5     		push	{r4, lr}
 1154              		.cfi_def_cfa_offset 8
 1155              		.cfi_offset 4, -8
 1156              		.cfi_offset 14, -4
 630:Drivers/STM32F7xx_HAL_Driver/Src/stm32f7xx_ll_usb.c ****   uint32_t epnum = (uint32_t)ep->num;
 1157              		.loc 1 630 3 is_stmt 1 view .LVU367
 1158              	.LVL71:
 631:Drivers/STM32F7xx_HAL_Driver/Src/stm32f7xx_ll_usb.c **** 
 1159              		.loc 1 631 3 view .LVU368
 631:Drivers/STM32F7xx_HAL_Driver/Src/stm32f7xx_ll_usb.c **** 
 1160              		.loc 1 631 32 is_stmt 0 view .LVU369
 1161 0002 91F800C0 		ldrb	ip, [r1]	@ zero_extendqisi2
 1162              	.LVL72:
 633:Drivers/STM32F7xx_HAL_Driver/Src/stm32f7xx_ll_usb.c ****   {
 1163              		.loc 1 633 3 is_stmt 1 view .LVU370
 633:Drivers/STM32F7xx_HAL_Driver/Src/stm32f7xx_ll_usb.c ****   {
 1164              		.loc 1 633 9 is_stmt 0 view .LVU371
 1165 0006 4B78     		ldrb	r3, [r1, #1]	@ zero_extendqisi2
 633:Drivers/STM32F7xx_HAL_Driver/Src/stm32f7xx_ll_usb.c ****   {
 1166              		.loc 1 633 6 view .LVU372
 1167 0008 012B     		cmp	r3, #1
 1168 000a 21D0     		beq	.L93
 647:Drivers/STM32F7xx_HAL_Driver/Src/stm32f7xx_ll_usb.c **** 
 1169              		.loc 1 647 5 is_stmt 1 view .LVU373
 647:Drivers/STM32F7xx_HAL_Driver/Src/stm32f7xx_ll_usb.c **** 
 1170              		.loc 1 647 16 is_stmt 0 view .LVU374
 1171 000c 00F5006E 		add	lr, r0, #2048
 1172 0010 D0F81C38 		ldr	r3, [r0, #2076]
 647:Drivers/STM32F7xx_HAL_Driver/Src/stm32f7xx_ll_usb.c **** 
 1173              		.loc 1 647 82 view .LVU375
ARM GAS  /var/folders/8d/8djywmp92nx9cg9c5pcw0px00000gn/T//ccLp59Ij.s 			page 53


 1174 0014 0CF00F04 		and	r4, ip, #15
 647:Drivers/STM32F7xx_HAL_Driver/Src/stm32f7xx_ll_usb.c **** 
 1175              		.loc 1 647 55 view .LVU376
 1176 0018 0122     		movs	r2, #1
 1177 001a A240     		lsls	r2, r2, r4
 647:Drivers/STM32F7xx_HAL_Driver/Src/stm32f7xx_ll_usb.c **** 
 1178              		.loc 1 647 27 view .LVU377
 1179 001c 43EA0243 		orr	r3, r3, r2, lsl #16
 1180 0020 C0F81C38 		str	r3, [r0, #2076]
 649:Drivers/STM32F7xx_HAL_Driver/Src/stm32f7xx_ll_usb.c ****     {
 1181              		.loc 1 649 5 is_stmt 1 view .LVU378
 649:Drivers/STM32F7xx_HAL_Driver/Src/stm32f7xx_ll_usb.c ****     {
 1182              		.loc 1 649 11 is_stmt 0 view .LVU379
 1183 0024 00EB4C10 		add	r0, r0, ip, lsl #5
 1184              	.LVL73:
 649:Drivers/STM32F7xx_HAL_Driver/Src/stm32f7xx_ll_usb.c ****     {
 1185              		.loc 1 649 28 view .LVU380
 1186 0028 D0F8003B 		ldr	r3, [r0, #2816]
 649:Drivers/STM32F7xx_HAL_Driver/Src/stm32f7xx_ll_usb.c ****     {
 1187              		.loc 1 649 8 view .LVU381
 1188 002c 13F4004F 		tst	r3, #32768
 1189 0030 0CD1     		bne	.L91
 651:Drivers/STM32F7xx_HAL_Driver/Src/stm32f7xx_ll_usb.c ****                                     ((uint32_t)ep->type << 18) |
 1190              		.loc 1 651 7 is_stmt 1 view .LVU382
 651:Drivers/STM32F7xx_HAL_Driver/Src/stm32f7xx_ll_usb.c ****                                     ((uint32_t)ep->type << 18) |
 1191              		.loc 1 651 24 is_stmt 0 view .LVU383
 1192 0032 D0F8002B 		ldr	r2, [r0, #2816]
 651:Drivers/STM32F7xx_HAL_Driver/Src/stm32f7xx_ll_usb.c ****                                     ((uint32_t)ep->type << 18) |
 1193              		.loc 1 651 40 view .LVU384
 1194 0036 8B68     		ldr	r3, [r1, #8]
 651:Drivers/STM32F7xx_HAL_Driver/Src/stm32f7xx_ll_usb.c ****                                     ((uint32_t)ep->type << 18) |
 1195              		.loc 1 651 52 view .LVU385
 1196 0038 C3F30A03 		ubfx	r3, r3, #0, #11
 652:Drivers/STM32F7xx_HAL_Driver/Src/stm32f7xx_ll_usb.c ****                                     USB_OTG_DIEPCTL_SD0PID_SEVNFRM |
 1197              		.loc 1 652 50 view .LVU386
 1198 003c 0979     		ldrb	r1, [r1, #4]	@ zero_extendqisi2
 1199              	.LVL74:
 651:Drivers/STM32F7xx_HAL_Driver/Src/stm32f7xx_ll_usb.c ****                                     ((uint32_t)ep->type << 18) |
 1200              		.loc 1 651 77 view .LVU387
 1201 003e 43EA8143 		orr	r3, r3, r1, lsl #18
 651:Drivers/STM32F7xx_HAL_Driver/Src/stm32f7xx_ll_usb.c ****                                     ((uint32_t)ep->type << 18) |
 1202              		.loc 1 651 34 view .LVU388
 1203 0042 1A43     		orrs	r2, r2, r3
 1204 0044 134B     		ldr	r3, .L94
 1205 0046 1343     		orrs	r3, r3, r2
 1206 0048 C0F8003B 		str	r3, [r0, #2816]
 1207              	.LVL75:
 1208              	.L91:
 657:Drivers/STM32F7xx_HAL_Driver/Src/stm32f7xx_ll_usb.c **** }
 1209              		.loc 1 657 3 is_stmt 1 view .LVU389
 658:Drivers/STM32F7xx_HAL_Driver/Src/stm32f7xx_ll_usb.c **** 
 1210              		.loc 1 658 1 is_stmt 0 view .LVU390
 1211 004c 0020     		movs	r0, #0
 1212 004e 10BD     		pop	{r4, pc}
 1213              	.LVL76:
 1214              	.L93:
 635:Drivers/STM32F7xx_HAL_Driver/Src/stm32f7xx_ll_usb.c **** 
ARM GAS  /var/folders/8d/8djywmp92nx9cg9c5pcw0px00000gn/T//ccLp59Ij.s 			page 54


 1215              		.loc 1 635 5 is_stmt 1 view .LVU391
 635:Drivers/STM32F7xx_HAL_Driver/Src/stm32f7xx_ll_usb.c **** 
 1216              		.loc 1 635 16 is_stmt 0 view .LVU392
 1217 0050 D0F81C28 		ldr	r2, [r0, #2076]
 635:Drivers/STM32F7xx_HAL_Driver/Src/stm32f7xx_ll_usb.c **** 
 1218              		.loc 1 635 81 view .LVU393
 1219 0054 0CF00F0E 		and	lr, ip, #15
 635:Drivers/STM32F7xx_HAL_Driver/Src/stm32f7xx_ll_usb.c **** 
 1220              		.loc 1 635 54 view .LVU394
 1221 0058 03FA0EF3 		lsl	r3, r3, lr
 635:Drivers/STM32F7xx_HAL_Driver/Src/stm32f7xx_ll_usb.c **** 
 1222              		.loc 1 635 52 view .LVU395
 1223 005c 9BB2     		uxth	r3, r3
 635:Drivers/STM32F7xx_HAL_Driver/Src/stm32f7xx_ll_usb.c **** 
 1224              		.loc 1 635 27 view .LVU396
 1225 005e 1343     		orrs	r3, r3, r2
 1226 0060 C0F81C38 		str	r3, [r0, #2076]
 637:Drivers/STM32F7xx_HAL_Driver/Src/stm32f7xx_ll_usb.c ****     {
 1227              		.loc 1 637 5 is_stmt 1 view .LVU397
 637:Drivers/STM32F7xx_HAL_Driver/Src/stm32f7xx_ll_usb.c ****     {
 1228              		.loc 1 637 10 is_stmt 0 view .LVU398
 1229 0064 00EB4C10 		add	r0, r0, ip, lsl #5
 1230              	.LVL77:
 637:Drivers/STM32F7xx_HAL_Driver/Src/stm32f7xx_ll_usb.c ****     {
 1231              		.loc 1 637 26 view .LVU399
 1232 0068 D0F80039 		ldr	r3, [r0, #2304]
 637:Drivers/STM32F7xx_HAL_Driver/Src/stm32f7xx_ll_usb.c ****     {
 1233              		.loc 1 637 8 view .LVU400
 1234 006c 13F4004F 		tst	r3, #32768
 1235 0070 ECD1     		bne	.L91
 639:Drivers/STM32F7xx_HAL_Driver/Src/stm32f7xx_ll_usb.c ****                                    ((uint32_t)ep->type << 18) | (epnum << 22) |
 1236              		.loc 1 639 7 is_stmt 1 view .LVU401
 639:Drivers/STM32F7xx_HAL_Driver/Src/stm32f7xx_ll_usb.c ****                                    ((uint32_t)ep->type << 18) | (epnum << 22) |
 1237              		.loc 1 639 23 is_stmt 0 view .LVU402
 1238 0072 D0F80029 		ldr	r2, [r0, #2304]
 639:Drivers/STM32F7xx_HAL_Driver/Src/stm32f7xx_ll_usb.c ****                                    ((uint32_t)ep->type << 18) | (epnum << 22) |
 1239              		.loc 1 639 39 view .LVU403
 1240 0076 8B68     		ldr	r3, [r1, #8]
 639:Drivers/STM32F7xx_HAL_Driver/Src/stm32f7xx_ll_usb.c ****                                    ((uint32_t)ep->type << 18) | (epnum << 22) |
 1241              		.loc 1 639 51 view .LVU404
 1242 0078 C3F30A03 		ubfx	r3, r3, #0, #11
 640:Drivers/STM32F7xx_HAL_Driver/Src/stm32f7xx_ll_usb.c ****                                    USB_OTG_DIEPCTL_SD0PID_SEVNFRM |
 1243              		.loc 1 640 49 view .LVU405
 1244 007c 0979     		ldrb	r1, [r1, #4]	@ zero_extendqisi2
 1245              	.LVL78:
 639:Drivers/STM32F7xx_HAL_Driver/Src/stm32f7xx_ll_usb.c ****                                    ((uint32_t)ep->type << 18) | (epnum << 22) |
 1246              		.loc 1 639 76 view .LVU406
 1247 007e 43EA8143 		orr	r3, r3, r1, lsl #18
 640:Drivers/STM32F7xx_HAL_Driver/Src/stm32f7xx_ll_usb.c ****                                    USB_OTG_DIEPCTL_SD0PID_SEVNFRM |
 1248              		.loc 1 640 63 view .LVU407
 1249 0082 43EA8C53 		orr	r3, r3, ip, lsl #22
 639:Drivers/STM32F7xx_HAL_Driver/Src/stm32f7xx_ll_usb.c ****                                    ((uint32_t)ep->type << 18) | (epnum << 22) |
 1250              		.loc 1 639 33 view .LVU408
 1251 0086 1A43     		orrs	r2, r2, r3
 1252 0088 024B     		ldr	r3, .L94
 1253 008a 1343     		orrs	r3, r3, r2
 1254 008c C0F80039 		str	r3, [r0, #2304]
ARM GAS  /var/folders/8d/8djywmp92nx9cg9c5pcw0px00000gn/T//ccLp59Ij.s 			page 55


 1255 0090 DCE7     		b	.L91
 1256              	.L95:
 1257 0092 00BF     		.align	2
 1258              	.L94:
 1259 0094 00800010 		.word	268468224
 1260              		.cfi_endproc
 1261              	.LFE151:
 1263              		.section	.text.USB_ActivateDedicatedEndpoint,"ax",%progbits
 1264              		.align	1
 1265              		.global	USB_ActivateDedicatedEndpoint
 1266              		.syntax unified
 1267              		.thumb
 1268              		.thumb_func
 1270              	USB_ActivateDedicatedEndpoint:
 1271              	.LVL79:
 1272              	.LFB152:
 667:Drivers/STM32F7xx_HAL_Driver/Src/stm32f7xx_ll_usb.c ****   uint32_t USBx_BASE = (uint32_t)USBx;
 1273              		.loc 1 667 1 is_stmt 1 view -0
 1274              		.cfi_startproc
 1275              		@ args = 0, pretend = 0, frame = 0
 1276              		@ frame_needed = 0, uses_anonymous_args = 0
 1277              		@ link register save eliminated.
 667:Drivers/STM32F7xx_HAL_Driver/Src/stm32f7xx_ll_usb.c ****   uint32_t USBx_BASE = (uint32_t)USBx;
 1278              		.loc 1 667 1 is_stmt 0 view .LVU410
 1279 0000 30B4     		push	{r4, r5}
 1280              		.cfi_def_cfa_offset 8
 1281              		.cfi_offset 4, -8
 1282              		.cfi_offset 5, -4
 668:Drivers/STM32F7xx_HAL_Driver/Src/stm32f7xx_ll_usb.c ****   uint32_t epnum = (uint32_t)ep->num;
 1283              		.loc 1 668 3 is_stmt 1 view .LVU411
 1284              	.LVL80:
 669:Drivers/STM32F7xx_HAL_Driver/Src/stm32f7xx_ll_usb.c **** 
 1285              		.loc 1 669 3 view .LVU412
 669:Drivers/STM32F7xx_HAL_Driver/Src/stm32f7xx_ll_usb.c **** 
 1286              		.loc 1 669 32 is_stmt 0 view .LVU413
 1287 0002 0A78     		ldrb	r2, [r1]	@ zero_extendqisi2
 1288              	.LVL81:
 672:Drivers/STM32F7xx_HAL_Driver/Src/stm32f7xx_ll_usb.c ****   {
 1289              		.loc 1 672 3 is_stmt 1 view .LVU414
 672:Drivers/STM32F7xx_HAL_Driver/Src/stm32f7xx_ll_usb.c ****   {
 1290              		.loc 1 672 9 is_stmt 0 view .LVU415
 1291 0004 4B78     		ldrb	r3, [r1, #1]	@ zero_extendqisi2
 672:Drivers/STM32F7xx_HAL_Driver/Src/stm32f7xx_ll_usb.c ****   {
 1292              		.loc 1 672 6 view .LVU416
 1293 0006 012B     		cmp	r3, #1
 1294 0008 23D0     		beq	.L102
 686:Drivers/STM32F7xx_HAL_Driver/Src/stm32f7xx_ll_usb.c ****     {
 1295              		.loc 1 686 5 is_stmt 1 view .LVU417
 686:Drivers/STM32F7xx_HAL_Driver/Src/stm32f7xx_ll_usb.c ****     {
 1296              		.loc 1 686 11 is_stmt 0 view .LVU418
 1297 000a 00EB421C 		add	ip, r0, r2, lsl #5
 686:Drivers/STM32F7xx_HAL_Driver/Src/stm32f7xx_ll_usb.c ****     {
 1298              		.loc 1 686 28 view .LVU419
 1299 000e DCF8003B 		ldr	r3, [ip, #2816]
 686:Drivers/STM32F7xx_HAL_Driver/Src/stm32f7xx_ll_usb.c ****     {
 1300              		.loc 1 686 8 view .LVU420
 1301 0012 13F4004F 		tst	r3, #32768
ARM GAS  /var/folders/8d/8djywmp92nx9cg9c5pcw0px00000gn/T//ccLp59Ij.s 			page 56


 1302 0016 0ED1     		bne	.L100
 688:Drivers/STM32F7xx_HAL_Driver/Src/stm32f7xx_ll_usb.c ****                                     ((uint32_t)ep->type << 18) | (epnum << 22) |
 1303              		.loc 1 688 7 is_stmt 1 view .LVU421
 688:Drivers/STM32F7xx_HAL_Driver/Src/stm32f7xx_ll_usb.c ****                                     ((uint32_t)ep->type << 18) | (epnum << 22) |
 1304              		.loc 1 688 24 is_stmt 0 view .LVU422
 1305 0018 DCF8004B 		ldr	r4, [ip, #2816]
 688:Drivers/STM32F7xx_HAL_Driver/Src/stm32f7xx_ll_usb.c ****                                     ((uint32_t)ep->type << 18) | (epnum << 22) |
 1306              		.loc 1 688 40 view .LVU423
 1307 001c 8B68     		ldr	r3, [r1, #8]
 688:Drivers/STM32F7xx_HAL_Driver/Src/stm32f7xx_ll_usb.c ****                                     ((uint32_t)ep->type << 18) | (epnum << 22) |
 1308              		.loc 1 688 52 view .LVU424
 1309 001e C3F30A03 		ubfx	r3, r3, #0, #11
 689:Drivers/STM32F7xx_HAL_Driver/Src/stm32f7xx_ll_usb.c ****                                     USB_OTG_DOEPCTL_USBAEP;
 1310              		.loc 1 689 50 view .LVU425
 1311 0022 0D79     		ldrb	r5, [r1, #4]	@ zero_extendqisi2
 688:Drivers/STM32F7xx_HAL_Driver/Src/stm32f7xx_ll_usb.c ****                                     ((uint32_t)ep->type << 18) | (epnum << 22) |
 1312              		.loc 1 688 77 view .LVU426
 1313 0024 43EA8543 		orr	r3, r3, r5, lsl #18
 689:Drivers/STM32F7xx_HAL_Driver/Src/stm32f7xx_ll_usb.c ****                                     USB_OTG_DOEPCTL_USBAEP;
 1314              		.loc 1 689 64 view .LVU427
 1315 0028 43EA8253 		orr	r3, r3, r2, lsl #22
 688:Drivers/STM32F7xx_HAL_Driver/Src/stm32f7xx_ll_usb.c ****                                     ((uint32_t)ep->type << 18) | (epnum << 22) |
 1316              		.loc 1 688 34 view .LVU428
 1317 002c 2343     		orrs	r3, r3, r4
 1318 002e 43F40043 		orr	r3, r3, #32768
 1319 0032 CCF8003B 		str	r3, [ip, #2816]
 1320              	.L100:
 693:Drivers/STM32F7xx_HAL_Driver/Src/stm32f7xx_ll_usb.c ****   }
 1321              		.loc 1 693 5 is_stmt 1 view .LVU429
 693:Drivers/STM32F7xx_HAL_Driver/Src/stm32f7xx_ll_usb.c ****   }
 1322              		.loc 1 693 16 is_stmt 0 view .LVU430
 1323 0036 D0F83C38 		ldr	r3, [r0, #2108]
 693:Drivers/STM32F7xx_HAL_Driver/Src/stm32f7xx_ll_usb.c ****   }
 1324              		.loc 1 693 76 view .LVU431
 1325 003a 0978     		ldrb	r1, [r1]	@ zero_extendqisi2
 1326              	.LVL82:
 693:Drivers/STM32F7xx_HAL_Driver/Src/stm32f7xx_ll_usb.c ****   }
 1327              		.loc 1 693 82 view .LVU432
 1328 003c 01F00F01 		and	r1, r1, #15
 693:Drivers/STM32F7xx_HAL_Driver/Src/stm32f7xx_ll_usb.c ****   }
 1329              		.loc 1 693 55 view .LVU433
 1330 0040 0122     		movs	r2, #1
 1331              	.LVL83:
 693:Drivers/STM32F7xx_HAL_Driver/Src/stm32f7xx_ll_usb.c ****   }
 1332              		.loc 1 693 55 view .LVU434
 1333 0042 8A40     		lsls	r2, r2, r1
 693:Drivers/STM32F7xx_HAL_Driver/Src/stm32f7xx_ll_usb.c ****   }
 1334              		.loc 1 693 27 view .LVU435
 1335 0044 43EA0243 		orr	r3, r3, r2, lsl #16
 1336 0048 C0F83C38 		str	r3, [r0, #2108]
 1337              	.L99:
 696:Drivers/STM32F7xx_HAL_Driver/Src/stm32f7xx_ll_usb.c **** }
 1338              		.loc 1 696 3 is_stmt 1 view .LVU436
 697:Drivers/STM32F7xx_HAL_Driver/Src/stm32f7xx_ll_usb.c **** 
 1339              		.loc 1 697 1 is_stmt 0 view .LVU437
 1340 004c 0020     		movs	r0, #0
 1341              	.LVL84:
ARM GAS  /var/folders/8d/8djywmp92nx9cg9c5pcw0px00000gn/T//ccLp59Ij.s 			page 57


 697:Drivers/STM32F7xx_HAL_Driver/Src/stm32f7xx_ll_usb.c **** 
 1342              		.loc 1 697 1 view .LVU438
 1343 004e 30BC     		pop	{r4, r5}
 1344              		.cfi_remember_state
 1345              		.cfi_restore 5
 1346              		.cfi_restore 4
 1347              		.cfi_def_cfa_offset 0
 1348 0050 7047     		bx	lr
 1349              	.LVL85:
 1350              	.L102:
 1351              		.cfi_restore_state
 674:Drivers/STM32F7xx_HAL_Driver/Src/stm32f7xx_ll_usb.c ****     {
 1352              		.loc 1 674 5 is_stmt 1 view .LVU439
 674:Drivers/STM32F7xx_HAL_Driver/Src/stm32f7xx_ll_usb.c ****     {
 1353              		.loc 1 674 11 is_stmt 0 view .LVU440
 1354 0052 00EB4214 		add	r4, r0, r2, lsl #5
 674:Drivers/STM32F7xx_HAL_Driver/Src/stm32f7xx_ll_usb.c ****     {
 1355              		.loc 1 674 27 view .LVU441
 1356 0056 D4F80039 		ldr	r3, [r4, #2304]
 674:Drivers/STM32F7xx_HAL_Driver/Src/stm32f7xx_ll_usb.c ****     {
 1357              		.loc 1 674 8 view .LVU442
 1358 005a 13F4004F 		tst	r3, #32768
 1359 005e 10D1     		bne	.L98
 676:Drivers/STM32F7xx_HAL_Driver/Src/stm32f7xx_ll_usb.c ****                                    ((uint32_t)ep->type << 18) | (epnum << 22) |
 1360              		.loc 1 676 7 is_stmt 1 view .LVU443
 676:Drivers/STM32F7xx_HAL_Driver/Src/stm32f7xx_ll_usb.c ****                                    ((uint32_t)ep->type << 18) | (epnum << 22) |
 1361              		.loc 1 676 23 is_stmt 0 view .LVU444
 1362 0060 D4F80059 		ldr	r5, [r4, #2304]
 676:Drivers/STM32F7xx_HAL_Driver/Src/stm32f7xx_ll_usb.c ****                                    ((uint32_t)ep->type << 18) | (epnum << 22) |
 1363              		.loc 1 676 39 view .LVU445
 1364 0064 8B68     		ldr	r3, [r1, #8]
 676:Drivers/STM32F7xx_HAL_Driver/Src/stm32f7xx_ll_usb.c ****                                    ((uint32_t)ep->type << 18) | (epnum << 22) |
 1365              		.loc 1 676 51 view .LVU446
 1366 0066 C3F30A03 		ubfx	r3, r3, #0, #11
 677:Drivers/STM32F7xx_HAL_Driver/Src/stm32f7xx_ll_usb.c ****                                    USB_OTG_DIEPCTL_SD0PID_SEVNFRM |
 1367              		.loc 1 677 49 view .LVU447
 1368 006a 91F804C0 		ldrb	ip, [r1, #4]	@ zero_extendqisi2
 676:Drivers/STM32F7xx_HAL_Driver/Src/stm32f7xx_ll_usb.c ****                                    ((uint32_t)ep->type << 18) | (epnum << 22) |
 1369              		.loc 1 676 76 view .LVU448
 1370 006e 43EA8C43 		orr	r3, r3, ip, lsl #18
 677:Drivers/STM32F7xx_HAL_Driver/Src/stm32f7xx_ll_usb.c ****                                    USB_OTG_DIEPCTL_SD0PID_SEVNFRM |
 1371              		.loc 1 677 63 view .LVU449
 1372 0072 43EA8253 		orr	r3, r3, r2, lsl #22
 676:Drivers/STM32F7xx_HAL_Driver/Src/stm32f7xx_ll_usb.c ****                                    ((uint32_t)ep->type << 18) | (epnum << 22) |
 1373              		.loc 1 676 33 view .LVU450
 1374 0076 45EA0302 		orr	r2, r5, r3
 1375              	.LVL86:
 676:Drivers/STM32F7xx_HAL_Driver/Src/stm32f7xx_ll_usb.c ****                                    ((uint32_t)ep->type << 18) | (epnum << 22) |
 1376              		.loc 1 676 33 view .LVU451
 1377 007a 084B     		ldr	r3, .L103
 1378 007c 1343     		orrs	r3, r3, r2
 1379 007e C4F80039 		str	r3, [r4, #2304]
 1380              	.LVL87:
 1381              	.L98:
 682:Drivers/STM32F7xx_HAL_Driver/Src/stm32f7xx_ll_usb.c ****   }
 1382              		.loc 1 682 5 is_stmt 1 view .LVU452
 682:Drivers/STM32F7xx_HAL_Driver/Src/stm32f7xx_ll_usb.c ****   }
ARM GAS  /var/folders/8d/8djywmp92nx9cg9c5pcw0px00000gn/T//ccLp59Ij.s 			page 58


 1383              		.loc 1 682 16 is_stmt 0 view .LVU453
 1384 0082 D0F83C28 		ldr	r2, [r0, #2108]
 682:Drivers/STM32F7xx_HAL_Driver/Src/stm32f7xx_ll_usb.c ****   }
 1385              		.loc 1 682 75 view .LVU454
 1386 0086 0978     		ldrb	r1, [r1]	@ zero_extendqisi2
 1387              	.LVL88:
 682:Drivers/STM32F7xx_HAL_Driver/Src/stm32f7xx_ll_usb.c ****   }
 1388              		.loc 1 682 81 view .LVU455
 1389 0088 01F00F01 		and	r1, r1, #15
 682:Drivers/STM32F7xx_HAL_Driver/Src/stm32f7xx_ll_usb.c ****   }
 1390              		.loc 1 682 54 view .LVU456
 1391 008c 0123     		movs	r3, #1
 1392 008e 8B40     		lsls	r3, r3, r1
 682:Drivers/STM32F7xx_HAL_Driver/Src/stm32f7xx_ll_usb.c ****   }
 1393              		.loc 1 682 52 view .LVU457
 1394 0090 9BB2     		uxth	r3, r3
 682:Drivers/STM32F7xx_HAL_Driver/Src/stm32f7xx_ll_usb.c ****   }
 1395              		.loc 1 682 27 view .LVU458
 1396 0092 1343     		orrs	r3, r3, r2
 1397 0094 C0F83C38 		str	r3, [r0, #2108]
 1398 0098 D8E7     		b	.L99
 1399              	.L104:
 1400 009a 00BF     		.align	2
 1401              	.L103:
 1402 009c 00800010 		.word	268468224
 1403              		.cfi_endproc
 1404              	.LFE152:
 1406              		.section	.text.USB_DeactivateEndpoint,"ax",%progbits
 1407              		.align	1
 1408              		.global	USB_DeactivateEndpoint
 1409              		.syntax unified
 1410              		.thumb
 1411              		.thumb_func
 1413              	USB_DeactivateEndpoint:
 1414              	.LVL89:
 1415              	.LFB153:
 706:Drivers/STM32F7xx_HAL_Driver/Src/stm32f7xx_ll_usb.c ****   uint32_t USBx_BASE = (uint32_t)USBx;
 1416              		.loc 1 706 1 is_stmt 1 view -0
 1417              		.cfi_startproc
 1418              		@ args = 0, pretend = 0, frame = 0
 1419              		@ frame_needed = 0, uses_anonymous_args = 0
 1420              		@ link register save eliminated.
 706:Drivers/STM32F7xx_HAL_Driver/Src/stm32f7xx_ll_usb.c ****   uint32_t USBx_BASE = (uint32_t)USBx;
 1421              		.loc 1 706 1 is_stmt 0 view .LVU460
 1422 0000 30B4     		push	{r4, r5}
 1423              		.cfi_def_cfa_offset 8
 1424              		.cfi_offset 4, -8
 1425              		.cfi_offset 5, -4
 707:Drivers/STM32F7xx_HAL_Driver/Src/stm32f7xx_ll_usb.c ****   uint32_t epnum = (uint32_t)ep->num;
 1426              		.loc 1 707 3 is_stmt 1 view .LVU461
 1427              	.LVL90:
 708:Drivers/STM32F7xx_HAL_Driver/Src/stm32f7xx_ll_usb.c **** 
 1428              		.loc 1 708 3 view .LVU462
 708:Drivers/STM32F7xx_HAL_Driver/Src/stm32f7xx_ll_usb.c **** 
 1429              		.loc 1 708 32 is_stmt 0 view .LVU463
 1430 0002 0B78     		ldrb	r3, [r1]	@ zero_extendqisi2
 1431              	.LVL91:
ARM GAS  /var/folders/8d/8djywmp92nx9cg9c5pcw0px00000gn/T//ccLp59Ij.s 			page 59


 711:Drivers/STM32F7xx_HAL_Driver/Src/stm32f7xx_ll_usb.c ****   {
 1432              		.loc 1 711 3 is_stmt 1 view .LVU464
 711:Drivers/STM32F7xx_HAL_Driver/Src/stm32f7xx_ll_usb.c ****   {
 1433              		.loc 1 711 9 is_stmt 0 view .LVU465
 1434 0004 4A78     		ldrb	r2, [r1, #1]	@ zero_extendqisi2
 711:Drivers/STM32F7xx_HAL_Driver/Src/stm32f7xx_ll_usb.c ****   {
 1435              		.loc 1 711 6 view .LVU466
 1436 0006 012A     		cmp	r2, #1
 1437 0008 26D0     		beq	.L111
 729:Drivers/STM32F7xx_HAL_Driver/Src/stm32f7xx_ll_usb.c ****     {
 1438              		.loc 1 729 5 is_stmt 1 view .LVU467
 729:Drivers/STM32F7xx_HAL_Driver/Src/stm32f7xx_ll_usb.c ****     {
 1439              		.loc 1 729 10 is_stmt 0 view .LVU468
 1440 000a 00EB4313 		add	r3, r0, r3, lsl #5
 1441              	.LVL92:
 729:Drivers/STM32F7xx_HAL_Driver/Src/stm32f7xx_ll_usb.c ****     {
 1442              		.loc 1 729 27 view .LVU469
 1443 000e D3F8002B 		ldr	r2, [r3, #2816]
 729:Drivers/STM32F7xx_HAL_Driver/Src/stm32f7xx_ll_usb.c ****     {
 1444              		.loc 1 729 8 view .LVU470
 1445 0012 002A     		cmp	r2, #0
 1446 0014 52DB     		blt	.L112
 1447              	.LVL93:
 1448              	.L109:
 735:Drivers/STM32F7xx_HAL_Driver/Src/stm32f7xx_ll_usb.c ****     USBx_DEVICE->DAINTMSK &= ~(USB_OTG_DAINTMSK_OEPM & ((uint32_t)(1UL << (ep->num & EP_ADDR_MSK)) 
 1449              		.loc 1 735 5 is_stmt 1 view .LVU471
 735:Drivers/STM32F7xx_HAL_Driver/Src/stm32f7xx_ll_usb.c ****     USBx_DEVICE->DAINTMSK &= ~(USB_OTG_DAINTMSK_OEPM & ((uint32_t)(1UL << (ep->num & EP_ADDR_MSK)) 
 1450              		.loc 1 735 16 is_stmt 0 view .LVU472
 1451 0016 D0F83C48 		ldr	r4, [r0, #2108]
 735:Drivers/STM32F7xx_HAL_Driver/Src/stm32f7xx_ll_usb.c ****     USBx_DEVICE->DAINTMSK &= ~(USB_OTG_DAINTMSK_OEPM & ((uint32_t)(1UL << (ep->num & EP_ADDR_MSK)) 
 1452              		.loc 1 735 78 view .LVU473
 1453 001a 0A78     		ldrb	r2, [r1]	@ zero_extendqisi2
 735:Drivers/STM32F7xx_HAL_Driver/Src/stm32f7xx_ll_usb.c ****     USBx_DEVICE->DAINTMSK &= ~(USB_OTG_DAINTMSK_OEPM & ((uint32_t)(1UL << (ep->num & EP_ADDR_MSK)) 
 1454              		.loc 1 735 84 view .LVU474
 1455 001c 02F00F02 		and	r2, r2, #15
 735:Drivers/STM32F7xx_HAL_Driver/Src/stm32f7xx_ll_usb.c ****     USBx_DEVICE->DAINTMSK &= ~(USB_OTG_DAINTMSK_OEPM & ((uint32_t)(1UL << (ep->num & EP_ADDR_MSK)) 
 1456              		.loc 1 735 57 view .LVU475
 1457 0020 4FF0010C 		mov	ip, #1
 1458 0024 0CFA02F2 		lsl	r2, ip, r2
 735:Drivers/STM32F7xx_HAL_Driver/Src/stm32f7xx_ll_usb.c ****     USBx_DEVICE->DAINTMSK &= ~(USB_OTG_DAINTMSK_OEPM & ((uint32_t)(1UL << (ep->num & EP_ADDR_MSK)) 
 1459              		.loc 1 735 27 view .LVU476
 1460 0028 24EA0242 		bic	r2, r4, r2, lsl #16
 1461 002c C0F83C28 		str	r2, [r0, #2108]
 736:Drivers/STM32F7xx_HAL_Driver/Src/stm32f7xx_ll_usb.c ****     USBx_OUTEP(epnum)->DOEPCTL &= ~(USB_OTG_DOEPCTL_USBAEP |
 1462              		.loc 1 736 5 is_stmt 1 view .LVU477
 736:Drivers/STM32F7xx_HAL_Driver/Src/stm32f7xx_ll_usb.c ****     USBx_OUTEP(epnum)->DOEPCTL &= ~(USB_OTG_DOEPCTL_USBAEP |
 1463              		.loc 1 736 16 is_stmt 0 view .LVU478
 1464 0030 D0F81C28 		ldr	r2, [r0, #2076]
 736:Drivers/STM32F7xx_HAL_Driver/Src/stm32f7xx_ll_usb.c ****     USBx_OUTEP(epnum)->DOEPCTL &= ~(USB_OTG_DOEPCTL_USBAEP |
 1465              		.loc 1 736 78 view .LVU479
 1466 0034 0978     		ldrb	r1, [r1]	@ zero_extendqisi2
 1467              	.LVL94:
 736:Drivers/STM32F7xx_HAL_Driver/Src/stm32f7xx_ll_usb.c ****     USBx_OUTEP(epnum)->DOEPCTL &= ~(USB_OTG_DOEPCTL_USBAEP |
 1468              		.loc 1 736 84 view .LVU480
 1469 0036 01F00F01 		and	r1, r1, #15
 736:Drivers/STM32F7xx_HAL_Driver/Src/stm32f7xx_ll_usb.c ****     USBx_OUTEP(epnum)->DOEPCTL &= ~(USB_OTG_DOEPCTL_USBAEP |
 1470              		.loc 1 736 57 view .LVU481
ARM GAS  /var/folders/8d/8djywmp92nx9cg9c5pcw0px00000gn/T//ccLp59Ij.s 			page 60


 1471 003a 0CFA01FC 		lsl	ip, ip, r1
 736:Drivers/STM32F7xx_HAL_Driver/Src/stm32f7xx_ll_usb.c ****     USBx_OUTEP(epnum)->DOEPCTL &= ~(USB_OTG_DOEPCTL_USBAEP |
 1472              		.loc 1 736 27 view .LVU482
 1473 003e 22EA0C42 		bic	r2, r2, ip, lsl #16
 1474 0042 C0F81C28 		str	r2, [r0, #2076]
 737:Drivers/STM32F7xx_HAL_Driver/Src/stm32f7xx_ll_usb.c ****                                     USB_OTG_DOEPCTL_MPSIZ |
 1475              		.loc 1 737 5 is_stmt 1 view .LVU483
 737:Drivers/STM32F7xx_HAL_Driver/Src/stm32f7xx_ll_usb.c ****                                     USB_OTG_DOEPCTL_MPSIZ |
 1476              		.loc 1 737 22 is_stmt 0 view .LVU484
 1477 0046 D3F8001B 		ldr	r1, [r3, #2816]
 737:Drivers/STM32F7xx_HAL_Driver/Src/stm32f7xx_ll_usb.c ****                                     USB_OTG_DOEPCTL_MPSIZ |
 1478              		.loc 1 737 32 view .LVU485
 1479 004a 234A     		ldr	r2, .L114
 1480 004c 0A40     		ands	r2, r2, r1
 1481 004e C3F8002B 		str	r2, [r3, #2816]
 1482              	.L108:
 743:Drivers/STM32F7xx_HAL_Driver/Src/stm32f7xx_ll_usb.c **** }
 1483              		.loc 1 743 3 is_stmt 1 view .LVU486
 744:Drivers/STM32F7xx_HAL_Driver/Src/stm32f7xx_ll_usb.c **** 
 1484              		.loc 1 744 1 is_stmt 0 view .LVU487
 1485 0052 0020     		movs	r0, #0
 1486              	.LVL95:
 744:Drivers/STM32F7xx_HAL_Driver/Src/stm32f7xx_ll_usb.c **** 
 1487              		.loc 1 744 1 view .LVU488
 1488 0054 30BC     		pop	{r4, r5}
 1489              		.cfi_remember_state
 1490              		.cfi_restore 5
 1491              		.cfi_restore 4
 1492              		.cfi_def_cfa_offset 0
 1493 0056 7047     		bx	lr
 1494              	.LVL96:
 1495              	.L111:
 1496              		.cfi_restore_state
 713:Drivers/STM32F7xx_HAL_Driver/Src/stm32f7xx_ll_usb.c ****     {
 1497              		.loc 1 713 5 is_stmt 1 view .LVU489
 713:Drivers/STM32F7xx_HAL_Driver/Src/stm32f7xx_ll_usb.c ****     {
 1498              		.loc 1 713 10 is_stmt 0 view .LVU490
 1499 0058 00EB4313 		add	r3, r0, r3, lsl #5
 1500              	.LVL97:
 713:Drivers/STM32F7xx_HAL_Driver/Src/stm32f7xx_ll_usb.c ****     {
 1501              		.loc 1 713 26 view .LVU491
 1502 005c D3F80029 		ldr	r2, [r3, #2304]
 713:Drivers/STM32F7xx_HAL_Driver/Src/stm32f7xx_ll_usb.c ****     {
 1503              		.loc 1 713 8 view .LVU492
 1504 0060 002A     		cmp	r2, #0
 1505 0062 1EDB     		blt	.L113
 1506              	.LVL98:
 1507              	.L107:
 719:Drivers/STM32F7xx_HAL_Driver/Src/stm32f7xx_ll_usb.c ****     USBx_DEVICE->DAINTMSK &= ~(USB_OTG_DAINTMSK_IEPM & (uint32_t)(1UL << (ep->num & EP_ADDR_MSK)));
 1508              		.loc 1 719 5 is_stmt 1 view .LVU493
 719:Drivers/STM32F7xx_HAL_Driver/Src/stm32f7xx_ll_usb.c ****     USBx_DEVICE->DAINTMSK &= ~(USB_OTG_DAINTMSK_IEPM & (uint32_t)(1UL << (ep->num & EP_ADDR_MSK)));
 1509              		.loc 1 719 16 is_stmt 0 view .LVU494
 1510 0064 D0F83C58 		ldr	r5, [r0, #2108]
 719:Drivers/STM32F7xx_HAL_Driver/Src/stm32f7xx_ll_usb.c ****     USBx_DEVICE->DAINTMSK &= ~(USB_OTG_DAINTMSK_IEPM & (uint32_t)(1UL << (ep->num & EP_ADDR_MSK)));
 1511              		.loc 1 719 77 view .LVU495
 1512 0068 0A78     		ldrb	r2, [r1]	@ zero_extendqisi2
 719:Drivers/STM32F7xx_HAL_Driver/Src/stm32f7xx_ll_usb.c ****     USBx_DEVICE->DAINTMSK &= ~(USB_OTG_DAINTMSK_IEPM & (uint32_t)(1UL << (ep->num & EP_ADDR_MSK)));
ARM GAS  /var/folders/8d/8djywmp92nx9cg9c5pcw0px00000gn/T//ccLp59Ij.s 			page 61


 1513              		.loc 1 719 83 view .LVU496
 1514 006a 02F00F02 		and	r2, r2, #15
 719:Drivers/STM32F7xx_HAL_Driver/Src/stm32f7xx_ll_usb.c ****     USBx_DEVICE->DAINTMSK &= ~(USB_OTG_DAINTMSK_IEPM & (uint32_t)(1UL << (ep->num & EP_ADDR_MSK)));
 1515              		.loc 1 719 56 view .LVU497
 1516 006e 0124     		movs	r4, #1
 1517 0070 04FA02F2 		lsl	r2, r4, r2
 719:Drivers/STM32F7xx_HAL_Driver/Src/stm32f7xx_ll_usb.c ****     USBx_DEVICE->DAINTMSK &= ~(USB_OTG_DAINTMSK_IEPM & (uint32_t)(1UL << (ep->num & EP_ADDR_MSK)));
 1518              		.loc 1 719 54 view .LVU498
 1519 0074 92B2     		uxth	r2, r2
 719:Drivers/STM32F7xx_HAL_Driver/Src/stm32f7xx_ll_usb.c ****     USBx_DEVICE->DAINTMSK &= ~(USB_OTG_DAINTMSK_IEPM & (uint32_t)(1UL << (ep->num & EP_ADDR_MSK)));
 1520              		.loc 1 719 27 view .LVU499
 1521 0076 25EA0202 		bic	r2, r5, r2
 1522 007a C0F83C28 		str	r2, [r0, #2108]
 720:Drivers/STM32F7xx_HAL_Driver/Src/stm32f7xx_ll_usb.c ****     USBx_INEP(epnum)->DIEPCTL &= ~(USB_OTG_DIEPCTL_USBAEP |
 1523              		.loc 1 720 5 is_stmt 1 view .LVU500
 720:Drivers/STM32F7xx_HAL_Driver/Src/stm32f7xx_ll_usb.c ****     USBx_INEP(epnum)->DIEPCTL &= ~(USB_OTG_DIEPCTL_USBAEP |
 1524              		.loc 1 720 16 is_stmt 0 view .LVU501
 1525 007e D0F81C28 		ldr	r2, [r0, #2076]
 720:Drivers/STM32F7xx_HAL_Driver/Src/stm32f7xx_ll_usb.c ****     USBx_INEP(epnum)->DIEPCTL &= ~(USB_OTG_DIEPCTL_USBAEP |
 1526              		.loc 1 720 77 view .LVU502
 1527 0082 0978     		ldrb	r1, [r1]	@ zero_extendqisi2
 1528              	.LVL99:
 720:Drivers/STM32F7xx_HAL_Driver/Src/stm32f7xx_ll_usb.c ****     USBx_INEP(epnum)->DIEPCTL &= ~(USB_OTG_DIEPCTL_USBAEP |
 1529              		.loc 1 720 83 view .LVU503
 1530 0084 01F00F01 		and	r1, r1, #15
 720:Drivers/STM32F7xx_HAL_Driver/Src/stm32f7xx_ll_usb.c ****     USBx_INEP(epnum)->DIEPCTL &= ~(USB_OTG_DIEPCTL_USBAEP |
 1531              		.loc 1 720 56 view .LVU504
 1532 0088 8C40     		lsls	r4, r4, r1
 720:Drivers/STM32F7xx_HAL_Driver/Src/stm32f7xx_ll_usb.c ****     USBx_INEP(epnum)->DIEPCTL &= ~(USB_OTG_DIEPCTL_USBAEP |
 1533              		.loc 1 720 54 view .LVU505
 1534 008a A4B2     		uxth	r4, r4
 720:Drivers/STM32F7xx_HAL_Driver/Src/stm32f7xx_ll_usb.c ****     USBx_INEP(epnum)->DIEPCTL &= ~(USB_OTG_DIEPCTL_USBAEP |
 1535              		.loc 1 720 27 view .LVU506
 1536 008c 22EA0402 		bic	r2, r2, r4
 1537 0090 C0F81C28 		str	r2, [r0, #2076]
 721:Drivers/STM32F7xx_HAL_Driver/Src/stm32f7xx_ll_usb.c ****                                    USB_OTG_DIEPCTL_MPSIZ |
 1538              		.loc 1 721 5 is_stmt 1 view .LVU507
 721:Drivers/STM32F7xx_HAL_Driver/Src/stm32f7xx_ll_usb.c ****                                    USB_OTG_DIEPCTL_MPSIZ |
 1539              		.loc 1 721 21 is_stmt 0 view .LVU508
 1540 0094 D3F80019 		ldr	r1, [r3, #2304]
 721:Drivers/STM32F7xx_HAL_Driver/Src/stm32f7xx_ll_usb.c ****                                    USB_OTG_DIEPCTL_MPSIZ |
 1541              		.loc 1 721 31 view .LVU509
 1542 0098 104A     		ldr	r2, .L114+4
 1543 009a 0A40     		ands	r2, r2, r1
 1544 009c C3F80029 		str	r2, [r3, #2304]
 1545 00a0 D7E7     		b	.L108
 1546              	.LVL100:
 1547              	.L113:
 715:Drivers/STM32F7xx_HAL_Driver/Src/stm32f7xx_ll_usb.c ****       USBx_INEP(epnum)->DIEPCTL |= USB_OTG_DIEPCTL_EPDIS;
 1548              		.loc 1 715 7 is_stmt 1 view .LVU510
 715:Drivers/STM32F7xx_HAL_Driver/Src/stm32f7xx_ll_usb.c ****       USBx_INEP(epnum)->DIEPCTL |= USB_OTG_DIEPCTL_EPDIS;
 1549              		.loc 1 715 23 is_stmt 0 view .LVU511
 1550 00a2 D3F80029 		ldr	r2, [r3, #2304]
 715:Drivers/STM32F7xx_HAL_Driver/Src/stm32f7xx_ll_usb.c ****       USBx_INEP(epnum)->DIEPCTL |= USB_OTG_DIEPCTL_EPDIS;
 1551              		.loc 1 715 33 view .LVU512
 1552 00a6 42F00062 		orr	r2, r2, #134217728
 1553 00aa C3F80029 		str	r2, [r3, #2304]
ARM GAS  /var/folders/8d/8djywmp92nx9cg9c5pcw0px00000gn/T//ccLp59Ij.s 			page 62


 1554              	.LVL101:
 716:Drivers/STM32F7xx_HAL_Driver/Src/stm32f7xx_ll_usb.c ****     }
 1555              		.loc 1 716 7 is_stmt 1 view .LVU513
 716:Drivers/STM32F7xx_HAL_Driver/Src/stm32f7xx_ll_usb.c ****     }
 1556              		.loc 1 716 23 is_stmt 0 view .LVU514
 1557 00ae D3F80029 		ldr	r2, [r3, #2304]
 716:Drivers/STM32F7xx_HAL_Driver/Src/stm32f7xx_ll_usb.c ****     }
 1558              		.loc 1 716 33 view .LVU515
 1559 00b2 42F08042 		orr	r2, r2, #1073741824
 1560 00b6 C3F80029 		str	r2, [r3, #2304]
 1561 00ba D3E7     		b	.L107
 1562              	.LVL102:
 1563              	.L112:
 731:Drivers/STM32F7xx_HAL_Driver/Src/stm32f7xx_ll_usb.c ****       USBx_OUTEP(epnum)->DOEPCTL |= USB_OTG_DOEPCTL_EPDIS;
 1564              		.loc 1 731 7 is_stmt 1 view .LVU516
 731:Drivers/STM32F7xx_HAL_Driver/Src/stm32f7xx_ll_usb.c ****       USBx_OUTEP(epnum)->DOEPCTL |= USB_OTG_DOEPCTL_EPDIS;
 1565              		.loc 1 731 24 is_stmt 0 view .LVU517
 1566 00bc D3F8002B 		ldr	r2, [r3, #2816]
 731:Drivers/STM32F7xx_HAL_Driver/Src/stm32f7xx_ll_usb.c ****       USBx_OUTEP(epnum)->DOEPCTL |= USB_OTG_DOEPCTL_EPDIS;
 1567              		.loc 1 731 34 view .LVU518
 1568 00c0 42F00062 		orr	r2, r2, #134217728
 1569 00c4 C3F8002B 		str	r2, [r3, #2816]
 1570              	.LVL103:
 732:Drivers/STM32F7xx_HAL_Driver/Src/stm32f7xx_ll_usb.c ****     }
 1571              		.loc 1 732 7 is_stmt 1 view .LVU519
 732:Drivers/STM32F7xx_HAL_Driver/Src/stm32f7xx_ll_usb.c ****     }
 1572              		.loc 1 732 24 is_stmt 0 view .LVU520
 1573 00c8 D3F8002B 		ldr	r2, [r3, #2816]
 732:Drivers/STM32F7xx_HAL_Driver/Src/stm32f7xx_ll_usb.c ****     }
 1574              		.loc 1 732 34 view .LVU521
 1575 00cc 42F08042 		orr	r2, r2, #1073741824
 1576 00d0 C3F8002B 		str	r2, [r3, #2816]
 1577 00d4 9FE7     		b	.L109
 1578              	.L115:
 1579 00d6 00BF     		.align	2
 1580              	.L114:
 1581 00d8 0078F3EF 		.word	-269256704
 1582 00dc 007833EC 		.word	-332171264
 1583              		.cfi_endproc
 1584              	.LFE153:
 1586              		.section	.text.USB_DeactivateDedicatedEndpoint,"ax",%progbits
 1587              		.align	1
 1588              		.global	USB_DeactivateDedicatedEndpoint
 1589              		.syntax unified
 1590              		.thumb
 1591              		.thumb_func
 1593              	USB_DeactivateDedicatedEndpoint:
 1594              	.LVL104:
 1595              	.LFB154:
 753:Drivers/STM32F7xx_HAL_Driver/Src/stm32f7xx_ll_usb.c ****   uint32_t USBx_BASE = (uint32_t)USBx;
 1596              		.loc 1 753 1 is_stmt 1 view -0
 1597              		.cfi_startproc
 1598              		@ args = 0, pretend = 0, frame = 0
 1599              		@ frame_needed = 0, uses_anonymous_args = 0
 1600              		@ link register save eliminated.
 754:Drivers/STM32F7xx_HAL_Driver/Src/stm32f7xx_ll_usb.c ****   uint32_t epnum = (uint32_t)ep->num;
 1601              		.loc 1 754 3 view .LVU523
ARM GAS  /var/folders/8d/8djywmp92nx9cg9c5pcw0px00000gn/T//ccLp59Ij.s 			page 63


 755:Drivers/STM32F7xx_HAL_Driver/Src/stm32f7xx_ll_usb.c **** 
 1602              		.loc 1 755 3 view .LVU524
 755:Drivers/STM32F7xx_HAL_Driver/Src/stm32f7xx_ll_usb.c **** 
 1603              		.loc 1 755 32 is_stmt 0 view .LVU525
 1604 0000 0B78     		ldrb	r3, [r1]	@ zero_extendqisi2
 1605              	.LVL105:
 758:Drivers/STM32F7xx_HAL_Driver/Src/stm32f7xx_ll_usb.c ****   {
 1606              		.loc 1 758 3 is_stmt 1 view .LVU526
 758:Drivers/STM32F7xx_HAL_Driver/Src/stm32f7xx_ll_usb.c ****   {
 1607              		.loc 1 758 9 is_stmt 0 view .LVU527
 1608 0002 4A78     		ldrb	r2, [r1, #1]	@ zero_extendqisi2
 758:Drivers/STM32F7xx_HAL_Driver/Src/stm32f7xx_ll_usb.c ****   {
 1609              		.loc 1 758 6 view .LVU528
 1610 0004 012A     		cmp	r2, #1
 1611 0006 18D0     		beq	.L121
 771:Drivers/STM32F7xx_HAL_Driver/Src/stm32f7xx_ll_usb.c ****     {
 1612              		.loc 1 771 5 is_stmt 1 view .LVU529
 771:Drivers/STM32F7xx_HAL_Driver/Src/stm32f7xx_ll_usb.c ****     {
 1613              		.loc 1 771 10 is_stmt 0 view .LVU530
 1614 0008 00EB4313 		add	r3, r0, r3, lsl #5
 1615              	.LVL106:
 771:Drivers/STM32F7xx_HAL_Driver/Src/stm32f7xx_ll_usb.c ****     {
 1616              		.loc 1 771 27 view .LVU531
 1617 000c D3F8002B 		ldr	r2, [r3, #2816]
 771:Drivers/STM32F7xx_HAL_Driver/Src/stm32f7xx_ll_usb.c ****     {
 1618              		.loc 1 771 8 view .LVU532
 1619 0010 002A     		cmp	r2, #0
 1620 0012 38DB     		blt	.L122
 1621              	.LVL107:
 1622              	.L120:
 777:Drivers/STM32F7xx_HAL_Driver/Src/stm32f7xx_ll_usb.c ****     USBx_DEVICE->DAINTMSK &= ~(USB_OTG_DAINTMSK_OEPM & ((uint32_t)(1UL << (ep->num & EP_ADDR_MSK)) 
 1623              		.loc 1 777 5 is_stmt 1 view .LVU533
 777:Drivers/STM32F7xx_HAL_Driver/Src/stm32f7xx_ll_usb.c ****     USBx_DEVICE->DAINTMSK &= ~(USB_OTG_DAINTMSK_OEPM & ((uint32_t)(1UL << (ep->num & EP_ADDR_MSK)) 
 1624              		.loc 1 777 22 is_stmt 0 view .LVU534
 1625 0014 D3F8002B 		ldr	r2, [r3, #2816]
 777:Drivers/STM32F7xx_HAL_Driver/Src/stm32f7xx_ll_usb.c ****     USBx_DEVICE->DAINTMSK &= ~(USB_OTG_DAINTMSK_OEPM & ((uint32_t)(1UL << (ep->num & EP_ADDR_MSK)) 
 1626              		.loc 1 777 32 view .LVU535
 1627 0018 22F40042 		bic	r2, r2, #32768
 1628 001c C3F8002B 		str	r2, [r3, #2816]
 778:Drivers/STM32F7xx_HAL_Driver/Src/stm32f7xx_ll_usb.c ****   }
 1629              		.loc 1 778 5 is_stmt 1 view .LVU536
 778:Drivers/STM32F7xx_HAL_Driver/Src/stm32f7xx_ll_usb.c ****   }
 1630              		.loc 1 778 16 is_stmt 0 view .LVU537
 1631 0020 D0F81C38 		ldr	r3, [r0, #2076]
 778:Drivers/STM32F7xx_HAL_Driver/Src/stm32f7xx_ll_usb.c ****   }
 1632              		.loc 1 778 78 view .LVU538
 1633 0024 0978     		ldrb	r1, [r1]	@ zero_extendqisi2
 1634              	.LVL108:
 778:Drivers/STM32F7xx_HAL_Driver/Src/stm32f7xx_ll_usb.c ****   }
 1635              		.loc 1 778 84 view .LVU539
 1636 0026 01F00F01 		and	r1, r1, #15
 778:Drivers/STM32F7xx_HAL_Driver/Src/stm32f7xx_ll_usb.c ****   }
 1637              		.loc 1 778 57 view .LVU540
 1638 002a 0122     		movs	r2, #1
 1639 002c 8A40     		lsls	r2, r2, r1
 778:Drivers/STM32F7xx_HAL_Driver/Src/stm32f7xx_ll_usb.c ****   }
 1640              		.loc 1 778 27 view .LVU541
ARM GAS  /var/folders/8d/8djywmp92nx9cg9c5pcw0px00000gn/T//ccLp59Ij.s 			page 64


 1641 002e 23EA0243 		bic	r3, r3, r2, lsl #16
 1642 0032 C0F81C38 		str	r3, [r0, #2076]
 1643              	.L119:
 781:Drivers/STM32F7xx_HAL_Driver/Src/stm32f7xx_ll_usb.c **** }
 1644              		.loc 1 781 3 is_stmt 1 view .LVU542
 782:Drivers/STM32F7xx_HAL_Driver/Src/stm32f7xx_ll_usb.c **** 
 1645              		.loc 1 782 1 is_stmt 0 view .LVU543
 1646 0036 0020     		movs	r0, #0
 1647              	.LVL109:
 782:Drivers/STM32F7xx_HAL_Driver/Src/stm32f7xx_ll_usb.c **** 
 1648              		.loc 1 782 1 view .LVU544
 1649 0038 7047     		bx	lr
 1650              	.LVL110:
 1651              	.L121:
 760:Drivers/STM32F7xx_HAL_Driver/Src/stm32f7xx_ll_usb.c ****     {
 1652              		.loc 1 760 5 is_stmt 1 view .LVU545
 760:Drivers/STM32F7xx_HAL_Driver/Src/stm32f7xx_ll_usb.c ****     {
 1653              		.loc 1 760 10 is_stmt 0 view .LVU546
 1654 003a 00EB4313 		add	r3, r0, r3, lsl #5
 1655              	.LVL111:
 760:Drivers/STM32F7xx_HAL_Driver/Src/stm32f7xx_ll_usb.c ****     {
 1656              		.loc 1 760 26 view .LVU547
 1657 003e D3F80029 		ldr	r2, [r3, #2304]
 760:Drivers/STM32F7xx_HAL_Driver/Src/stm32f7xx_ll_usb.c ****     {
 1658              		.loc 1 760 8 view .LVU548
 1659 0042 002A     		cmp	r2, #0
 1660 0044 12DB     		blt	.L123
 1661              	.LVL112:
 1662              	.L118:
 766:Drivers/STM32F7xx_HAL_Driver/Src/stm32f7xx_ll_usb.c ****     USBx_DEVICE->DAINTMSK &= ~(USB_OTG_DAINTMSK_IEPM & (uint32_t)(1UL << (ep->num & EP_ADDR_MSK)));
 1663              		.loc 1 766 5 is_stmt 1 view .LVU549
 766:Drivers/STM32F7xx_HAL_Driver/Src/stm32f7xx_ll_usb.c ****     USBx_DEVICE->DAINTMSK &= ~(USB_OTG_DAINTMSK_IEPM & (uint32_t)(1UL << (ep->num & EP_ADDR_MSK)));
 1664              		.loc 1 766 21 is_stmt 0 view .LVU550
 1665 0046 D3F80029 		ldr	r2, [r3, #2304]
 766:Drivers/STM32F7xx_HAL_Driver/Src/stm32f7xx_ll_usb.c ****     USBx_DEVICE->DAINTMSK &= ~(USB_OTG_DAINTMSK_IEPM & (uint32_t)(1UL << (ep->num & EP_ADDR_MSK)));
 1666              		.loc 1 766 31 view .LVU551
 1667 004a 22F40042 		bic	r2, r2, #32768
 1668 004e C3F80029 		str	r2, [r3, #2304]
 767:Drivers/STM32F7xx_HAL_Driver/Src/stm32f7xx_ll_usb.c ****   }
 1669              		.loc 1 767 5 is_stmt 1 view .LVU552
 767:Drivers/STM32F7xx_HAL_Driver/Src/stm32f7xx_ll_usb.c ****   }
 1670              		.loc 1 767 16 is_stmt 0 view .LVU553
 1671 0052 D0F81C28 		ldr	r2, [r0, #2076]
 767:Drivers/STM32F7xx_HAL_Driver/Src/stm32f7xx_ll_usb.c ****   }
 1672              		.loc 1 767 77 view .LVU554
 1673 0056 0978     		ldrb	r1, [r1]	@ zero_extendqisi2
 1674              	.LVL113:
 767:Drivers/STM32F7xx_HAL_Driver/Src/stm32f7xx_ll_usb.c ****   }
 1675              		.loc 1 767 83 view .LVU555
 1676 0058 01F00F01 		and	r1, r1, #15
 767:Drivers/STM32F7xx_HAL_Driver/Src/stm32f7xx_ll_usb.c ****   }
 1677              		.loc 1 767 56 view .LVU556
 1678 005c 0123     		movs	r3, #1
 1679 005e 8B40     		lsls	r3, r3, r1
 767:Drivers/STM32F7xx_HAL_Driver/Src/stm32f7xx_ll_usb.c ****   }
 1680              		.loc 1 767 54 view .LVU557
 1681 0060 9BB2     		uxth	r3, r3
ARM GAS  /var/folders/8d/8djywmp92nx9cg9c5pcw0px00000gn/T//ccLp59Ij.s 			page 65


 767:Drivers/STM32F7xx_HAL_Driver/Src/stm32f7xx_ll_usb.c ****   }
 1682              		.loc 1 767 27 view .LVU558
 1683 0062 22EA0303 		bic	r3, r2, r3
 1684 0066 C0F81C38 		str	r3, [r0, #2076]
 1685 006a E4E7     		b	.L119
 1686              	.LVL114:
 1687              	.L123:
 762:Drivers/STM32F7xx_HAL_Driver/Src/stm32f7xx_ll_usb.c ****       USBx_INEP(epnum)->DIEPCTL  |= USB_OTG_DIEPCTL_EPDIS;
 1688              		.loc 1 762 7 is_stmt 1 view .LVU559
 762:Drivers/STM32F7xx_HAL_Driver/Src/stm32f7xx_ll_usb.c ****       USBx_INEP(epnum)->DIEPCTL  |= USB_OTG_DIEPCTL_EPDIS;
 1689              		.loc 1 762 23 is_stmt 0 view .LVU560
 1690 006c D3F80029 		ldr	r2, [r3, #2304]
 762:Drivers/STM32F7xx_HAL_Driver/Src/stm32f7xx_ll_usb.c ****       USBx_INEP(epnum)->DIEPCTL  |= USB_OTG_DIEPCTL_EPDIS;
 1691              		.loc 1 762 34 view .LVU561
 1692 0070 42F00062 		orr	r2, r2, #134217728
 1693 0074 C3F80029 		str	r2, [r3, #2304]
 1694              	.LVL115:
 763:Drivers/STM32F7xx_HAL_Driver/Src/stm32f7xx_ll_usb.c ****     }
 1695              		.loc 1 763 7 is_stmt 1 view .LVU562
 763:Drivers/STM32F7xx_HAL_Driver/Src/stm32f7xx_ll_usb.c ****     }
 1696              		.loc 1 763 23 is_stmt 0 view .LVU563
 1697 0078 D3F80029 		ldr	r2, [r3, #2304]
 763:Drivers/STM32F7xx_HAL_Driver/Src/stm32f7xx_ll_usb.c ****     }
 1698              		.loc 1 763 34 view .LVU564
 1699 007c 42F08042 		orr	r2, r2, #1073741824
 1700 0080 C3F80029 		str	r2, [r3, #2304]
 1701 0084 DFE7     		b	.L118
 1702              	.LVL116:
 1703              	.L122:
 773:Drivers/STM32F7xx_HAL_Driver/Src/stm32f7xx_ll_usb.c ****       USBx_OUTEP(epnum)->DOEPCTL  |= USB_OTG_DOEPCTL_EPDIS;
 1704              		.loc 1 773 7 is_stmt 1 view .LVU565
 773:Drivers/STM32F7xx_HAL_Driver/Src/stm32f7xx_ll_usb.c ****       USBx_OUTEP(epnum)->DOEPCTL  |= USB_OTG_DOEPCTL_EPDIS;
 1705              		.loc 1 773 24 is_stmt 0 view .LVU566
 1706 0086 D3F8002B 		ldr	r2, [r3, #2816]
 773:Drivers/STM32F7xx_HAL_Driver/Src/stm32f7xx_ll_usb.c ****       USBx_OUTEP(epnum)->DOEPCTL  |= USB_OTG_DOEPCTL_EPDIS;
 1707              		.loc 1 773 35 view .LVU567
 1708 008a 42F00062 		orr	r2, r2, #134217728
 1709 008e C3F8002B 		str	r2, [r3, #2816]
 1710              	.LVL117:
 774:Drivers/STM32F7xx_HAL_Driver/Src/stm32f7xx_ll_usb.c ****     }
 1711              		.loc 1 774 7 is_stmt 1 view .LVU568
 774:Drivers/STM32F7xx_HAL_Driver/Src/stm32f7xx_ll_usb.c ****     }
 1712              		.loc 1 774 24 is_stmt 0 view .LVU569
 1713 0092 D3F8002B 		ldr	r2, [r3, #2816]
 774:Drivers/STM32F7xx_HAL_Driver/Src/stm32f7xx_ll_usb.c ****     }
 1714              		.loc 1 774 35 view .LVU570
 1715 0096 42F08042 		orr	r2, r2, #1073741824
 1716 009a C3F8002B 		str	r2, [r3, #2816]
 1717 009e B9E7     		b	.L120
 1718              		.cfi_endproc
 1719              	.LFE154:
 1721              		.section	.text.USB_EPStopXfer,"ax",%progbits
 1722              		.align	1
 1723              		.global	USB_EPStopXfer
 1724              		.syntax unified
 1725              		.thumb
 1726              		.thumb_func
ARM GAS  /var/folders/8d/8djywmp92nx9cg9c5pcw0px00000gn/T//ccLp59Ij.s 			page 66


 1728              	USB_EPStopXfer:
 1729              	.LVL118:
 1730              	.LFB156:
 967:Drivers/STM32F7xx_HAL_Driver/Src/stm32f7xx_ll_usb.c ****   __IO uint32_t count = 0U;
 1731              		.loc 1 967 1 is_stmt 1 view -0
 1732              		.cfi_startproc
 1733              		@ args = 0, pretend = 0, frame = 8
 1734              		@ frame_needed = 0, uses_anonymous_args = 0
 1735              		@ link register save eliminated.
 967:Drivers/STM32F7xx_HAL_Driver/Src/stm32f7xx_ll_usb.c ****   __IO uint32_t count = 0U;
 1736              		.loc 1 967 1 is_stmt 0 view .LVU572
 1737 0000 10B4     		push	{r4}
 1738              		.cfi_def_cfa_offset 4
 1739              		.cfi_offset 4, -4
 1740 0002 83B0     		sub	sp, sp, #12
 1741              		.cfi_def_cfa_offset 16
 1742 0004 0246     		mov	r2, r0
 968:Drivers/STM32F7xx_HAL_Driver/Src/stm32f7xx_ll_usb.c ****   HAL_StatusTypeDef ret = HAL_OK;
 1743              		.loc 1 968 3 is_stmt 1 view .LVU573
 968:Drivers/STM32F7xx_HAL_Driver/Src/stm32f7xx_ll_usb.c ****   HAL_StatusTypeDef ret = HAL_OK;
 1744              		.loc 1 968 17 is_stmt 0 view .LVU574
 1745 0006 0023     		movs	r3, #0
 1746 0008 0193     		str	r3, [sp, #4]
 969:Drivers/STM32F7xx_HAL_Driver/Src/stm32f7xx_ll_usb.c ****   uint32_t USBx_BASE = (uint32_t)USBx;
 1747              		.loc 1 969 3 is_stmt 1 view .LVU575
 1748              	.LVL119:
 970:Drivers/STM32F7xx_HAL_Driver/Src/stm32f7xx_ll_usb.c **** 
 1749              		.loc 1 970 3 view .LVU576
 973:Drivers/STM32F7xx_HAL_Driver/Src/stm32f7xx_ll_usb.c ****   {
 1750              		.loc 1 973 3 view .LVU577
 973:Drivers/STM32F7xx_HAL_Driver/Src/stm32f7xx_ll_usb.c ****   {
 1751              		.loc 1 973 9 is_stmt 0 view .LVU578
 1752 000a 4878     		ldrb	r0, [r1, #1]	@ zero_extendqisi2
 1753              	.LVL120:
 973:Drivers/STM32F7xx_HAL_Driver/Src/stm32f7xx_ll_usb.c ****   {
 1754              		.loc 1 973 6 view .LVU579
 1755 000c 0128     		cmp	r0, #1
 1756 000e 0BD0     		beq	.L133
 995:Drivers/STM32F7xx_HAL_Driver/Src/stm32f7xx_ll_usb.c ****     {
 1757              		.loc 1 995 5 is_stmt 1 view .LVU580
 995:Drivers/STM32F7xx_HAL_Driver/Src/stm32f7xx_ll_usb.c ****     {
 1758              		.loc 1 995 11 is_stmt 0 view .LVU581
 1759 0010 0B78     		ldrb	r3, [r1]	@ zero_extendqisi2
 1760 0012 02EB4313 		add	r3, r2, r3, lsl #5
 995:Drivers/STM32F7xx_HAL_Driver/Src/stm32f7xx_ll_usb.c ****     {
 1761              		.loc 1 995 30 view .LVU582
 1762 0016 D3F8000B 		ldr	r0, [r3, #2816]
 995:Drivers/STM32F7xx_HAL_Driver/Src/stm32f7xx_ll_usb.c ****     {
 1763              		.loc 1 995 8 view .LVU583
 1764 001a 0028     		cmp	r0, #0
 1765 001c 2DDB     		blt	.L134
 969:Drivers/STM32F7xx_HAL_Driver/Src/stm32f7xx_ll_usb.c ****   uint32_t USBx_BASE = (uint32_t)USBx;
 1766              		.loc 1 969 21 view .LVU584
 1767 001e 0020     		movs	r0, #0
 1768              	.L126:
 1769              	.LVL121:
1013:Drivers/STM32F7xx_HAL_Driver/Src/stm32f7xx_ll_usb.c **** }
ARM GAS  /var/folders/8d/8djywmp92nx9cg9c5pcw0px00000gn/T//ccLp59Ij.s 			page 67


 1770              		.loc 1 1013 3 is_stmt 1 view .LVU585
1014:Drivers/STM32F7xx_HAL_Driver/Src/stm32f7xx_ll_usb.c **** 
 1771              		.loc 1 1014 1 is_stmt 0 view .LVU586
 1772 0020 03B0     		add	sp, sp, #12
 1773              		.cfi_remember_state
 1774              		.cfi_def_cfa_offset 4
 1775              		@ sp needed
 1776 0022 5DF8044B 		ldr	r4, [sp], #4
 1777              		.cfi_restore 4
 1778              		.cfi_def_cfa_offset 0
 1779 0026 7047     		bx	lr
 1780              	.LVL122:
 1781              	.L133:
 1782              		.cfi_restore_state
 976:Drivers/STM32F7xx_HAL_Driver/Src/stm32f7xx_ll_usb.c ****     {
 1783              		.loc 1 976 5 is_stmt 1 view .LVU587
 976:Drivers/STM32F7xx_HAL_Driver/Src/stm32f7xx_ll_usb.c ****     {
 1784              		.loc 1 976 11 is_stmt 0 view .LVU588
 1785 0028 0B78     		ldrb	r3, [r1]	@ zero_extendqisi2
 1786 002a 02EB4313 		add	r3, r2, r3, lsl #5
 976:Drivers/STM32F7xx_HAL_Driver/Src/stm32f7xx_ll_usb.c ****     {
 1787              		.loc 1 976 29 view .LVU589
 1788 002e D3F80049 		ldr	r4, [r3, #2304]
 976:Drivers/STM32F7xx_HAL_Driver/Src/stm32f7xx_ll_usb.c ****     {
 1789              		.loc 1 976 8 view .LVU590
 1790 0032 002C     		cmp	r4, #0
 1791 0034 01DB     		blt	.L135
 969:Drivers/STM32F7xx_HAL_Driver/Src/stm32f7xx_ll_usb.c ****   uint32_t USBx_BASE = (uint32_t)USBx;
 1792              		.loc 1 969 21 view .LVU591
 1793 0036 0020     		movs	r0, #0
 1794 0038 F2E7     		b	.L126
 1795              	.L135:
 978:Drivers/STM32F7xx_HAL_Driver/Src/stm32f7xx_ll_usb.c ****       USBx_INEP(ep->num)->DIEPCTL |= (USB_OTG_DIEPCTL_EPDIS);
 1796              		.loc 1 978 7 is_stmt 1 view .LVU592
 978:Drivers/STM32F7xx_HAL_Driver/Src/stm32f7xx_ll_usb.c ****       USBx_INEP(ep->num)->DIEPCTL |= (USB_OTG_DIEPCTL_EPDIS);
 1797              		.loc 1 978 25 is_stmt 0 view .LVU593
 1798 003a D3F80049 		ldr	r4, [r3, #2304]
 978:Drivers/STM32F7xx_HAL_Driver/Src/stm32f7xx_ll_usb.c ****       USBx_INEP(ep->num)->DIEPCTL |= (USB_OTG_DIEPCTL_EPDIS);
 1799              		.loc 1 978 35 view .LVU594
 1800 003e 44F00064 		orr	r4, r4, #134217728
 1801 0042 C3F80049 		str	r4, [r3, #2304]
 979:Drivers/STM32F7xx_HAL_Driver/Src/stm32f7xx_ll_usb.c **** 
 1802              		.loc 1 979 7 is_stmt 1 view .LVU595
 1803 0046 0B78     		ldrb	r3, [r1]	@ zero_extendqisi2
 979:Drivers/STM32F7xx_HAL_Driver/Src/stm32f7xx_ll_usb.c **** 
 1804              		.loc 1 979 25 is_stmt 0 view .LVU596
 1805 0048 02EB4313 		add	r3, r2, r3, lsl #5
 1806 004c D3F80049 		ldr	r4, [r3, #2304]
 979:Drivers/STM32F7xx_HAL_Driver/Src/stm32f7xx_ll_usb.c **** 
 1807              		.loc 1 979 35 view .LVU597
 1808 0050 44F08044 		orr	r4, r4, #1073741824
 1809 0054 C3F80049 		str	r4, [r3, #2304]
 1810              	.L127:
 981:Drivers/STM32F7xx_HAL_Driver/Src/stm32f7xx_ll_usb.c ****       {
 1811              		.loc 1 981 7 is_stmt 1 view .LVU598
 983:Drivers/STM32F7xx_HAL_Driver/Src/stm32f7xx_ll_usb.c **** 
 1812              		.loc 1 983 9 view .LVU599
ARM GAS  /var/folders/8d/8djywmp92nx9cg9c5pcw0px00000gn/T//ccLp59Ij.s 			page 68


 983:Drivers/STM32F7xx_HAL_Driver/Src/stm32f7xx_ll_usb.c **** 
 1813              		.loc 1 983 14 is_stmt 0 view .LVU600
 1814 0058 019B     		ldr	r3, [sp, #4]
 1815 005a 0133     		adds	r3, r3, #1
 1816 005c 0193     		str	r3, [sp, #4]
 985:Drivers/STM32F7xx_HAL_Driver/Src/stm32f7xx_ll_usb.c ****         {
 1817              		.loc 1 985 9 is_stmt 1 view .LVU601
 985:Drivers/STM32F7xx_HAL_Driver/Src/stm32f7xx_ll_usb.c ****         {
 1818              		.loc 1 985 19 is_stmt 0 view .LVU602
 1819 005e 019C     		ldr	r4, [sp, #4]
 985:Drivers/STM32F7xx_HAL_Driver/Src/stm32f7xx_ll_usb.c ****         {
 1820              		.loc 1 985 12 view .LVU603
 1821 0060 42F21073 		movw	r3, #10000
 1822 0064 9C42     		cmp	r4, r3
 1823 0066 DBD8     		bhi	.L126
 990:Drivers/STM32F7xx_HAL_Driver/Src/stm32f7xx_ll_usb.c ****     }
 1824              		.loc 1 990 72 is_stmt 1 view .LVU604
 990:Drivers/STM32F7xx_HAL_Driver/Src/stm32f7xx_ll_usb.c ****     }
 1825              		.loc 1 990 18 is_stmt 0 view .LVU605
 1826 0068 0B78     		ldrb	r3, [r1]	@ zero_extendqisi2
 1827 006a 02EB4313 		add	r3, r2, r3, lsl #5
 990:Drivers/STM32F7xx_HAL_Driver/Src/stm32f7xx_ll_usb.c ****     }
 1828              		.loc 1 990 36 view .LVU606
 1829 006e D3F80039 		ldr	r3, [r3, #2304]
 990:Drivers/STM32F7xx_HAL_Driver/Src/stm32f7xx_ll_usb.c ****     }
 1830              		.loc 1 990 72 view .LVU607
 1831 0072 002B     		cmp	r3, #0
 1832 0074 F0DB     		blt	.L127
 969:Drivers/STM32F7xx_HAL_Driver/Src/stm32f7xx_ll_usb.c ****   uint32_t USBx_BASE = (uint32_t)USBx;
 1833              		.loc 1 969 21 view .LVU608
 1834 0076 0020     		movs	r0, #0
 1835 0078 D2E7     		b	.L126
 1836              	.L134:
 997:Drivers/STM32F7xx_HAL_Driver/Src/stm32f7xx_ll_usb.c ****       USBx_OUTEP(ep->num)->DOEPCTL |= (USB_OTG_DOEPCTL_EPDIS);
 1837              		.loc 1 997 7 is_stmt 1 view .LVU609
 997:Drivers/STM32F7xx_HAL_Driver/Src/stm32f7xx_ll_usb.c ****       USBx_OUTEP(ep->num)->DOEPCTL |= (USB_OTG_DOEPCTL_EPDIS);
 1838              		.loc 1 997 26 is_stmt 0 view .LVU610
 1839 007a D3F8000B 		ldr	r0, [r3, #2816]
 997:Drivers/STM32F7xx_HAL_Driver/Src/stm32f7xx_ll_usb.c ****       USBx_OUTEP(ep->num)->DOEPCTL |= (USB_OTG_DOEPCTL_EPDIS);
 1840              		.loc 1 997 36 view .LVU611
 1841 007e 40F00060 		orr	r0, r0, #134217728
 1842 0082 C3F8000B 		str	r0, [r3, #2816]
 998:Drivers/STM32F7xx_HAL_Driver/Src/stm32f7xx_ll_usb.c **** 
 1843              		.loc 1 998 7 is_stmt 1 view .LVU612
 1844 0086 0B78     		ldrb	r3, [r1]	@ zero_extendqisi2
 998:Drivers/STM32F7xx_HAL_Driver/Src/stm32f7xx_ll_usb.c **** 
 1845              		.loc 1 998 26 is_stmt 0 view .LVU613
 1846 0088 02EB4313 		add	r3, r2, r3, lsl #5
 1847 008c D3F8000B 		ldr	r0, [r3, #2816]
 998:Drivers/STM32F7xx_HAL_Driver/Src/stm32f7xx_ll_usb.c **** 
 1848              		.loc 1 998 36 view .LVU614
 1849 0090 40F08040 		orr	r0, r0, #1073741824
 1850 0094 C3F8000B 		str	r0, [r3, #2816]
 1851              	.L128:
1000:Drivers/STM32F7xx_HAL_Driver/Src/stm32f7xx_ll_usb.c ****       {
 1852              		.loc 1 1000 7 is_stmt 1 view .LVU615
1002:Drivers/STM32F7xx_HAL_Driver/Src/stm32f7xx_ll_usb.c **** 
ARM GAS  /var/folders/8d/8djywmp92nx9cg9c5pcw0px00000gn/T//ccLp59Ij.s 			page 69


 1853              		.loc 1 1002 9 view .LVU616
1002:Drivers/STM32F7xx_HAL_Driver/Src/stm32f7xx_ll_usb.c **** 
 1854              		.loc 1 1002 14 is_stmt 0 view .LVU617
 1855 0098 019B     		ldr	r3, [sp, #4]
 1856 009a 0133     		adds	r3, r3, #1
 1857 009c 0193     		str	r3, [sp, #4]
1004:Drivers/STM32F7xx_HAL_Driver/Src/stm32f7xx_ll_usb.c ****         {
 1858              		.loc 1 1004 9 is_stmt 1 view .LVU618
1004:Drivers/STM32F7xx_HAL_Driver/Src/stm32f7xx_ll_usb.c ****         {
 1859              		.loc 1 1004 19 is_stmt 0 view .LVU619
 1860 009e 0198     		ldr	r0, [sp, #4]
1004:Drivers/STM32F7xx_HAL_Driver/Src/stm32f7xx_ll_usb.c ****         {
 1861              		.loc 1 1004 12 view .LVU620
 1862 00a0 42F21073 		movw	r3, #10000
 1863 00a4 9842     		cmp	r0, r3
 1864 00a6 08D8     		bhi	.L131
1009:Drivers/STM32F7xx_HAL_Driver/Src/stm32f7xx_ll_usb.c ****     }
 1865              		.loc 1 1009 73 is_stmt 1 view .LVU621
1009:Drivers/STM32F7xx_HAL_Driver/Src/stm32f7xx_ll_usb.c ****     }
 1866              		.loc 1 1009 18 is_stmt 0 view .LVU622
 1867 00a8 0B78     		ldrb	r3, [r1]	@ zero_extendqisi2
 1868 00aa 02EB4313 		add	r3, r2, r3, lsl #5
1009:Drivers/STM32F7xx_HAL_Driver/Src/stm32f7xx_ll_usb.c ****     }
 1869              		.loc 1 1009 37 view .LVU623
 1870 00ae D3F8003B 		ldr	r3, [r3, #2816]
1009:Drivers/STM32F7xx_HAL_Driver/Src/stm32f7xx_ll_usb.c ****     }
 1871              		.loc 1 1009 73 view .LVU624
 1872 00b2 002B     		cmp	r3, #0
 1873 00b4 F0DB     		blt	.L128
 969:Drivers/STM32F7xx_HAL_Driver/Src/stm32f7xx_ll_usb.c ****   uint32_t USBx_BASE = (uint32_t)USBx;
 1874              		.loc 1 969 21 view .LVU625
 1875 00b6 0020     		movs	r0, #0
 1876 00b8 B2E7     		b	.L126
 1877              	.L131:
1006:Drivers/STM32F7xx_HAL_Driver/Src/stm32f7xx_ll_usb.c ****           break;
 1878              		.loc 1 1006 15 view .LVU626
 1879 00ba 0120     		movs	r0, #1
 1880 00bc B0E7     		b	.L126
 1881              		.cfi_endproc
 1882              	.LFE156:
 1884              		.section	.text.USB_WritePacket,"ax",%progbits
 1885              		.align	1
 1886              		.global	USB_WritePacket
 1887              		.syntax unified
 1888              		.thumb
 1889              		.thumb_func
 1891              	USB_WritePacket:
 1892              	.LVL123:
 1893              	.LFB157:
1032:Drivers/STM32F7xx_HAL_Driver/Src/stm32f7xx_ll_usb.c ****   uint32_t USBx_BASE = (uint32_t)USBx;
 1894              		.loc 1 1032 1 is_stmt 1 view -0
 1895              		.cfi_startproc
 1896              		@ args = 4, pretend = 0, frame = 0
 1897              		@ frame_needed = 0, uses_anonymous_args = 0
1032:Drivers/STM32F7xx_HAL_Driver/Src/stm32f7xx_ll_usb.c ****   uint32_t USBx_BASE = (uint32_t)USBx;
 1898              		.loc 1 1032 1 is_stmt 0 view .LVU628
 1899 0000 10B5     		push	{r4, lr}
ARM GAS  /var/folders/8d/8djywmp92nx9cg9c5pcw0px00000gn/T//ccLp59Ij.s 			page 70


 1900              		.cfi_def_cfa_offset 8
 1901              		.cfi_offset 4, -8
 1902              		.cfi_offset 14, -4
 1903 0002 9DF80840 		ldrb	r4, [sp, #8]	@ zero_extendqisi2
1033:Drivers/STM32F7xx_HAL_Driver/Src/stm32f7xx_ll_usb.c ****   uint8_t *pSrc = src;
 1904              		.loc 1 1033 3 is_stmt 1 view .LVU629
 1905              	.LVL124:
1034:Drivers/STM32F7xx_HAL_Driver/Src/stm32f7xx_ll_usb.c ****   uint32_t count32b;
 1906              		.loc 1 1034 3 view .LVU630
1035:Drivers/STM32F7xx_HAL_Driver/Src/stm32f7xx_ll_usb.c ****   uint32_t i;
 1907              		.loc 1 1035 3 view .LVU631
1036:Drivers/STM32F7xx_HAL_Driver/Src/stm32f7xx_ll_usb.c **** 
 1908              		.loc 1 1036 3 view .LVU632
1038:Drivers/STM32F7xx_HAL_Driver/Src/stm32f7xx_ll_usb.c ****   {
 1909              		.loc 1 1038 3 view .LVU633
1038:Drivers/STM32F7xx_HAL_Driver/Src/stm32f7xx_ll_usb.c ****   {
 1910              		.loc 1 1038 6 is_stmt 0 view .LVU634
 1911 0006 84B9     		cbnz	r4, .L137
1040:Drivers/STM32F7xx_HAL_Driver/Src/stm32f7xx_ll_usb.c ****     for (i = 0U; i < count32b; i++)
 1912              		.loc 1 1040 5 is_stmt 1 view .LVU635
1040:Drivers/STM32F7xx_HAL_Driver/Src/stm32f7xx_ll_usb.c ****     for (i = 0U; i < count32b; i++)
 1913              		.loc 1 1040 31 is_stmt 0 view .LVU636
 1914 0008 0333     		adds	r3, r3, #3
 1915              	.LVL125:
1040:Drivers/STM32F7xx_HAL_Driver/Src/stm32f7xx_ll_usb.c ****     for (i = 0U; i < count32b; i++)
 1916              		.loc 1 1040 14 view .LVU637
 1917 000a 4FEA930E 		lsr	lr, r3, #2
 1918              	.LVL126:
1041:Drivers/STM32F7xx_HAL_Driver/Src/stm32f7xx_ll_usb.c ****     {
 1919              		.loc 1 1041 5 is_stmt 1 view .LVU638
1041:Drivers/STM32F7xx_HAL_Driver/Src/stm32f7xx_ll_usb.c ****     {
 1920              		.loc 1 1041 12 is_stmt 0 view .LVU639
 1921 000e 4FF0000C 		mov	ip, #0
1041:Drivers/STM32F7xx_HAL_Driver/Src/stm32f7xx_ll_usb.c ****     {
 1922              		.loc 1 1041 5 view .LVU640
 1923 0012 08E0     		b	.L138
 1924              	.LVL127:
 1925              	.L139:
1043:Drivers/STM32F7xx_HAL_Driver/Src/stm32f7xx_ll_usb.c ****       pSrc++;
 1926              		.loc 1 1043 7 is_stmt 1 view .LVU641
 1927 0014 00EB0233 		add	r3, r0, r2, lsl #12
 1928 0018 03F58053 		add	r3, r3, #4096
1043:Drivers/STM32F7xx_HAL_Driver/Src/stm32f7xx_ll_usb.c ****       pSrc++;
 1929              		.loc 1 1043 41 is_stmt 0 view .LVU642
 1930 001c 51F8044B 		ldr	r4, [r1], #4	@ unaligned
 1931              	.LVL128:
1043:Drivers/STM32F7xx_HAL_Driver/Src/stm32f7xx_ll_usb.c ****       pSrc++;
 1932              		.loc 1 1043 39 view .LVU643
 1933 0020 1C60     		str	r4, [r3]
1044:Drivers/STM32F7xx_HAL_Driver/Src/stm32f7xx_ll_usb.c ****       pSrc++;
 1934              		.loc 1 1044 7 is_stmt 1 view .LVU644
 1935              	.LVL129:
1045:Drivers/STM32F7xx_HAL_Driver/Src/stm32f7xx_ll_usb.c ****       pSrc++;
 1936              		.loc 1 1045 7 view .LVU645
1046:Drivers/STM32F7xx_HAL_Driver/Src/stm32f7xx_ll_usb.c ****       pSrc++;
 1937              		.loc 1 1046 7 view .LVU646
1047:Drivers/STM32F7xx_HAL_Driver/Src/stm32f7xx_ll_usb.c ****     }
ARM GAS  /var/folders/8d/8djywmp92nx9cg9c5pcw0px00000gn/T//ccLp59Ij.s 			page 71


 1938              		.loc 1 1047 7 view .LVU647
1041:Drivers/STM32F7xx_HAL_Driver/Src/stm32f7xx_ll_usb.c ****     {
 1939              		.loc 1 1041 33 discriminator 3 view .LVU648
 1940 0022 0CF1010C 		add	ip, ip, #1
 1941              	.LVL130:
 1942              	.L138:
1041:Drivers/STM32F7xx_HAL_Driver/Src/stm32f7xx_ll_usb.c ****     {
 1943              		.loc 1 1041 20 discriminator 1 view .LVU649
 1944 0026 F445     		cmp	ip, lr
 1945 0028 F4D3     		bcc	.L139
 1946              	.LVL131:
 1947              	.L137:
1051:Drivers/STM32F7xx_HAL_Driver/Src/stm32f7xx_ll_usb.c **** }
 1948              		.loc 1 1051 3 view .LVU650
1052:Drivers/STM32F7xx_HAL_Driver/Src/stm32f7xx_ll_usb.c **** 
 1949              		.loc 1 1052 1 is_stmt 0 view .LVU651
 1950 002a 0020     		movs	r0, #0
 1951              	.LVL132:
1052:Drivers/STM32F7xx_HAL_Driver/Src/stm32f7xx_ll_usb.c **** 
 1952              		.loc 1 1052 1 view .LVU652
 1953 002c 10BD     		pop	{r4, pc}
1052:Drivers/STM32F7xx_HAL_Driver/Src/stm32f7xx_ll_usb.c **** 
 1954              		.loc 1 1052 1 view .LVU653
 1955              		.cfi_endproc
 1956              	.LFE157:
 1958              		.section	.text.USB_EPStartXfer,"ax",%progbits
 1959              		.align	1
 1960              		.global	USB_EPStartXfer
 1961              		.syntax unified
 1962              		.thumb
 1963              		.thumb_func
 1965              	USB_EPStartXfer:
 1966              	.LVL133:
 1967              	.LFB155:
 795:Drivers/STM32F7xx_HAL_Driver/Src/stm32f7xx_ll_usb.c ****   uint32_t USBx_BASE = (uint32_t)USBx;
 1968              		.loc 1 795 1 is_stmt 1 view -0
 1969              		.cfi_startproc
 1970              		@ args = 0, pretend = 0, frame = 0
 1971              		@ frame_needed = 0, uses_anonymous_args = 0
 795:Drivers/STM32F7xx_HAL_Driver/Src/stm32f7xx_ll_usb.c ****   uint32_t USBx_BASE = (uint32_t)USBx;
 1972              		.loc 1 795 1 is_stmt 0 view .LVU655
 1973 0000 F0B5     		push	{r4, r5, r6, r7, lr}
 1974              		.cfi_def_cfa_offset 20
 1975              		.cfi_offset 4, -20
 1976              		.cfi_offset 5, -16
 1977              		.cfi_offset 6, -12
 1978              		.cfi_offset 7, -8
 1979              		.cfi_offset 14, -4
 1980 0002 83B0     		sub	sp, sp, #12
 1981              		.cfi_def_cfa_offset 32
 796:Drivers/STM32F7xx_HAL_Driver/Src/stm32f7xx_ll_usb.c ****   uint32_t epnum = (uint32_t)ep->num;
 1982              		.loc 1 796 3 is_stmt 1 view .LVU656
 1983              	.LVL134:
 797:Drivers/STM32F7xx_HAL_Driver/Src/stm32f7xx_ll_usb.c ****   uint16_t pktcnt;
 1984              		.loc 1 797 3 view .LVU657
 797:Drivers/STM32F7xx_HAL_Driver/Src/stm32f7xx_ll_usb.c ****   uint16_t pktcnt;
 1985              		.loc 1 797 32 is_stmt 0 view .LVU658
ARM GAS  /var/folders/8d/8djywmp92nx9cg9c5pcw0px00000gn/T//ccLp59Ij.s 			page 72


 1986 0004 0C78     		ldrb	r4, [r1]	@ zero_extendqisi2
 1987              	.LVL135:
 798:Drivers/STM32F7xx_HAL_Driver/Src/stm32f7xx_ll_usb.c **** 
 1988              		.loc 1 798 3 is_stmt 1 view .LVU659
 801:Drivers/STM32F7xx_HAL_Driver/Src/stm32f7xx_ll_usb.c ****   {
 1989              		.loc 1 801 3 view .LVU660
 801:Drivers/STM32F7xx_HAL_Driver/Src/stm32f7xx_ll_usb.c ****   {
 1990              		.loc 1 801 9 is_stmt 0 view .LVU661
 1991 0006 4B78     		ldrb	r3, [r1, #1]	@ zero_extendqisi2
 801:Drivers/STM32F7xx_HAL_Driver/Src/stm32f7xx_ll_usb.c ****   {
 1992              		.loc 1 801 6 view .LVU662
 1993 0008 012B     		cmp	r3, #1
 1994 000a 2DD0     		beq	.L164
 900:Drivers/STM32F7xx_HAL_Driver/Src/stm32f7xx_ll_usb.c ****     USBx_OUTEP(epnum)->DOEPTSIZ &= ~(USB_OTG_DOEPTSIZ_PKTCNT);
 1995              		.loc 1 900 5 is_stmt 1 view .LVU663
 900:Drivers/STM32F7xx_HAL_Driver/Src/stm32f7xx_ll_usb.c ****     USBx_OUTEP(epnum)->DOEPTSIZ &= ~(USB_OTG_DOEPTSIZ_PKTCNT);
 1996              		.loc 1 900 22 is_stmt 0 view .LVU664
 1997 000c 00EB441C 		add	ip, r0, r4, lsl #5
 1998 0010 0CF53063 		add	r3, ip, #2816
 1999 0014 1D69     		ldr	r5, [r3, #16]
 900:Drivers/STM32F7xx_HAL_Driver/Src/stm32f7xx_ll_usb.c ****     USBx_OUTEP(epnum)->DOEPTSIZ &= ~(USB_OTG_DOEPTSIZ_PKTCNT);
 2000              		.loc 1 900 33 view .LVU665
 2001 0016 6FF31205 		bfc	r5, #0, #19
 2002 001a 1D61     		str	r5, [r3, #16]
 901:Drivers/STM32F7xx_HAL_Driver/Src/stm32f7xx_ll_usb.c **** 
 2003              		.loc 1 901 5 is_stmt 1 view .LVU666
 901:Drivers/STM32F7xx_HAL_Driver/Src/stm32f7xx_ll_usb.c **** 
 2004              		.loc 1 901 22 is_stmt 0 view .LVU667
 2005 001c 1D69     		ldr	r5, [r3, #16]
 901:Drivers/STM32F7xx_HAL_Driver/Src/stm32f7xx_ll_usb.c **** 
 2006              		.loc 1 901 33 view .LVU668
 2007 001e 6FF3DC45 		bfc	r5, #19, #10
 2008 0022 1D61     		str	r5, [r3, #16]
 903:Drivers/STM32F7xx_HAL_Driver/Src/stm32f7xx_ll_usb.c ****     {
 2009              		.loc 1 903 5 is_stmt 1 view .LVU669
 903:Drivers/STM32F7xx_HAL_Driver/Src/stm32f7xx_ll_usb.c ****     {
 2010              		.loc 1 903 8 is_stmt 0 view .LVU670
 2011 0024 002C     		cmp	r4, #0
 2012 0026 40F0C880 		bne	.L156
 905:Drivers/STM32F7xx_HAL_Driver/Src/stm32f7xx_ll_usb.c ****       {
 2013              		.loc 1 905 7 is_stmt 1 view .LVU671
 905:Drivers/STM32F7xx_HAL_Driver/Src/stm32f7xx_ll_usb.c ****       {
 2014              		.loc 1 905 13 is_stmt 0 view .LVU672
 2015 002a 0C69     		ldr	r4, [r1, #16]
 2016              	.LVL136:
 905:Drivers/STM32F7xx_HAL_Driver/Src/stm32f7xx_ll_usb.c ****       {
 2017              		.loc 1 905 10 view .LVU673
 2018 002c 0CB1     		cbz	r4, .L157
 907:Drivers/STM32F7xx_HAL_Driver/Src/stm32f7xx_ll_usb.c ****       }
 2019              		.loc 1 907 9 is_stmt 1 view .LVU674
 907:Drivers/STM32F7xx_HAL_Driver/Src/stm32f7xx_ll_usb.c ****       }
 2020              		.loc 1 907 26 is_stmt 0 view .LVU675
 2021 002e 8C68     		ldr	r4, [r1, #8]
 907:Drivers/STM32F7xx_HAL_Driver/Src/stm32f7xx_ll_usb.c ****       }
 2022              		.loc 1 907 22 view .LVU676
 2023 0030 0C61     		str	r4, [r1, #16]
 2024              	.L157:
ARM GAS  /var/folders/8d/8djywmp92nx9cg9c5pcw0px00000gn/T//ccLp59Ij.s 			page 73


 911:Drivers/STM32F7xx_HAL_Driver/Src/stm32f7xx_ll_usb.c **** 
 2025              		.loc 1 911 7 is_stmt 1 view .LVU677
 911:Drivers/STM32F7xx_HAL_Driver/Src/stm32f7xx_ll_usb.c **** 
 2026              		.loc 1 911 25 is_stmt 0 view .LVU678
 2027 0032 8C68     		ldr	r4, [r1, #8]
 911:Drivers/STM32F7xx_HAL_Driver/Src/stm32f7xx_ll_usb.c **** 
 2028              		.loc 1 911 21 view .LVU679
 2029 0034 0C62     		str	r4, [r1, #32]
 913:Drivers/STM32F7xx_HAL_Driver/Src/stm32f7xx_ll_usb.c ****       USBx_OUTEP(epnum)->DOEPTSIZ |= (USB_OTG_DOEPTSIZ_PKTCNT & (1U << 19));
 2030              		.loc 1 913 7 is_stmt 1 view .LVU680
 913:Drivers/STM32F7xx_HAL_Driver/Src/stm32f7xx_ll_usb.c ****       USBx_OUTEP(epnum)->DOEPTSIZ |= (USB_OTG_DOEPTSIZ_PKTCNT & (1U << 19));
 2031              		.loc 1 913 24 is_stmt 0 view .LVU681
 2032 0036 1D69     		ldr	r5, [r3, #16]
 913:Drivers/STM32F7xx_HAL_Driver/Src/stm32f7xx_ll_usb.c ****       USBx_OUTEP(epnum)->DOEPTSIZ |= (USB_OTG_DOEPTSIZ_PKTCNT & (1U << 19));
 2033              		.loc 1 913 63 view .LVU682
 2034 0038 C4F31204 		ubfx	r4, r4, #0, #19
 913:Drivers/STM32F7xx_HAL_Driver/Src/stm32f7xx_ll_usb.c ****       USBx_OUTEP(epnum)->DOEPTSIZ |= (USB_OTG_DOEPTSIZ_PKTCNT & (1U << 19));
 2035              		.loc 1 913 35 view .LVU683
 2036 003c 2C43     		orrs	r4, r4, r5
 2037 003e 1C61     		str	r4, [r3, #16]
 914:Drivers/STM32F7xx_HAL_Driver/Src/stm32f7xx_ll_usb.c ****     }
 2038              		.loc 1 914 7 is_stmt 1 view .LVU684
 914:Drivers/STM32F7xx_HAL_Driver/Src/stm32f7xx_ll_usb.c ****     }
 2039              		.loc 1 914 24 is_stmt 0 view .LVU685
 2040 0040 1C69     		ldr	r4, [r3, #16]
 914:Drivers/STM32F7xx_HAL_Driver/Src/stm32f7xx_ll_usb.c ****     }
 2041              		.loc 1 914 35 view .LVU686
 2042 0042 44F40024 		orr	r4, r4, #524288
 2043 0046 1C61     		str	r4, [r3, #16]
 2044              	.L158:
 933:Drivers/STM32F7xx_HAL_Driver/Src/stm32f7xx_ll_usb.c ****     {
 2045              		.loc 1 933 5 is_stmt 1 view .LVU687
 933:Drivers/STM32F7xx_HAL_Driver/Src/stm32f7xx_ll_usb.c ****     {
 2046              		.loc 1 933 8 is_stmt 0 view .LVU688
 2047 0048 012A     		cmp	r2, #1
 2048 004a 00F0D980 		beq	.L165
 2049              	.LVL137:
 2050              	.L160:
 941:Drivers/STM32F7xx_HAL_Driver/Src/stm32f7xx_ll_usb.c ****     {
 2051              		.loc 1 941 5 is_stmt 1 view .LVU689
 941:Drivers/STM32F7xx_HAL_Driver/Src/stm32f7xx_ll_usb.c ****     {
 2052              		.loc 1 941 11 is_stmt 0 view .LVU690
 2053 004e 0B79     		ldrb	r3, [r1, #4]	@ zero_extendqisi2
 941:Drivers/STM32F7xx_HAL_Driver/Src/stm32f7xx_ll_usb.c ****     {
 2054              		.loc 1 941 8 view .LVU691
 2055 0050 012B     		cmp	r3, #1
 2056 0052 00F0DB80 		beq	.L166
 2057              	.L161:
 953:Drivers/STM32F7xx_HAL_Driver/Src/stm32f7xx_ll_usb.c ****   }
 2058              		.loc 1 953 5 is_stmt 1 view .LVU692
 953:Drivers/STM32F7xx_HAL_Driver/Src/stm32f7xx_ll_usb.c ****   }
 2059              		.loc 1 953 22 is_stmt 0 view .LVU693
 2060 0056 DCF8003B 		ldr	r3, [ip, #2816]
 953:Drivers/STM32F7xx_HAL_Driver/Src/stm32f7xx_ll_usb.c ****   }
 2061              		.loc 1 953 32 view .LVU694
 2062 005a 43F00443 		orr	r3, r3, #-2080374784
 2063 005e CCF8003B 		str	r3, [ip, #2816]
ARM GAS  /var/folders/8d/8djywmp92nx9cg9c5pcw0px00000gn/T//ccLp59Ij.s 			page 74


 2064              	.LVL138:
 2065              	.L152:
 956:Drivers/STM32F7xx_HAL_Driver/Src/stm32f7xx_ll_usb.c **** }
 2066              		.loc 1 956 3 is_stmt 1 view .LVU695
 957:Drivers/STM32F7xx_HAL_Driver/Src/stm32f7xx_ll_usb.c **** 
 2067              		.loc 1 957 1 is_stmt 0 view .LVU696
 2068 0062 0020     		movs	r0, #0
 2069 0064 03B0     		add	sp, sp, #12
 2070              		.cfi_remember_state
 2071              		.cfi_def_cfa_offset 20
 2072              		@ sp needed
 2073 0066 F0BD     		pop	{r4, r5, r6, r7, pc}
 2074              	.LVL139:
 2075              	.L164:
 2076              		.cfi_restore_state
 804:Drivers/STM32F7xx_HAL_Driver/Src/stm32f7xx_ll_usb.c ****     {
 2077              		.loc 1 804 5 is_stmt 1 view .LVU697
 804:Drivers/STM32F7xx_HAL_Driver/Src/stm32f7xx_ll_usb.c ****     {
 2078              		.loc 1 804 11 is_stmt 0 view .LVU698
 2079 0068 0B69     		ldr	r3, [r1, #16]
 804:Drivers/STM32F7xx_HAL_Driver/Src/stm32f7xx_ll_usb.c ****     {
 2080              		.loc 1 804 8 view .LVU699
 2081 006a 73BB     		cbnz	r3, .L143
 806:Drivers/STM32F7xx_HAL_Driver/Src/stm32f7xx_ll_usb.c ****       USBx_INEP(epnum)->DIEPTSIZ |= (USB_OTG_DIEPTSIZ_PKTCNT & (1U << 19));
 2082              		.loc 1 806 7 is_stmt 1 view .LVU700
 806:Drivers/STM32F7xx_HAL_Driver/Src/stm32f7xx_ll_usb.c ****       USBx_INEP(epnum)->DIEPTSIZ |= (USB_OTG_DIEPTSIZ_PKTCNT & (1U << 19));
 2083              		.loc 1 806 23 is_stmt 0 view .LVU701
 2084 006c 00EB4413 		add	r3, r0, r4, lsl #5
 2085 0070 D3F81059 		ldr	r5, [r3, #2320]
 806:Drivers/STM32F7xx_HAL_Driver/Src/stm32f7xx_ll_usb.c ****       USBx_INEP(epnum)->DIEPTSIZ |= (USB_OTG_DIEPTSIZ_PKTCNT & (1U << 19));
 2086              		.loc 1 806 34 view .LVU702
 2087 0074 6FF3DC45 		bfc	r5, #19, #10
 2088 0078 C3F81059 		str	r5, [r3, #2320]
 807:Drivers/STM32F7xx_HAL_Driver/Src/stm32f7xx_ll_usb.c ****       USBx_INEP(epnum)->DIEPTSIZ &= ~(USB_OTG_DIEPTSIZ_XFRSIZ);
 2089              		.loc 1 807 7 is_stmt 1 view .LVU703
 807:Drivers/STM32F7xx_HAL_Driver/Src/stm32f7xx_ll_usb.c ****       USBx_INEP(epnum)->DIEPTSIZ &= ~(USB_OTG_DIEPTSIZ_XFRSIZ);
 2090              		.loc 1 807 23 is_stmt 0 view .LVU704
 2091 007c D3F81059 		ldr	r5, [r3, #2320]
 807:Drivers/STM32F7xx_HAL_Driver/Src/stm32f7xx_ll_usb.c ****       USBx_INEP(epnum)->DIEPTSIZ &= ~(USB_OTG_DIEPTSIZ_XFRSIZ);
 2092              		.loc 1 807 34 view .LVU705
 2093 0080 45F40025 		orr	r5, r5, #524288
 2094 0084 C3F81059 		str	r5, [r3, #2320]
 808:Drivers/STM32F7xx_HAL_Driver/Src/stm32f7xx_ll_usb.c ****     }
 2095              		.loc 1 808 7 is_stmt 1 view .LVU706
 808:Drivers/STM32F7xx_HAL_Driver/Src/stm32f7xx_ll_usb.c ****     }
 2096              		.loc 1 808 23 is_stmt 0 view .LVU707
 2097 0088 D3F81059 		ldr	r5, [r3, #2320]
 808:Drivers/STM32F7xx_HAL_Driver/Src/stm32f7xx_ll_usb.c ****     }
 2098              		.loc 1 808 34 view .LVU708
 2099 008c 6FF31205 		bfc	r5, #0, #19
 2100 0090 C3F81059 		str	r5, [r3, #2320]
 2101              	.L144:
 844:Drivers/STM32F7xx_HAL_Driver/Src/stm32f7xx_ll_usb.c ****     {
 2102              		.loc 1 844 5 is_stmt 1 view .LVU709
 844:Drivers/STM32F7xx_HAL_Driver/Src/stm32f7xx_ll_usb.c ****     {
 2103              		.loc 1 844 8 is_stmt 0 view .LVU710
 2104 0094 012A     		cmp	r2, #1
ARM GAS  /var/folders/8d/8djywmp92nx9cg9c5pcw0px00000gn/T//ccLp59Ij.s 			page 75


 2105 0096 4ED0     		beq	.L167
 869:Drivers/STM32F7xx_HAL_Driver/Src/stm32f7xx_ll_usb.c **** 
 2106              		.loc 1 869 7 is_stmt 1 view .LVU711
 869:Drivers/STM32F7xx_HAL_Driver/Src/stm32f7xx_ll_usb.c **** 
 2107              		.loc 1 869 23 is_stmt 0 view .LVU712
 2108 0098 00EB4414 		add	r4, r0, r4, lsl #5
 2109              	.LVL140:
 869:Drivers/STM32F7xx_HAL_Driver/Src/stm32f7xx_ll_usb.c **** 
 2110              		.loc 1 869 23 view .LVU713
 2111 009c D4F80039 		ldr	r3, [r4, #2304]
 869:Drivers/STM32F7xx_HAL_Driver/Src/stm32f7xx_ll_usb.c **** 
 2112              		.loc 1 869 33 view .LVU714
 2113 00a0 43F00443 		orr	r3, r3, #-2080374784
 2114 00a4 C4F80039 		str	r3, [r4, #2304]
 871:Drivers/STM32F7xx_HAL_Driver/Src/stm32f7xx_ll_usb.c ****       {
 2115              		.loc 1 871 7 is_stmt 1 view .LVU715
 871:Drivers/STM32F7xx_HAL_Driver/Src/stm32f7xx_ll_usb.c ****       {
 2116              		.loc 1 871 13 is_stmt 0 view .LVU716
 2117 00a8 0B79     		ldrb	r3, [r1, #4]	@ zero_extendqisi2
 871:Drivers/STM32F7xx_HAL_Driver/Src/stm32f7xx_ll_usb.c ****       {
 2118              		.loc 1 871 10 view .LVU717
 2119 00aa 012B     		cmp	r3, #1
 2120 00ac 6CD0     		beq	.L153
 874:Drivers/STM32F7xx_HAL_Driver/Src/stm32f7xx_ll_usb.c ****         {
 2121              		.loc 1 874 9 is_stmt 1 view .LVU718
 874:Drivers/STM32F7xx_HAL_Driver/Src/stm32f7xx_ll_usb.c ****         {
 2122              		.loc 1 874 15 is_stmt 0 view .LVU719
 2123 00ae 0B69     		ldr	r3, [r1, #16]
 874:Drivers/STM32F7xx_HAL_Driver/Src/stm32f7xx_ll_usb.c ****         {
 2124              		.loc 1 874 12 view .LVU720
 2125 00b0 002B     		cmp	r3, #0
 2126 00b2 D6D0     		beq	.L152
 876:Drivers/STM32F7xx_HAL_Driver/Src/stm32f7xx_ll_usb.c ****         }
 2127              		.loc 1 876 11 is_stmt 1 view .LVU721
 876:Drivers/STM32F7xx_HAL_Driver/Src/stm32f7xx_ll_usb.c ****         }
 2128              		.loc 1 876 22 is_stmt 0 view .LVU722
 2129 00b4 D0F83438 		ldr	r3, [r0, #2100]
 876:Drivers/STM32F7xx_HAL_Driver/Src/stm32f7xx_ll_usb.c ****         }
 2130              		.loc 1 876 48 view .LVU723
 2131 00b8 0978     		ldrb	r1, [r1]	@ zero_extendqisi2
 2132              	.LVL141:
 876:Drivers/STM32F7xx_HAL_Driver/Src/stm32f7xx_ll_usb.c ****         }
 2133              		.loc 1 876 54 view .LVU724
 2134 00ba 01F00F01 		and	r1, r1, #15
 876:Drivers/STM32F7xx_HAL_Driver/Src/stm32f7xx_ll_usb.c ****         }
 2135              		.loc 1 876 42 view .LVU725
 2136 00be 0122     		movs	r2, #1
 2137              	.LVL142:
 876:Drivers/STM32F7xx_HAL_Driver/Src/stm32f7xx_ll_usb.c ****         }
 2138              		.loc 1 876 42 view .LVU726
 2139 00c0 8A40     		lsls	r2, r2, r1
 876:Drivers/STM32F7xx_HAL_Driver/Src/stm32f7xx_ll_usb.c ****         }
 2140              		.loc 1 876 35 view .LVU727
 2141 00c2 1343     		orrs	r3, r3, r2
 2142 00c4 C0F83438 		str	r3, [r0, #2100]
 2143 00c8 CBE7     		b	.L152
 2144              	.LVL143:
ARM GAS  /var/folders/8d/8djywmp92nx9cg9c5pcw0px00000gn/T//ccLp59Ij.s 			page 76


 2145              	.L143:
 817:Drivers/STM32F7xx_HAL_Driver/Src/stm32f7xx_ll_usb.c ****       USBx_INEP(epnum)->DIEPTSIZ &= ~(USB_OTG_DIEPTSIZ_PKTCNT);
 2146              		.loc 1 817 7 is_stmt 1 view .LVU728
 817:Drivers/STM32F7xx_HAL_Driver/Src/stm32f7xx_ll_usb.c ****       USBx_INEP(epnum)->DIEPTSIZ &= ~(USB_OTG_DIEPTSIZ_PKTCNT);
 2147              		.loc 1 817 23 is_stmt 0 view .LVU729
 2148 00ca 00EB4413 		add	r3, r0, r4, lsl #5
 2149 00ce 03F51063 		add	r3, r3, #2304
 2150 00d2 1D69     		ldr	r5, [r3, #16]
 817:Drivers/STM32F7xx_HAL_Driver/Src/stm32f7xx_ll_usb.c ****       USBx_INEP(epnum)->DIEPTSIZ &= ~(USB_OTG_DIEPTSIZ_PKTCNT);
 2151              		.loc 1 817 34 view .LVU730
 2152 00d4 6FF31205 		bfc	r5, #0, #19
 2153 00d8 1D61     		str	r5, [r3, #16]
 818:Drivers/STM32F7xx_HAL_Driver/Src/stm32f7xx_ll_usb.c **** 
 2154              		.loc 1 818 7 is_stmt 1 view .LVU731
 818:Drivers/STM32F7xx_HAL_Driver/Src/stm32f7xx_ll_usb.c **** 
 2155              		.loc 1 818 23 is_stmt 0 view .LVU732
 2156 00da 1D69     		ldr	r5, [r3, #16]
 818:Drivers/STM32F7xx_HAL_Driver/Src/stm32f7xx_ll_usb.c **** 
 2157              		.loc 1 818 34 view .LVU733
 2158 00dc 6FF3DC45 		bfc	r5, #19, #10
 2159 00e0 1D61     		str	r5, [r3, #16]
 820:Drivers/STM32F7xx_HAL_Driver/Src/stm32f7xx_ll_usb.c ****       {
 2160              		.loc 1 820 7 is_stmt 1 view .LVU734
 820:Drivers/STM32F7xx_HAL_Driver/Src/stm32f7xx_ll_usb.c ****       {
 2161              		.loc 1 820 10 is_stmt 0 view .LVU735
 2162 00e2 DCB9     		cbnz	r4, .L145
 822:Drivers/STM32F7xx_HAL_Driver/Src/stm32f7xx_ll_usb.c ****         {
 2163              		.loc 1 822 9 is_stmt 1 view .LVU736
 822:Drivers/STM32F7xx_HAL_Driver/Src/stm32f7xx_ll_usb.c ****         {
 2164              		.loc 1 822 15 is_stmt 0 view .LVU737
 2165 00e4 0E69     		ldr	r6, [r1, #16]
 822:Drivers/STM32F7xx_HAL_Driver/Src/stm32f7xx_ll_usb.c ****         {
 2166              		.loc 1 822 30 view .LVU738
 2167 00e6 8D68     		ldr	r5, [r1, #8]
 822:Drivers/STM32F7xx_HAL_Driver/Src/stm32f7xx_ll_usb.c ****         {
 2168              		.loc 1 822 12 view .LVU739
 2169 00e8 AE42     		cmp	r6, r5
 2170 00ea 00D9     		bls	.L146
 824:Drivers/STM32F7xx_HAL_Driver/Src/stm32f7xx_ll_usb.c ****         }
 2171              		.loc 1 824 11 is_stmt 1 view .LVU740
 824:Drivers/STM32F7xx_HAL_Driver/Src/stm32f7xx_ll_usb.c ****         }
 2172              		.loc 1 824 24 is_stmt 0 view .LVU741
 2173 00ec 0D61     		str	r5, [r1, #16]
 2174              	.L146:
 827:Drivers/STM32F7xx_HAL_Driver/Src/stm32f7xx_ll_usb.c ****       }
 2175              		.loc 1 827 9 is_stmt 1 view .LVU742
 827:Drivers/STM32F7xx_HAL_Driver/Src/stm32f7xx_ll_usb.c ****       }
 2176              		.loc 1 827 25 is_stmt 0 view .LVU743
 2177 00ee 1D69     		ldr	r5, [r3, #16]
 827:Drivers/STM32F7xx_HAL_Driver/Src/stm32f7xx_ll_usb.c ****       }
 2178              		.loc 1 827 36 view .LVU744
 2179 00f0 45F40025 		orr	r5, r5, #524288
 2180 00f4 1D61     		str	r5, [r3, #16]
 2181              	.L147:
 835:Drivers/STM32F7xx_HAL_Driver/Src/stm32f7xx_ll_usb.c **** 
 2182              		.loc 1 835 7 is_stmt 1 view .LVU745
 835:Drivers/STM32F7xx_HAL_Driver/Src/stm32f7xx_ll_usb.c **** 
ARM GAS  /var/folders/8d/8djywmp92nx9cg9c5pcw0px00000gn/T//ccLp59Ij.s 			page 77


 2183              		.loc 1 835 23 is_stmt 0 view .LVU746
 2184 00f6 1D69     		ldr	r5, [r3, #16]
 835:Drivers/STM32F7xx_HAL_Driver/Src/stm32f7xx_ll_usb.c **** 
 2185              		.loc 1 835 62 view .LVU747
 2186 00f8 0E69     		ldr	r6, [r1, #16]
 2187 00fa C6F3120C 		ubfx	ip, r6, #0, #19
 835:Drivers/STM32F7xx_HAL_Driver/Src/stm32f7xx_ll_usb.c **** 
 2188              		.loc 1 835 34 view .LVU748
 2189 00fe 45EA0C05 		orr	r5, r5, ip
 2190 0102 1D61     		str	r5, [r3, #16]
 837:Drivers/STM32F7xx_HAL_Driver/Src/stm32f7xx_ll_usb.c ****       {
 2191              		.loc 1 837 7 is_stmt 1 view .LVU749
 837:Drivers/STM32F7xx_HAL_Driver/Src/stm32f7xx_ll_usb.c ****       {
 2192              		.loc 1 837 13 is_stmt 0 view .LVU750
 2193 0104 0D79     		ldrb	r5, [r1, #4]	@ zero_extendqisi2
 837:Drivers/STM32F7xx_HAL_Driver/Src/stm32f7xx_ll_usb.c ****       {
 2194              		.loc 1 837 10 view .LVU751
 2195 0106 012D     		cmp	r5, #1
 2196 0108 C4D1     		bne	.L144
 839:Drivers/STM32F7xx_HAL_Driver/Src/stm32f7xx_ll_usb.c ****         USBx_INEP(epnum)->DIEPTSIZ |= (USB_OTG_DIEPTSIZ_MULCNT & (1U << 29));
 2197              		.loc 1 839 9 is_stmt 1 view .LVU752
 839:Drivers/STM32F7xx_HAL_Driver/Src/stm32f7xx_ll_usb.c ****         USBx_INEP(epnum)->DIEPTSIZ |= (USB_OTG_DIEPTSIZ_MULCNT & (1U << 29));
 2198              		.loc 1 839 25 is_stmt 0 view .LVU753
 2199 010a 1D69     		ldr	r5, [r3, #16]
 839:Drivers/STM32F7xx_HAL_Driver/Src/stm32f7xx_ll_usb.c ****         USBx_INEP(epnum)->DIEPTSIZ |= (USB_OTG_DIEPTSIZ_MULCNT & (1U << 29));
 2200              		.loc 1 839 36 view .LVU754
 2201 010c 25F0C045 		bic	r5, r5, #1610612736
 2202 0110 1D61     		str	r5, [r3, #16]
 840:Drivers/STM32F7xx_HAL_Driver/Src/stm32f7xx_ll_usb.c ****       }
 2203              		.loc 1 840 9 is_stmt 1 view .LVU755
 840:Drivers/STM32F7xx_HAL_Driver/Src/stm32f7xx_ll_usb.c ****       }
 2204              		.loc 1 840 25 is_stmt 0 view .LVU756
 2205 0112 1D69     		ldr	r5, [r3, #16]
 840:Drivers/STM32F7xx_HAL_Driver/Src/stm32f7xx_ll_usb.c ****       }
 2206              		.loc 1 840 36 view .LVU757
 2207 0114 45F00055 		orr	r5, r5, #536870912
 2208 0118 1D61     		str	r5, [r3, #16]
 2209 011a BBE7     		b	.L144
 2210              	.L145:
 831:Drivers/STM32F7xx_HAL_Driver/Src/stm32f7xx_ll_usb.c ****                                        (((ep->xfer_len + ep->maxpacket - 1U) / ep->maxpacket) << 19
 2211              		.loc 1 831 9 is_stmt 1 view .LVU758
 831:Drivers/STM32F7xx_HAL_Driver/Src/stm32f7xx_ll_usb.c ****                                        (((ep->xfer_len + ep->maxpacket - 1U) / ep->maxpacket) << 19
 2212              		.loc 1 831 25 is_stmt 0 view .LVU759
 2213 011c 1E69     		ldr	r6, [r3, #16]
 832:Drivers/STM32F7xx_HAL_Driver/Src/stm32f7xx_ll_usb.c ****       }
 2214              		.loc 1 832 45 view .LVU760
 2215 011e 0D69     		ldr	r5, [r1, #16]
 832:Drivers/STM32F7xx_HAL_Driver/Src/stm32f7xx_ll_usb.c ****       }
 2216              		.loc 1 832 60 view .LVU761
 2217 0120 8F68     		ldr	r7, [r1, #8]
 832:Drivers/STM32F7xx_HAL_Driver/Src/stm32f7xx_ll_usb.c ****       }
 2218              		.loc 1 832 56 view .LVU762
 2219 0122 3D44     		add	r5, r5, r7
 832:Drivers/STM32F7xx_HAL_Driver/Src/stm32f7xx_ll_usb.c ****       }
 2220              		.loc 1 832 72 view .LVU763
 2221 0124 013D     		subs	r5, r5, #1
 832:Drivers/STM32F7xx_HAL_Driver/Src/stm32f7xx_ll_usb.c ****       }
ARM GAS  /var/folders/8d/8djywmp92nx9cg9c5pcw0px00000gn/T//ccLp59Ij.s 			page 78


 2222              		.loc 1 832 78 view .LVU764
 2223 0126 B5FBF7F5 		udiv	r5, r5, r7
 831:Drivers/STM32F7xx_HAL_Driver/Src/stm32f7xx_ll_usb.c ****                                        (((ep->xfer_len + ep->maxpacket - 1U) / ep->maxpacket) << 19
 2224              		.loc 1 831 64 view .LVU765
 2225 012a 424F     		ldr	r7, .L169
 2226 012c 07EAC545 		and	r5, r7, r5, lsl #19
 831:Drivers/STM32F7xx_HAL_Driver/Src/stm32f7xx_ll_usb.c ****                                        (((ep->xfer_len + ep->maxpacket - 1U) / ep->maxpacket) << 19
 2227              		.loc 1 831 36 view .LVU766
 2228 0130 3543     		orrs	r5, r5, r6
 2229 0132 1D61     		str	r5, [r3, #16]
 2230 0134 DFE7     		b	.L147
 2231              	.L167:
 846:Drivers/STM32F7xx_HAL_Driver/Src/stm32f7xx_ll_usb.c ****       {
 2232              		.loc 1 846 7 is_stmt 1 view .LVU767
 846:Drivers/STM32F7xx_HAL_Driver/Src/stm32f7xx_ll_usb.c ****       {
 2233              		.loc 1 846 23 is_stmt 0 view .LVU768
 2234 0136 CB69     		ldr	r3, [r1, #28]
 846:Drivers/STM32F7xx_HAL_Driver/Src/stm32f7xx_ll_usb.c ****       {
 2235              		.loc 1 846 10 view .LVU769
 2236 0138 1BB1     		cbz	r3, .L149
 848:Drivers/STM32F7xx_HAL_Driver/Src/stm32f7xx_ll_usb.c ****       }
 2237              		.loc 1 848 9 is_stmt 1 view .LVU770
 2238 013a 00EB4412 		add	r2, r0, r4, lsl #5
 2239              	.LVL144:
 848:Drivers/STM32F7xx_HAL_Driver/Src/stm32f7xx_ll_usb.c ****       }
 2240              		.loc 1 848 35 is_stmt 0 view .LVU771
 2241 013e C2F81439 		str	r3, [r2, #2324]
 2242              	.L149:
 851:Drivers/STM32F7xx_HAL_Driver/Src/stm32f7xx_ll_usb.c ****       {
 2243              		.loc 1 851 7 is_stmt 1 view .LVU772
 851:Drivers/STM32F7xx_HAL_Driver/Src/stm32f7xx_ll_usb.c ****       {
 2244              		.loc 1 851 13 is_stmt 0 view .LVU773
 2245 0142 0B79     		ldrb	r3, [r1, #4]	@ zero_extendqisi2
 851:Drivers/STM32F7xx_HAL_Driver/Src/stm32f7xx_ll_usb.c ****       {
 2246              		.loc 1 851 10 view .LVU774
 2247 0144 012B     		cmp	r3, #1
 2248 0146 08D0     		beq	.L168
 2249              	.L150:
 864:Drivers/STM32F7xx_HAL_Driver/Src/stm32f7xx_ll_usb.c ****     }
 2250              		.loc 1 864 7 is_stmt 1 view .LVU775
 864:Drivers/STM32F7xx_HAL_Driver/Src/stm32f7xx_ll_usb.c ****     }
 2251              		.loc 1 864 23 is_stmt 0 view .LVU776
 2252 0148 00EB4414 		add	r4, r0, r4, lsl #5
 2253              	.LVL145:
 864:Drivers/STM32F7xx_HAL_Driver/Src/stm32f7xx_ll_usb.c ****     }
 2254              		.loc 1 864 23 view .LVU777
 2255 014c D4F80039 		ldr	r3, [r4, #2304]
 864:Drivers/STM32F7xx_HAL_Driver/Src/stm32f7xx_ll_usb.c ****     }
 2256              		.loc 1 864 33 view .LVU778
 2257 0150 43F00443 		orr	r3, r3, #-2080374784
 2258 0154 C4F80039 		str	r3, [r4, #2304]
 2259 0158 83E7     		b	.L152
 2260              	.LVL146:
 2261              	.L168:
 853:Drivers/STM32F7xx_HAL_Driver/Src/stm32f7xx_ll_usb.c ****         {
 2262              		.loc 1 853 9 is_stmt 1 view .LVU779
 853:Drivers/STM32F7xx_HAL_Driver/Src/stm32f7xx_ll_usb.c ****         {
ARM GAS  /var/folders/8d/8djywmp92nx9cg9c5pcw0px00000gn/T//ccLp59Ij.s 			page 79


 2263              		.loc 1 853 25 is_stmt 0 view .LVU780
 2264 015a D0F80838 		ldr	r3, [r0, #2056]
 853:Drivers/STM32F7xx_HAL_Driver/Src/stm32f7xx_ll_usb.c ****         {
 2265              		.loc 1 853 12 view .LVU781
 2266 015e 13F4807F 		tst	r3, #256
 2267 0162 08D1     		bne	.L151
 855:Drivers/STM32F7xx_HAL_Driver/Src/stm32f7xx_ll_usb.c ****         }
 2268              		.loc 1 855 11 is_stmt 1 view .LVU782
 855:Drivers/STM32F7xx_HAL_Driver/Src/stm32f7xx_ll_usb.c ****         }
 2269              		.loc 1 855 27 is_stmt 0 view .LVU783
 2270 0164 00EB4412 		add	r2, r0, r4, lsl #5
 2271 0168 D2F80039 		ldr	r3, [r2, #2304]
 855:Drivers/STM32F7xx_HAL_Driver/Src/stm32f7xx_ll_usb.c ****         }
 2272              		.loc 1 855 37 view .LVU784
 2273 016c 43F00053 		orr	r3, r3, #536870912
 2274 0170 C2F80039 		str	r3, [r2, #2304]
 2275 0174 E8E7     		b	.L150
 2276              	.L151:
 859:Drivers/STM32F7xx_HAL_Driver/Src/stm32f7xx_ll_usb.c ****         }
 2277              		.loc 1 859 11 is_stmt 1 view .LVU785
 859:Drivers/STM32F7xx_HAL_Driver/Src/stm32f7xx_ll_usb.c ****         }
 2278              		.loc 1 859 27 is_stmt 0 view .LVU786
 2279 0176 00EB4412 		add	r2, r0, r4, lsl #5
 2280 017a D2F80039 		ldr	r3, [r2, #2304]
 859:Drivers/STM32F7xx_HAL_Driver/Src/stm32f7xx_ll_usb.c ****         }
 2281              		.loc 1 859 37 view .LVU787
 2282 017e 43F08053 		orr	r3, r3, #268435456
 2283 0182 C2F80039 		str	r3, [r2, #2304]
 2284 0186 DFE7     		b	.L150
 2285              	.LVL147:
 2286              	.L153:
 881:Drivers/STM32F7xx_HAL_Driver/Src/stm32f7xx_ll_usb.c ****         {
 2287              		.loc 1 881 9 is_stmt 1 view .LVU788
 881:Drivers/STM32F7xx_HAL_Driver/Src/stm32f7xx_ll_usb.c ****         {
 2288              		.loc 1 881 25 is_stmt 0 view .LVU789
 2289 0188 D0F80838 		ldr	r3, [r0, #2056]
 881:Drivers/STM32F7xx_HAL_Driver/Src/stm32f7xx_ll_usb.c ****         {
 2290              		.loc 1 881 12 view .LVU790
 2291 018c 13F4807F 		tst	r3, #256
 2292 0190 0CD1     		bne	.L154
 883:Drivers/STM32F7xx_HAL_Driver/Src/stm32f7xx_ll_usb.c ****         }
 2293              		.loc 1 883 11 is_stmt 1 view .LVU791
 883:Drivers/STM32F7xx_HAL_Driver/Src/stm32f7xx_ll_usb.c ****         }
 2294              		.loc 1 883 27 is_stmt 0 view .LVU792
 2295 0192 D4F80039 		ldr	r3, [r4, #2304]
 883:Drivers/STM32F7xx_HAL_Driver/Src/stm32f7xx_ll_usb.c ****         }
 2296              		.loc 1 883 37 view .LVU793
 2297 0196 43F00053 		orr	r3, r3, #536870912
 2298 019a C4F80039 		str	r3, [r4, #2304]
 2299              	.L155:
 890:Drivers/STM32F7xx_HAL_Driver/Src/stm32f7xx_ll_usb.c ****       }
 2300              		.loc 1 890 9 is_stmt 1 view .LVU794
 890:Drivers/STM32F7xx_HAL_Driver/Src/stm32f7xx_ll_usb.c ****       }
 2301              		.loc 1 890 15 is_stmt 0 view .LVU795
 2302 019e 0092     		str	r2, [sp]
 2303 01a0 0B8A     		ldrh	r3, [r1, #16]
 2304 01a2 0A78     		ldrb	r2, [r1]	@ zero_extendqisi2
ARM GAS  /var/folders/8d/8djywmp92nx9cg9c5pcw0px00000gn/T//ccLp59Ij.s 			page 80


 2305              	.LVL148:
 890:Drivers/STM32F7xx_HAL_Driver/Src/stm32f7xx_ll_usb.c ****       }
 2306              		.loc 1 890 15 view .LVU796
 2307 01a4 C968     		ldr	r1, [r1, #12]
 2308              	.LVL149:
 890:Drivers/STM32F7xx_HAL_Driver/Src/stm32f7xx_ll_usb.c ****       }
 2309              		.loc 1 890 15 view .LVU797
 2310 01a6 FFF7FEFF 		bl	USB_WritePacket
 2311              	.LVL150:
 890:Drivers/STM32F7xx_HAL_Driver/Src/stm32f7xx_ll_usb.c ****       }
 2312              		.loc 1 890 15 view .LVU798
 2313 01aa 5AE7     		b	.L152
 2314              	.LVL151:
 2315              	.L154:
 887:Drivers/STM32F7xx_HAL_Driver/Src/stm32f7xx_ll_usb.c ****         }
 2316              		.loc 1 887 11 is_stmt 1 view .LVU799
 887:Drivers/STM32F7xx_HAL_Driver/Src/stm32f7xx_ll_usb.c ****         }
 2317              		.loc 1 887 27 is_stmt 0 view .LVU800
 2318 01ac D4F80039 		ldr	r3, [r4, #2304]
 887:Drivers/STM32F7xx_HAL_Driver/Src/stm32f7xx_ll_usb.c ****         }
 2319              		.loc 1 887 37 view .LVU801
 2320 01b0 43F08053 		orr	r3, r3, #268435456
 2321 01b4 C4F80039 		str	r3, [r4, #2304]
 2322 01b8 F1E7     		b	.L155
 2323              	.LVL152:
 2324              	.L156:
 918:Drivers/STM32F7xx_HAL_Driver/Src/stm32f7xx_ll_usb.c ****       {
 2325              		.loc 1 918 7 is_stmt 1 view .LVU802
 918:Drivers/STM32F7xx_HAL_Driver/Src/stm32f7xx_ll_usb.c ****       {
 2326              		.loc 1 918 13 is_stmt 0 view .LVU803
 2327 01ba 0C69     		ldr	r4, [r1, #16]
 2328              	.LVL153:
 918:Drivers/STM32F7xx_HAL_Driver/Src/stm32f7xx_ll_usb.c ****       {
 2329              		.loc 1 918 10 view .LVU804
 2330 01bc 54B9     		cbnz	r4, .L159
 920:Drivers/STM32F7xx_HAL_Driver/Src/stm32f7xx_ll_usb.c ****         USBx_OUTEP(epnum)->DOEPTSIZ |= (USB_OTG_DOEPTSIZ_PKTCNT & (1U << 19));
 2331              		.loc 1 920 9 is_stmt 1 view .LVU805
 920:Drivers/STM32F7xx_HAL_Driver/Src/stm32f7xx_ll_usb.c ****         USBx_OUTEP(epnum)->DOEPTSIZ |= (USB_OTG_DOEPTSIZ_PKTCNT & (1U << 19));
 2332              		.loc 1 920 26 is_stmt 0 view .LVU806
 2333 01be 1C69     		ldr	r4, [r3, #16]
 920:Drivers/STM32F7xx_HAL_Driver/Src/stm32f7xx_ll_usb.c ****         USBx_OUTEP(epnum)->DOEPTSIZ |= (USB_OTG_DOEPTSIZ_PKTCNT & (1U << 19));
 2334              		.loc 1 920 69 view .LVU807
 2335 01c0 8D68     		ldr	r5, [r1, #8]
 920:Drivers/STM32F7xx_HAL_Driver/Src/stm32f7xx_ll_usb.c ****         USBx_OUTEP(epnum)->DOEPTSIZ |= (USB_OTG_DOEPTSIZ_PKTCNT & (1U << 19));
 2336              		.loc 1 920 65 view .LVU808
 2337 01c2 C5F31205 		ubfx	r5, r5, #0, #19
 920:Drivers/STM32F7xx_HAL_Driver/Src/stm32f7xx_ll_usb.c ****         USBx_OUTEP(epnum)->DOEPTSIZ |= (USB_OTG_DOEPTSIZ_PKTCNT & (1U << 19));
 2338              		.loc 1 920 37 view .LVU809
 2339 01c6 2C43     		orrs	r4, r4, r5
 2340 01c8 1C61     		str	r4, [r3, #16]
 921:Drivers/STM32F7xx_HAL_Driver/Src/stm32f7xx_ll_usb.c ****       }
 2341              		.loc 1 921 9 is_stmt 1 view .LVU810
 921:Drivers/STM32F7xx_HAL_Driver/Src/stm32f7xx_ll_usb.c ****       }
 2342              		.loc 1 921 26 is_stmt 0 view .LVU811
 2343 01ca 1C69     		ldr	r4, [r3, #16]
 921:Drivers/STM32F7xx_HAL_Driver/Src/stm32f7xx_ll_usb.c ****       }
 2344              		.loc 1 921 37 view .LVU812
ARM GAS  /var/folders/8d/8djywmp92nx9cg9c5pcw0px00000gn/T//ccLp59Ij.s 			page 81


 2345 01cc 44F40024 		orr	r4, r4, #524288
 2346 01d0 1C61     		str	r4, [r3, #16]
 2347 01d2 39E7     		b	.L158
 2348              	.L159:
 925:Drivers/STM32F7xx_HAL_Driver/Src/stm32f7xx_ll_usb.c ****         ep->xfer_size = ep->maxpacket * pktcnt;
 2349              		.loc 1 925 9 is_stmt 1 view .LVU813
 925:Drivers/STM32F7xx_HAL_Driver/Src/stm32f7xx_ll_usb.c ****         ep->xfer_size = ep->maxpacket * pktcnt;
 2350              		.loc 1 925 47 is_stmt 0 view .LVU814
 2351 01d4 8D68     		ldr	r5, [r1, #8]
 925:Drivers/STM32F7xx_HAL_Driver/Src/stm32f7xx_ll_usb.c ****         ep->xfer_size = ep->maxpacket * pktcnt;
 2352              		.loc 1 925 43 view .LVU815
 2353 01d6 2C44     		add	r4, r4, r5
 925:Drivers/STM32F7xx_HAL_Driver/Src/stm32f7xx_ll_usb.c ****         ep->xfer_size = ep->maxpacket * pktcnt;
 2354              		.loc 1 925 59 view .LVU816
 2355 01d8 013C     		subs	r4, r4, #1
 925:Drivers/STM32F7xx_HAL_Driver/Src/stm32f7xx_ll_usb.c ****         ep->xfer_size = ep->maxpacket * pktcnt;
 2356              		.loc 1 925 65 view .LVU817
 2357 01da B4FBF5F4 		udiv	r4, r4, r5
 2358              	.LVL154:
 926:Drivers/STM32F7xx_HAL_Driver/Src/stm32f7xx_ll_usb.c **** 
 2359              		.loc 1 926 9 is_stmt 1 view .LVU818
 2360 01de A4B2     		uxth	r4, r4
 926:Drivers/STM32F7xx_HAL_Driver/Src/stm32f7xx_ll_usb.c **** 
 2361              		.loc 1 926 39 is_stmt 0 view .LVU819
 2362 01e0 04FB05F5 		mul	r5, r4, r5
 926:Drivers/STM32F7xx_HAL_Driver/Src/stm32f7xx_ll_usb.c **** 
 2363              		.loc 1 926 23 view .LVU820
 2364 01e4 0D62     		str	r5, [r1, #32]
 928:Drivers/STM32F7xx_HAL_Driver/Src/stm32f7xx_ll_usb.c ****         USBx_OUTEP(epnum)->DOEPTSIZ |= USB_OTG_DOEPTSIZ_XFRSIZ & ep->xfer_size;
 2365              		.loc 1 928 9 is_stmt 1 view .LVU821
 928:Drivers/STM32F7xx_HAL_Driver/Src/stm32f7xx_ll_usb.c ****         USBx_OUTEP(epnum)->DOEPTSIZ |= USB_OTG_DOEPTSIZ_XFRSIZ & ep->xfer_size;
 2366              		.loc 1 928 26 is_stmt 0 view .LVU822
 2367 01e6 1D69     		ldr	r5, [r3, #16]
 928:Drivers/STM32F7xx_HAL_Driver/Src/stm32f7xx_ll_usb.c ****         USBx_OUTEP(epnum)->DOEPTSIZ |= USB_OTG_DOEPTSIZ_XFRSIZ & ep->xfer_size;
 2368              		.loc 1 928 64 view .LVU823
 2369 01e8 124E     		ldr	r6, .L169
 2370 01ea 06EAC444 		and	r4, r6, r4, lsl #19
 2371              	.LVL155:
 928:Drivers/STM32F7xx_HAL_Driver/Src/stm32f7xx_ll_usb.c ****         USBx_OUTEP(epnum)->DOEPTSIZ |= USB_OTG_DOEPTSIZ_XFRSIZ & ep->xfer_size;
 2372              		.loc 1 928 37 view .LVU824
 2373 01ee 2C43     		orrs	r4, r4, r5
 2374 01f0 1C61     		str	r4, [r3, #16]
 2375              	.LVL156:
 929:Drivers/STM32F7xx_HAL_Driver/Src/stm32f7xx_ll_usb.c ****       }
 2376              		.loc 1 929 9 is_stmt 1 view .LVU825
 929:Drivers/STM32F7xx_HAL_Driver/Src/stm32f7xx_ll_usb.c ****       }
 2377              		.loc 1 929 26 is_stmt 0 view .LVU826
 2378 01f2 1C69     		ldr	r4, [r3, #16]
 929:Drivers/STM32F7xx_HAL_Driver/Src/stm32f7xx_ll_usb.c ****       }
 2379              		.loc 1 929 68 view .LVU827
 2380 01f4 0D6A     		ldr	r5, [r1, #32]
 929:Drivers/STM32F7xx_HAL_Driver/Src/stm32f7xx_ll_usb.c ****       }
 2381              		.loc 1 929 64 view .LVU828
 2382 01f6 C5F31205 		ubfx	r5, r5, #0, #19
 929:Drivers/STM32F7xx_HAL_Driver/Src/stm32f7xx_ll_usb.c ****       }
 2383              		.loc 1 929 37 view .LVU829
 2384 01fa 2C43     		orrs	r4, r4, r5
ARM GAS  /var/folders/8d/8djywmp92nx9cg9c5pcw0px00000gn/T//ccLp59Ij.s 			page 82


 2385 01fc 1C61     		str	r4, [r3, #16]
 2386 01fe 23E7     		b	.L158
 2387              	.LVL157:
 2388              	.L165:
 935:Drivers/STM32F7xx_HAL_Driver/Src/stm32f7xx_ll_usb.c ****       {
 2389              		.loc 1 935 7 is_stmt 1 view .LVU830
 935:Drivers/STM32F7xx_HAL_Driver/Src/stm32f7xx_ll_usb.c ****       {
 2390              		.loc 1 935 23 is_stmt 0 view .LVU831
 2391 0200 CA68     		ldr	r2, [r1, #12]
 2392              	.LVL158:
 935:Drivers/STM32F7xx_HAL_Driver/Src/stm32f7xx_ll_usb.c ****       {
 2393              		.loc 1 935 10 view .LVU832
 2394 0202 002A     		cmp	r2, #0
 2395 0204 3FF423AF 		beq	.L160
 937:Drivers/STM32F7xx_HAL_Driver/Src/stm32f7xx_ll_usb.c ****       }
 2396              		.loc 1 937 9 is_stmt 1 view .LVU833
 937:Drivers/STM32F7xx_HAL_Driver/Src/stm32f7xx_ll_usb.c ****       }
 2397              		.loc 1 937 36 is_stmt 0 view .LVU834
 2398 0208 5A61     		str	r2, [r3, #20]
 2399 020a 20E7     		b	.L160
 2400              	.L166:
 943:Drivers/STM32F7xx_HAL_Driver/Src/stm32f7xx_ll_usb.c ****       {
 2401              		.loc 1 943 7 is_stmt 1 view .LVU835
 943:Drivers/STM32F7xx_HAL_Driver/Src/stm32f7xx_ll_usb.c ****       {
 2402              		.loc 1 943 23 is_stmt 0 view .LVU836
 2403 020c D0F80838 		ldr	r3, [r0, #2056]
 943:Drivers/STM32F7xx_HAL_Driver/Src/stm32f7xx_ll_usb.c ****       {
 2404              		.loc 1 943 10 view .LVU837
 2405 0210 13F4807F 		tst	r3, #256
 2406 0214 06D1     		bne	.L162
 945:Drivers/STM32F7xx_HAL_Driver/Src/stm32f7xx_ll_usb.c ****       }
 2407              		.loc 1 945 9 is_stmt 1 view .LVU838
 945:Drivers/STM32F7xx_HAL_Driver/Src/stm32f7xx_ll_usb.c ****       }
 2408              		.loc 1 945 26 is_stmt 0 view .LVU839
 2409 0216 DCF8003B 		ldr	r3, [ip, #2816]
 945:Drivers/STM32F7xx_HAL_Driver/Src/stm32f7xx_ll_usb.c ****       }
 2410              		.loc 1 945 36 view .LVU840
 2411 021a 43F00053 		orr	r3, r3, #536870912
 2412 021e CCF8003B 		str	r3, [ip, #2816]
 2413 0222 18E7     		b	.L161
 2414              	.L162:
 949:Drivers/STM32F7xx_HAL_Driver/Src/stm32f7xx_ll_usb.c ****       }
 2415              		.loc 1 949 9 is_stmt 1 view .LVU841
 949:Drivers/STM32F7xx_HAL_Driver/Src/stm32f7xx_ll_usb.c ****       }
 2416              		.loc 1 949 26 is_stmt 0 view .LVU842
 2417 0224 DCF8003B 		ldr	r3, [ip, #2816]
 949:Drivers/STM32F7xx_HAL_Driver/Src/stm32f7xx_ll_usb.c ****       }
 2418              		.loc 1 949 36 view .LVU843
 2419 0228 43F08053 		orr	r3, r3, #268435456
 2420 022c CCF8003B 		str	r3, [ip, #2816]
 2421 0230 11E7     		b	.L161
 2422              	.L170:
 2423 0232 00BF     		.align	2
 2424              	.L169:
 2425 0234 0000F81F 		.word	536346624
 2426              		.cfi_endproc
 2427              	.LFE155:
ARM GAS  /var/folders/8d/8djywmp92nx9cg9c5pcw0px00000gn/T//ccLp59Ij.s 			page 83


 2429              		.section	.text.USB_ReadPacket,"ax",%progbits
 2430              		.align	1
 2431              		.global	USB_ReadPacket
 2432              		.syntax unified
 2433              		.thumb
 2434              		.thumb_func
 2436              	USB_ReadPacket:
 2437              	.LVL159:
 2438              	.LFB158:
1062:Drivers/STM32F7xx_HAL_Driver/Src/stm32f7xx_ll_usb.c ****   uint32_t USBx_BASE = (uint32_t)USBx;
 2439              		.loc 1 1062 1 is_stmt 1 view -0
 2440              		.cfi_startproc
 2441              		@ args = 0, pretend = 0, frame = 0
 2442              		@ frame_needed = 0, uses_anonymous_args = 0
1062:Drivers/STM32F7xx_HAL_Driver/Src/stm32f7xx_ll_usb.c ****   uint32_t USBx_BASE = (uint32_t)USBx;
 2443              		.loc 1 1062 1 is_stmt 0 view .LVU845
 2444 0000 10B5     		push	{r4, lr}
 2445              		.cfi_def_cfa_offset 8
 2446              		.cfi_offset 4, -8
 2447              		.cfi_offset 14, -4
 2448 0002 8446     		mov	ip, r0
 2449 0004 0846     		mov	r0, r1
 2450              	.LVL160:
1063:Drivers/STM32F7xx_HAL_Driver/Src/stm32f7xx_ll_usb.c ****   uint8_t *pDest = dest;
 2451              		.loc 1 1063 3 is_stmt 1 view .LVU846
1064:Drivers/STM32F7xx_HAL_Driver/Src/stm32f7xx_ll_usb.c ****   uint32_t pData;
 2452              		.loc 1 1064 3 view .LVU847
1065:Drivers/STM32F7xx_HAL_Driver/Src/stm32f7xx_ll_usb.c ****   uint32_t i;
 2453              		.loc 1 1065 3 view .LVU848
1066:Drivers/STM32F7xx_HAL_Driver/Src/stm32f7xx_ll_usb.c ****   uint32_t count32b = (uint32_t)len >> 2U;
 2454              		.loc 1 1066 3 view .LVU849
1067:Drivers/STM32F7xx_HAL_Driver/Src/stm32f7xx_ll_usb.c ****   uint16_t remaining_bytes = len % 4U;
 2455              		.loc 1 1067 3 view .LVU850
1067:Drivers/STM32F7xx_HAL_Driver/Src/stm32f7xx_ll_usb.c ****   uint16_t remaining_bytes = len % 4U;
 2456              		.loc 1 1067 37 is_stmt 0 view .LVU851
 2457 0006 4FEA920E 		lsr	lr, r2, #2
 2458              	.LVL161:
1068:Drivers/STM32F7xx_HAL_Driver/Src/stm32f7xx_ll_usb.c **** 
 2459              		.loc 1 1068 3 is_stmt 1 view .LVU852
1068:Drivers/STM32F7xx_HAL_Driver/Src/stm32f7xx_ll_usb.c **** 
 2460              		.loc 1 1068 12 is_stmt 0 view .LVU853
 2461 000a 02F00302 		and	r2, r2, #3
 2462              	.LVL162:
1070:Drivers/STM32F7xx_HAL_Driver/Src/stm32f7xx_ll_usb.c ****   {
 2463              		.loc 1 1070 3 is_stmt 1 view .LVU854
1070:Drivers/STM32F7xx_HAL_Driver/Src/stm32f7xx_ll_usb.c ****   {
 2464              		.loc 1 1070 10 is_stmt 0 view .LVU855
 2465 000e 0023     		movs	r3, #0
1070:Drivers/STM32F7xx_HAL_Driver/Src/stm32f7xx_ll_usb.c ****   {
 2466              		.loc 1 1070 3 view .LVU856
 2467 0010 05E0     		b	.L172
 2468              	.LVL163:
 2469              	.L173:
1072:Drivers/STM32F7xx_HAL_Driver/Src/stm32f7xx_ll_usb.c ****     pDest++;
 2470              		.loc 1 1072 5 is_stmt 1 view .LVU857
 2471 0012 0CF58051 		add	r1, ip, #4096
 2472 0016 0968     		ldr	r1, [r1]
ARM GAS  /var/folders/8d/8djywmp92nx9cg9c5pcw0px00000gn/T//ccLp59Ij.s 			page 84


 2473 0018 40F8041B 		str	r1, [r0], #4	@ unaligned
 2474              	.LVL164:
1073:Drivers/STM32F7xx_HAL_Driver/Src/stm32f7xx_ll_usb.c ****     pDest++;
 2475              		.loc 1 1073 5 view .LVU858
1074:Drivers/STM32F7xx_HAL_Driver/Src/stm32f7xx_ll_usb.c ****     pDest++;
 2476              		.loc 1 1074 5 view .LVU859
1075:Drivers/STM32F7xx_HAL_Driver/Src/stm32f7xx_ll_usb.c ****     pDest++;
 2477              		.loc 1 1075 5 view .LVU860
1076:Drivers/STM32F7xx_HAL_Driver/Src/stm32f7xx_ll_usb.c ****   }
 2478              		.loc 1 1076 5 view .LVU861
1070:Drivers/STM32F7xx_HAL_Driver/Src/stm32f7xx_ll_usb.c ****   {
 2479              		.loc 1 1070 31 discriminator 3 view .LVU862
 2480 001c 0133     		adds	r3, r3, #1
 2481              	.LVL165:
 2482              	.L172:
1070:Drivers/STM32F7xx_HAL_Driver/Src/stm32f7xx_ll_usb.c ****   {
 2483              		.loc 1 1070 18 discriminator 1 view .LVU863
 2484 001e 7345     		cmp	r3, lr
 2485 0020 F7D3     		bcc	.L173
1080:Drivers/STM32F7xx_HAL_Driver/Src/stm32f7xx_ll_usb.c ****   {
 2486              		.loc 1 1080 3 view .LVU864
1080:Drivers/STM32F7xx_HAL_Driver/Src/stm32f7xx_ll_usb.c ****   {
 2487              		.loc 1 1080 6 is_stmt 0 view .LVU865
 2488 0022 7AB1     		cbz	r2, .L174
1082:Drivers/STM32F7xx_HAL_Driver/Src/stm32f7xx_ll_usb.c ****     __UNALIGNED_UINT32_WRITE(&pData, USBx_DFIFO(0U));
 2489              		.loc 1 1082 5 is_stmt 1 view .LVU866
 2490              	.LVL166:
1083:Drivers/STM32F7xx_HAL_Driver/Src/stm32f7xx_ll_usb.c **** 
 2491              		.loc 1 1083 5 view .LVU867
 2492 0024 0CF5805C 		add	ip, ip, #4096
 2493              	.LVL167:
1083:Drivers/STM32F7xx_HAL_Driver/Src/stm32f7xx_ll_usb.c **** 
 2494              		.loc 1 1083 5 is_stmt 0 view .LVU868
 2495 0028 DCF80040 		ldr	r4, [ip]
1082:Drivers/STM32F7xx_HAL_Driver/Src/stm32f7xx_ll_usb.c ****     __UNALIGNED_UINT32_WRITE(&pData, USBx_DFIFO(0U));
 2496              		.loc 1 1082 7 view .LVU869
 2497 002c 0021     		movs	r1, #0
 2498              	.LVL168:
 2499              	.L175:
1085:Drivers/STM32F7xx_HAL_Driver/Src/stm32f7xx_ll_usb.c ****     {
 2500              		.loc 1 1085 5 is_stmt 1 view .LVU870
1087:Drivers/STM32F7xx_HAL_Driver/Src/stm32f7xx_ll_usb.c ****       i++;
 2501              		.loc 1 1087 7 view .LVU871
1087:Drivers/STM32F7xx_HAL_Driver/Src/stm32f7xx_ll_usb.c ****       i++;
 2502              		.loc 1 1087 50 is_stmt 0 view .LVU872
 2503 002e CBB2     		uxtb	r3, r1
 2504 0030 DB00     		lsls	r3, r3, #3
1087:Drivers/STM32F7xx_HAL_Driver/Src/stm32f7xx_ll_usb.c ****       i++;
 2505              		.loc 1 1087 43 view .LVU873
 2506 0032 24FA03F3 		lsr	r3, r4, r3
1087:Drivers/STM32F7xx_HAL_Driver/Src/stm32f7xx_ll_usb.c ****       i++;
 2507              		.loc 1 1087 25 view .LVU874
 2508 0036 00F8013B 		strb	r3, [r0], #1
 2509              	.LVL169:
1088:Drivers/STM32F7xx_HAL_Driver/Src/stm32f7xx_ll_usb.c ****       pDest++;
 2510              		.loc 1 1088 7 is_stmt 1 view .LVU875
1088:Drivers/STM32F7xx_HAL_Driver/Src/stm32f7xx_ll_usb.c ****       pDest++;
ARM GAS  /var/folders/8d/8djywmp92nx9cg9c5pcw0px00000gn/T//ccLp59Ij.s 			page 85


 2511              		.loc 1 1088 8 is_stmt 0 view .LVU876
 2512 003a 0131     		adds	r1, r1, #1
 2513              	.LVL170:
1089:Drivers/STM32F7xx_HAL_Driver/Src/stm32f7xx_ll_usb.c ****       remaining_bytes--;
 2514              		.loc 1 1089 7 is_stmt 1 view .LVU877
1090:Drivers/STM32F7xx_HAL_Driver/Src/stm32f7xx_ll_usb.c ****     } while (remaining_bytes != 0U);
 2515              		.loc 1 1090 7 view .LVU878
1090:Drivers/STM32F7xx_HAL_Driver/Src/stm32f7xx_ll_usb.c ****     } while (remaining_bytes != 0U);
 2516              		.loc 1 1090 22 is_stmt 0 view .LVU879
 2517 003c 013A     		subs	r2, r2, #1
 2518              	.LVL171:
1090:Drivers/STM32F7xx_HAL_Driver/Src/stm32f7xx_ll_usb.c ****     } while (remaining_bytes != 0U);
 2519              		.loc 1 1090 22 view .LVU880
 2520 003e 92B2     		uxth	r2, r2
 2521              	.LVL172:
1091:Drivers/STM32F7xx_HAL_Driver/Src/stm32f7xx_ll_usb.c ****   }
 2522              		.loc 1 1091 30 is_stmt 1 discriminator 1 view .LVU881
 2523 0040 002A     		cmp	r2, #0
 2524 0042 F4D1     		bne	.L175
 2525              	.LVL173:
 2526              	.L174:
1094:Drivers/STM32F7xx_HAL_Driver/Src/stm32f7xx_ll_usb.c **** }
 2527              		.loc 1 1094 3 view .LVU882
1095:Drivers/STM32F7xx_HAL_Driver/Src/stm32f7xx_ll_usb.c **** 
 2528              		.loc 1 1095 1 is_stmt 0 view .LVU883
 2529 0044 10BD     		pop	{r4, pc}
 2530              		.cfi_endproc
 2531              	.LFE158:
 2533              		.section	.text.USB_EPSetStall,"ax",%progbits
 2534              		.align	1
 2535              		.global	USB_EPSetStall
 2536              		.syntax unified
 2537              		.thumb
 2538              		.thumb_func
 2540              	USB_EPSetStall:
 2541              	.LVL174:
 2542              	.LFB159:
1104:Drivers/STM32F7xx_HAL_Driver/Src/stm32f7xx_ll_usb.c ****   uint32_t USBx_BASE = (uint32_t)USBx;
 2543              		.loc 1 1104 1 is_stmt 1 view -0
 2544              		.cfi_startproc
 2545              		@ args = 0, pretend = 0, frame = 0
 2546              		@ frame_needed = 0, uses_anonymous_args = 0
 2547              		@ link register save eliminated.
1105:Drivers/STM32F7xx_HAL_Driver/Src/stm32f7xx_ll_usb.c ****   uint32_t epnum = (uint32_t)ep->num;
 2548              		.loc 1 1105 3 view .LVU885
1106:Drivers/STM32F7xx_HAL_Driver/Src/stm32f7xx_ll_usb.c **** 
 2549              		.loc 1 1106 3 view .LVU886
1106:Drivers/STM32F7xx_HAL_Driver/Src/stm32f7xx_ll_usb.c **** 
 2550              		.loc 1 1106 32 is_stmt 0 view .LVU887
 2551 0000 0B78     		ldrb	r3, [r1]	@ zero_extendqisi2
 2552              	.LVL175:
1108:Drivers/STM32F7xx_HAL_Driver/Src/stm32f7xx_ll_usb.c ****   {
 2553              		.loc 1 1108 3 is_stmt 1 view .LVU888
1108:Drivers/STM32F7xx_HAL_Driver/Src/stm32f7xx_ll_usb.c ****   {
 2554              		.loc 1 1108 9 is_stmt 0 view .LVU889
 2555 0002 4A78     		ldrb	r2, [r1, #1]	@ zero_extendqisi2
1108:Drivers/STM32F7xx_HAL_Driver/Src/stm32f7xx_ll_usb.c ****   {
ARM GAS  /var/folders/8d/8djywmp92nx9cg9c5pcw0px00000gn/T//ccLp59Ij.s 			page 86


 2556              		.loc 1 1108 6 view .LVU890
 2557 0004 012A     		cmp	r2, #1
 2558 0006 14D0     		beq	.L182
1118:Drivers/STM32F7xx_HAL_Driver/Src/stm32f7xx_ll_usb.c ****     {
 2559              		.loc 1 1118 5 is_stmt 1 view .LVU891
1118:Drivers/STM32F7xx_HAL_Driver/Src/stm32f7xx_ll_usb.c ****     {
 2560              		.loc 1 1118 11 is_stmt 0 view .LVU892
 2561 0008 00EB4310 		add	r0, r0, r3, lsl #5
 2562              	.LVL176:
1118:Drivers/STM32F7xx_HAL_Driver/Src/stm32f7xx_ll_usb.c ****     {
 2563              		.loc 1 1118 28 view .LVU893
 2564 000c D0F8002B 		ldr	r2, [r0, #2816]
1118:Drivers/STM32F7xx_HAL_Driver/Src/stm32f7xx_ll_usb.c ****     {
 2565              		.loc 1 1118 8 view .LVU894
 2566 0010 002A     		cmp	r2, #0
 2567 0012 06DB     		blt	.L181
1118:Drivers/STM32F7xx_HAL_Driver/Src/stm32f7xx_ll_usb.c ****     {
 2568              		.loc 1 1118 70 discriminator 1 view .LVU895
 2569 0014 2BB1     		cbz	r3, .L181
1120:Drivers/STM32F7xx_HAL_Driver/Src/stm32f7xx_ll_usb.c ****     }
 2570              		.loc 1 1120 7 is_stmt 1 view .LVU896
1120:Drivers/STM32F7xx_HAL_Driver/Src/stm32f7xx_ll_usb.c ****     }
 2571              		.loc 1 1120 24 is_stmt 0 view .LVU897
 2572 0016 D0F8003B 		ldr	r3, [r0, #2816]
 2573              	.LVL177:
1120:Drivers/STM32F7xx_HAL_Driver/Src/stm32f7xx_ll_usb.c ****     }
 2574              		.loc 1 1120 34 view .LVU898
 2575 001a 23F08043 		bic	r3, r3, #1073741824
 2576 001e C0F8003B 		str	r3, [r0, #2816]
 2577              	.LVL178:
 2578              	.L181:
1122:Drivers/STM32F7xx_HAL_Driver/Src/stm32f7xx_ll_usb.c ****   }
 2579              		.loc 1 1122 5 is_stmt 1 view .LVU899
1122:Drivers/STM32F7xx_HAL_Driver/Src/stm32f7xx_ll_usb.c ****   }
 2580              		.loc 1 1122 22 is_stmt 0 view .LVU900
 2581 0022 D0F8003B 		ldr	r3, [r0, #2816]
1122:Drivers/STM32F7xx_HAL_Driver/Src/stm32f7xx_ll_usb.c ****   }
 2582              		.loc 1 1122 32 view .LVU901
 2583 0026 43F40013 		orr	r3, r3, #2097152
 2584 002a C0F8003B 		str	r3, [r0, #2816]
 2585              	.L180:
1125:Drivers/STM32F7xx_HAL_Driver/Src/stm32f7xx_ll_usb.c **** }
 2586              		.loc 1 1125 3 is_stmt 1 view .LVU902
1126:Drivers/STM32F7xx_HAL_Driver/Src/stm32f7xx_ll_usb.c **** 
 2587              		.loc 1 1126 1 is_stmt 0 view .LVU903
 2588 002e 0020     		movs	r0, #0
 2589 0030 7047     		bx	lr
 2590              	.LVL179:
 2591              	.L182:
1110:Drivers/STM32F7xx_HAL_Driver/Src/stm32f7xx_ll_usb.c ****     {
 2592              		.loc 1 1110 5 is_stmt 1 view .LVU904
1110:Drivers/STM32F7xx_HAL_Driver/Src/stm32f7xx_ll_usb.c ****     {
 2593              		.loc 1 1110 11 is_stmt 0 view .LVU905
 2594 0032 00EB4310 		add	r0, r0, r3, lsl #5
 2595              	.LVL180:
1110:Drivers/STM32F7xx_HAL_Driver/Src/stm32f7xx_ll_usb.c ****     {
 2596              		.loc 1 1110 27 view .LVU906
ARM GAS  /var/folders/8d/8djywmp92nx9cg9c5pcw0px00000gn/T//ccLp59Ij.s 			page 87


 2597 0036 D0F80029 		ldr	r2, [r0, #2304]
1110:Drivers/STM32F7xx_HAL_Driver/Src/stm32f7xx_ll_usb.c ****     {
 2598              		.loc 1 1110 8 view .LVU907
 2599 003a 002A     		cmp	r2, #0
 2600 003c 06DB     		blt	.L179
1110:Drivers/STM32F7xx_HAL_Driver/Src/stm32f7xx_ll_usb.c ****     {
 2601              		.loc 1 1110 69 discriminator 1 view .LVU908
 2602 003e 2BB1     		cbz	r3, .L179
1112:Drivers/STM32F7xx_HAL_Driver/Src/stm32f7xx_ll_usb.c ****     }
 2603              		.loc 1 1112 7 is_stmt 1 view .LVU909
1112:Drivers/STM32F7xx_HAL_Driver/Src/stm32f7xx_ll_usb.c ****     }
 2604              		.loc 1 1112 23 is_stmt 0 view .LVU910
 2605 0040 D0F80039 		ldr	r3, [r0, #2304]
 2606              	.LVL181:
1112:Drivers/STM32F7xx_HAL_Driver/Src/stm32f7xx_ll_usb.c ****     }
 2607              		.loc 1 1112 33 view .LVU911
 2608 0044 23F08043 		bic	r3, r3, #1073741824
 2609 0048 C0F80039 		str	r3, [r0, #2304]
 2610              	.LVL182:
 2611              	.L179:
1114:Drivers/STM32F7xx_HAL_Driver/Src/stm32f7xx_ll_usb.c ****   }
 2612              		.loc 1 1114 5 is_stmt 1 view .LVU912
1114:Drivers/STM32F7xx_HAL_Driver/Src/stm32f7xx_ll_usb.c ****   }
 2613              		.loc 1 1114 21 is_stmt 0 view .LVU913
 2614 004c D0F80039 		ldr	r3, [r0, #2304]
1114:Drivers/STM32F7xx_HAL_Driver/Src/stm32f7xx_ll_usb.c ****   }
 2615              		.loc 1 1114 31 view .LVU914
 2616 0050 43F40013 		orr	r3, r3, #2097152
 2617 0054 C0F80039 		str	r3, [r0, #2304]
 2618 0058 E9E7     		b	.L180
 2619              		.cfi_endproc
 2620              	.LFE159:
 2622              		.section	.text.USB_EPClearStall,"ax",%progbits
 2623              		.align	1
 2624              		.global	USB_EPClearStall
 2625              		.syntax unified
 2626              		.thumb
 2627              		.thumb_func
 2629              	USB_EPClearStall:
 2630              	.LVL183:
 2631              	.LFB160:
1135:Drivers/STM32F7xx_HAL_Driver/Src/stm32f7xx_ll_usb.c ****   uint32_t USBx_BASE = (uint32_t)USBx;
 2632              		.loc 1 1135 1 is_stmt 1 view -0
 2633              		.cfi_startproc
 2634              		@ args = 0, pretend = 0, frame = 0
 2635              		@ frame_needed = 0, uses_anonymous_args = 0
 2636              		@ link register save eliminated.
1136:Drivers/STM32F7xx_HAL_Driver/Src/stm32f7xx_ll_usb.c ****   uint32_t epnum = (uint32_t)ep->num;
 2637              		.loc 1 1136 3 view .LVU916
1137:Drivers/STM32F7xx_HAL_Driver/Src/stm32f7xx_ll_usb.c **** 
 2638              		.loc 1 1137 3 view .LVU917
1137:Drivers/STM32F7xx_HAL_Driver/Src/stm32f7xx_ll_usb.c **** 
 2639              		.loc 1 1137 32 is_stmt 0 view .LVU918
 2640 0000 0B78     		ldrb	r3, [r1]	@ zero_extendqisi2
 2641              	.LVL184:
1139:Drivers/STM32F7xx_HAL_Driver/Src/stm32f7xx_ll_usb.c ****   {
 2642              		.loc 1 1139 3 is_stmt 1 view .LVU919
ARM GAS  /var/folders/8d/8djywmp92nx9cg9c5pcw0px00000gn/T//ccLp59Ij.s 			page 88


1139:Drivers/STM32F7xx_HAL_Driver/Src/stm32f7xx_ll_usb.c ****   {
 2643              		.loc 1 1139 9 is_stmt 0 view .LVU920
 2644 0002 4A78     		ldrb	r2, [r1, #1]	@ zero_extendqisi2
1139:Drivers/STM32F7xx_HAL_Driver/Src/stm32f7xx_ll_usb.c ****   {
 2645              		.loc 1 1139 6 view .LVU921
 2646 0004 012A     		cmp	r2, #1
 2647 0006 0ED0     		beq	.L186
1149:Drivers/STM32F7xx_HAL_Driver/Src/stm32f7xx_ll_usb.c ****     if ((ep->type == EP_TYPE_INTR) || (ep->type == EP_TYPE_BULK))
 2648              		.loc 1 1149 5 is_stmt 1 view .LVU922
1149:Drivers/STM32F7xx_HAL_Driver/Src/stm32f7xx_ll_usb.c ****     if ((ep->type == EP_TYPE_INTR) || (ep->type == EP_TYPE_BULK))
 2649              		.loc 1 1149 22 is_stmt 0 view .LVU923
 2650 0008 00EB4310 		add	r0, r0, r3, lsl #5
 2651              	.LVL185:
1149:Drivers/STM32F7xx_HAL_Driver/Src/stm32f7xx_ll_usb.c ****     if ((ep->type == EP_TYPE_INTR) || (ep->type == EP_TYPE_BULK))
 2652              		.loc 1 1149 22 view .LVU924
 2653 000c D0F8003B 		ldr	r3, [r0, #2816]
 2654              	.LVL186:
1149:Drivers/STM32F7xx_HAL_Driver/Src/stm32f7xx_ll_usb.c ****     if ((ep->type == EP_TYPE_INTR) || (ep->type == EP_TYPE_BULK))
 2655              		.loc 1 1149 32 view .LVU925
 2656 0010 23F40013 		bic	r3, r3, #2097152
 2657 0014 C0F8003B 		str	r3, [r0, #2816]
 2658              	.LVL187:
1150:Drivers/STM32F7xx_HAL_Driver/Src/stm32f7xx_ll_usb.c ****     {
 2659              		.loc 1 1150 5 is_stmt 1 view .LVU926
1150:Drivers/STM32F7xx_HAL_Driver/Src/stm32f7xx_ll_usb.c ****     {
 2660              		.loc 1 1150 12 is_stmt 0 view .LVU927
 2661 0018 0B79     		ldrb	r3, [r1, #4]	@ zero_extendqisi2
1150:Drivers/STM32F7xx_HAL_Driver/Src/stm32f7xx_ll_usb.c ****     {
 2662              		.loc 1 1150 36 view .LVU928
 2663 001a 023B     		subs	r3, r3, #2
 2664 001c DBB2     		uxtb	r3, r3
1150:Drivers/STM32F7xx_HAL_Driver/Src/stm32f7xx_ll_usb.c ****     {
 2665              		.loc 1 1150 8 view .LVU929
 2666 001e 012B     		cmp	r3, #1
 2667 0020 15D9     		bls	.L187
 2668              	.L185:
1155:Drivers/STM32F7xx_HAL_Driver/Src/stm32f7xx_ll_usb.c **** }
 2669              		.loc 1 1155 3 is_stmt 1 view .LVU930
1156:Drivers/STM32F7xx_HAL_Driver/Src/stm32f7xx_ll_usb.c **** 
 2670              		.loc 1 1156 1 is_stmt 0 view .LVU931
 2671 0022 0020     		movs	r0, #0
 2672 0024 7047     		bx	lr
 2673              	.LVL188:
 2674              	.L186:
1141:Drivers/STM32F7xx_HAL_Driver/Src/stm32f7xx_ll_usb.c ****     if ((ep->type == EP_TYPE_INTR) || (ep->type == EP_TYPE_BULK))
 2675              		.loc 1 1141 5 is_stmt 1 view .LVU932
1141:Drivers/STM32F7xx_HAL_Driver/Src/stm32f7xx_ll_usb.c ****     if ((ep->type == EP_TYPE_INTR) || (ep->type == EP_TYPE_BULK))
 2676              		.loc 1 1141 21 is_stmt 0 view .LVU933
 2677 0026 00EB4310 		add	r0, r0, r3, lsl #5
 2678              	.LVL189:
1141:Drivers/STM32F7xx_HAL_Driver/Src/stm32f7xx_ll_usb.c ****     if ((ep->type == EP_TYPE_INTR) || (ep->type == EP_TYPE_BULK))
 2679              		.loc 1 1141 21 view .LVU934
 2680 002a D0F80039 		ldr	r3, [r0, #2304]
 2681              	.LVL190:
1141:Drivers/STM32F7xx_HAL_Driver/Src/stm32f7xx_ll_usb.c ****     if ((ep->type == EP_TYPE_INTR) || (ep->type == EP_TYPE_BULK))
 2682              		.loc 1 1141 31 view .LVU935
 2683 002e 23F40013 		bic	r3, r3, #2097152
ARM GAS  /var/folders/8d/8djywmp92nx9cg9c5pcw0px00000gn/T//ccLp59Ij.s 			page 89


 2684 0032 C0F80039 		str	r3, [r0, #2304]
 2685              	.LVL191:
1142:Drivers/STM32F7xx_HAL_Driver/Src/stm32f7xx_ll_usb.c ****     {
 2686              		.loc 1 1142 5 is_stmt 1 view .LVU936
1142:Drivers/STM32F7xx_HAL_Driver/Src/stm32f7xx_ll_usb.c ****     {
 2687              		.loc 1 1142 12 is_stmt 0 view .LVU937
 2688 0036 0B79     		ldrb	r3, [r1, #4]	@ zero_extendqisi2
1142:Drivers/STM32F7xx_HAL_Driver/Src/stm32f7xx_ll_usb.c ****     {
 2689              		.loc 1 1142 36 view .LVU938
 2690 0038 023B     		subs	r3, r3, #2
 2691 003a DBB2     		uxtb	r3, r3
1142:Drivers/STM32F7xx_HAL_Driver/Src/stm32f7xx_ll_usb.c ****     {
 2692              		.loc 1 1142 8 view .LVU939
 2693 003c 012B     		cmp	r3, #1
 2694 003e F0D8     		bhi	.L185
1144:Drivers/STM32F7xx_HAL_Driver/Src/stm32f7xx_ll_usb.c ****     }
 2695              		.loc 1 1144 7 is_stmt 1 view .LVU940
1144:Drivers/STM32F7xx_HAL_Driver/Src/stm32f7xx_ll_usb.c ****     }
 2696              		.loc 1 1144 23 is_stmt 0 view .LVU941
 2697 0040 D0F80039 		ldr	r3, [r0, #2304]
1144:Drivers/STM32F7xx_HAL_Driver/Src/stm32f7xx_ll_usb.c ****     }
 2698              		.loc 1 1144 33 view .LVU942
 2699 0044 43F08053 		orr	r3, r3, #268435456
 2700 0048 C0F80039 		str	r3, [r0, #2304]
 2701 004c E9E7     		b	.L185
 2702              	.L187:
1152:Drivers/STM32F7xx_HAL_Driver/Src/stm32f7xx_ll_usb.c ****     }
 2703              		.loc 1 1152 7 is_stmt 1 view .LVU943
1152:Drivers/STM32F7xx_HAL_Driver/Src/stm32f7xx_ll_usb.c ****     }
 2704              		.loc 1 1152 24 is_stmt 0 view .LVU944
 2705 004e D0F8003B 		ldr	r3, [r0, #2816]
1152:Drivers/STM32F7xx_HAL_Driver/Src/stm32f7xx_ll_usb.c ****     }
 2706              		.loc 1 1152 34 view .LVU945
 2707 0052 43F08053 		orr	r3, r3, #268435456
 2708 0056 C0F8003B 		str	r3, [r0, #2816]
 2709 005a E2E7     		b	.L185
 2710              		.cfi_endproc
 2711              	.LFE160:
 2713              		.section	.text.USB_StopDevice,"ax",%progbits
 2714              		.align	1
 2715              		.global	USB_StopDevice
 2716              		.syntax unified
 2717              		.thumb
 2718              		.thumb_func
 2720              	USB_StopDevice:
 2721              	.LVL192:
 2722              	.LFB161:
1164:Drivers/STM32F7xx_HAL_Driver/Src/stm32f7xx_ll_usb.c ****   HAL_StatusTypeDef ret;
 2723              		.loc 1 1164 1 is_stmt 1 view -0
 2724              		.cfi_startproc
 2725              		@ args = 0, pretend = 0, frame = 0
 2726              		@ frame_needed = 0, uses_anonymous_args = 0
1164:Drivers/STM32F7xx_HAL_Driver/Src/stm32f7xx_ll_usb.c ****   HAL_StatusTypeDef ret;
 2727              		.loc 1 1164 1 is_stmt 0 view .LVU947
 2728 0000 10B5     		push	{r4, lr}
 2729              		.cfi_def_cfa_offset 8
 2730              		.cfi_offset 4, -8
ARM GAS  /var/folders/8d/8djywmp92nx9cg9c5pcw0px00000gn/T//ccLp59Ij.s 			page 90


 2731              		.cfi_offset 14, -4
 2732 0002 0446     		mov	r4, r0
1165:Drivers/STM32F7xx_HAL_Driver/Src/stm32f7xx_ll_usb.c ****   uint32_t USBx_BASE = (uint32_t)USBx;
 2733              		.loc 1 1165 3 is_stmt 1 view .LVU948
1166:Drivers/STM32F7xx_HAL_Driver/Src/stm32f7xx_ll_usb.c ****   uint32_t i;
 2734              		.loc 1 1166 3 view .LVU949
 2735              	.LVL193:
1167:Drivers/STM32F7xx_HAL_Driver/Src/stm32f7xx_ll_usb.c **** 
 2736              		.loc 1 1167 3 view .LVU950
1170:Drivers/STM32F7xx_HAL_Driver/Src/stm32f7xx_ll_usb.c ****   {
 2737              		.loc 1 1170 3 view .LVU951
1170:Drivers/STM32F7xx_HAL_Driver/Src/stm32f7xx_ll_usb.c ****   {
 2738              		.loc 1 1170 10 is_stmt 0 view .LVU952
 2739 0004 0022     		movs	r2, #0
1170:Drivers/STM32F7xx_HAL_Driver/Src/stm32f7xx_ll_usb.c ****   {
 2740              		.loc 1 1170 3 view .LVU953
 2741 0006 08E0     		b	.L189
 2742              	.LVL194:
 2743              	.L190:
1172:Drivers/STM32F7xx_HAL_Driver/Src/stm32f7xx_ll_usb.c ****     USBx_OUTEP(i)->DOEPINT = 0xFB7FU;
 2744              		.loc 1 1172 5 is_stmt 1 view .LVU954
 2745 0008 04EB4213 		add	r3, r4, r2, lsl #5
1172:Drivers/STM32F7xx_HAL_Driver/Src/stm32f7xx_ll_usb.c ****     USBx_OUTEP(i)->DOEPINT = 0xFB7FU;
 2746              		.loc 1 1172 27 is_stmt 0 view .LVU955
 2747 000c 4FF67F31 		movw	r1, #64383
 2748 0010 C3F80819 		str	r1, [r3, #2312]
1173:Drivers/STM32F7xx_HAL_Driver/Src/stm32f7xx_ll_usb.c ****   }
 2749              		.loc 1 1173 5 is_stmt 1 view .LVU956
1173:Drivers/STM32F7xx_HAL_Driver/Src/stm32f7xx_ll_usb.c ****   }
 2750              		.loc 1 1173 28 is_stmt 0 view .LVU957
 2751 0014 C3F8081B 		str	r1, [r3, #2824]
1170:Drivers/STM32F7xx_HAL_Driver/Src/stm32f7xx_ll_usb.c ****   {
 2752              		.loc 1 1170 26 is_stmt 1 discriminator 3 view .LVU958
 2753 0018 0132     		adds	r2, r2, #1
 2754              	.LVL195:
 2755              	.L189:
1170:Drivers/STM32F7xx_HAL_Driver/Src/stm32f7xx_ll_usb.c ****   {
 2756              		.loc 1 1170 18 discriminator 1 view .LVU959
 2757 001a 0E2A     		cmp	r2, #14
 2758 001c F4D9     		bls	.L190
1177:Drivers/STM32F7xx_HAL_Driver/Src/stm32f7xx_ll_usb.c ****   USBx_DEVICE->DOEPMSK  = 0U;
 2759              		.loc 1 1177 3 view .LVU960
1177:Drivers/STM32F7xx_HAL_Driver/Src/stm32f7xx_ll_usb.c ****   USBx_DEVICE->DOEPMSK  = 0U;
 2760              		.loc 1 1177 25 is_stmt 0 view .LVU961
 2761 001e 0022     		movs	r2, #0
 2762              	.LVL196:
1177:Drivers/STM32F7xx_HAL_Driver/Src/stm32f7xx_ll_usb.c ****   USBx_DEVICE->DOEPMSK  = 0U;
 2763              		.loc 1 1177 25 view .LVU962
 2764 0020 C4F81028 		str	r2, [r4, #2064]
1178:Drivers/STM32F7xx_HAL_Driver/Src/stm32f7xx_ll_usb.c ****   USBx_DEVICE->DAINTMSK = 0U;
 2765              		.loc 1 1178 3 is_stmt 1 view .LVU963
1178:Drivers/STM32F7xx_HAL_Driver/Src/stm32f7xx_ll_usb.c ****   USBx_DEVICE->DAINTMSK = 0U;
 2766              		.loc 1 1178 25 is_stmt 0 view .LVU964
 2767 0024 C4F81428 		str	r2, [r4, #2068]
1179:Drivers/STM32F7xx_HAL_Driver/Src/stm32f7xx_ll_usb.c **** 
 2768              		.loc 1 1179 3 is_stmt 1 view .LVU965
1179:Drivers/STM32F7xx_HAL_Driver/Src/stm32f7xx_ll_usb.c **** 
ARM GAS  /var/folders/8d/8djywmp92nx9cg9c5pcw0px00000gn/T//ccLp59Ij.s 			page 91


 2769              		.loc 1 1179 25 is_stmt 0 view .LVU966
 2770 0028 C4F81C28 		str	r2, [r4, #2076]
1182:Drivers/STM32F7xx_HAL_Driver/Src/stm32f7xx_ll_usb.c ****   if (ret != HAL_OK)
 2771              		.loc 1 1182 3 is_stmt 1 view .LVU967
1182:Drivers/STM32F7xx_HAL_Driver/Src/stm32f7xx_ll_usb.c ****   if (ret != HAL_OK)
 2772              		.loc 1 1182 9 is_stmt 0 view .LVU968
 2773 002c 2046     		mov	r0, r4
 2774              	.LVL197:
1182:Drivers/STM32F7xx_HAL_Driver/Src/stm32f7xx_ll_usb.c ****   if (ret != HAL_OK)
 2775              		.loc 1 1182 9 view .LVU969
 2776 002e FFF7FEFF 		bl	USB_FlushRxFifo
 2777              	.LVL198:
1183:Drivers/STM32F7xx_HAL_Driver/Src/stm32f7xx_ll_usb.c ****   {
 2778              		.loc 1 1183 3 is_stmt 1 view .LVU970
1183:Drivers/STM32F7xx_HAL_Driver/Src/stm32f7xx_ll_usb.c ****   {
 2779              		.loc 1 1183 6 is_stmt 0 view .LVU971
 2780 0032 00B1     		cbz	r0, .L193
 2781              	.L191:
1195:Drivers/STM32F7xx_HAL_Driver/Src/stm32f7xx_ll_usb.c **** 
 2782              		.loc 1 1195 1 view .LVU972
 2783 0034 10BD     		pop	{r4, pc}
 2784              	.LVL199:
 2785              	.L193:
1188:Drivers/STM32F7xx_HAL_Driver/Src/stm32f7xx_ll_usb.c ****   if (ret != HAL_OK)
 2786              		.loc 1 1188 3 is_stmt 1 view .LVU973
1188:Drivers/STM32F7xx_HAL_Driver/Src/stm32f7xx_ll_usb.c ****   if (ret != HAL_OK)
 2787              		.loc 1 1188 9 is_stmt 0 view .LVU974
 2788 0036 1021     		movs	r1, #16
 2789 0038 2046     		mov	r0, r4
 2790              	.LVL200:
1188:Drivers/STM32F7xx_HAL_Driver/Src/stm32f7xx_ll_usb.c ****   if (ret != HAL_OK)
 2791              		.loc 1 1188 9 view .LVU975
 2792 003a FFF7FEFF 		bl	USB_FlushTxFifo
 2793              	.LVL201:
1189:Drivers/STM32F7xx_HAL_Driver/Src/stm32f7xx_ll_usb.c ****   {
 2794              		.loc 1 1189 3 is_stmt 1 view .LVU976
1191:Drivers/STM32F7xx_HAL_Driver/Src/stm32f7xx_ll_usb.c ****   }
 2795              		.loc 1 1191 5 view .LVU977
 2796 003e F9E7     		b	.L191
 2797              		.cfi_endproc
 2798              	.LFE161:
 2800              		.section	.text.USB_SetDevAddress,"ax",%progbits
 2801              		.align	1
 2802              		.global	USB_SetDevAddress
 2803              		.syntax unified
 2804              		.thumb
 2805              		.thumb_func
 2807              	USB_SetDevAddress:
 2808              	.LVL202:
 2809              	.LFB162:
1205:Drivers/STM32F7xx_HAL_Driver/Src/stm32f7xx_ll_usb.c ****   uint32_t USBx_BASE = (uint32_t)USBx;
 2810              		.loc 1 1205 1 view -0
 2811              		.cfi_startproc
 2812              		@ args = 0, pretend = 0, frame = 0
 2813              		@ frame_needed = 0, uses_anonymous_args = 0
 2814              		@ link register save eliminated.
1206:Drivers/STM32F7xx_HAL_Driver/Src/stm32f7xx_ll_usb.c **** 
ARM GAS  /var/folders/8d/8djywmp92nx9cg9c5pcw0px00000gn/T//ccLp59Ij.s 			page 92


 2815              		.loc 1 1206 3 view .LVU979
1208:Drivers/STM32F7xx_HAL_Driver/Src/stm32f7xx_ll_usb.c ****   USBx_DEVICE->DCFG |= ((uint32_t)address << 4) & USB_OTG_DCFG_DAD;
 2816              		.loc 1 1208 3 view .LVU980
1208:Drivers/STM32F7xx_HAL_Driver/Src/stm32f7xx_ll_usb.c ****   USBx_DEVICE->DCFG |= ((uint32_t)address << 4) & USB_OTG_DCFG_DAD;
 2817              		.loc 1 1208 14 is_stmt 0 view .LVU981
 2818 0000 D0F80038 		ldr	r3, [r0, #2048]
1208:Drivers/STM32F7xx_HAL_Driver/Src/stm32f7xx_ll_usb.c ****   USBx_DEVICE->DCFG |= ((uint32_t)address << 4) & USB_OTG_DCFG_DAD;
 2819              		.loc 1 1208 21 view .LVU982
 2820 0004 23F4FE63 		bic	r3, r3, #2032
 2821 0008 C0F80038 		str	r3, [r0, #2048]
1209:Drivers/STM32F7xx_HAL_Driver/Src/stm32f7xx_ll_usb.c **** 
 2822              		.loc 1 1209 3 is_stmt 1 view .LVU983
1209:Drivers/STM32F7xx_HAL_Driver/Src/stm32f7xx_ll_usb.c **** 
 2823              		.loc 1 1209 14 is_stmt 0 view .LVU984
 2824 000c D0F80038 		ldr	r3, [r0, #2048]
1209:Drivers/STM32F7xx_HAL_Driver/Src/stm32f7xx_ll_usb.c **** 
 2825              		.loc 1 1209 43 view .LVU985
 2826 0010 0901     		lsls	r1, r1, #4
 2827              	.LVL203:
1209:Drivers/STM32F7xx_HAL_Driver/Src/stm32f7xx_ll_usb.c **** 
 2828              		.loc 1 1209 49 view .LVU986
 2829 0012 01F4FE61 		and	r1, r1, #2032
1209:Drivers/STM32F7xx_HAL_Driver/Src/stm32f7xx_ll_usb.c **** 
 2830              		.loc 1 1209 21 view .LVU987
 2831 0016 0B43     		orrs	r3, r3, r1
 2832 0018 C0F80038 		str	r3, [r0, #2048]
1211:Drivers/STM32F7xx_HAL_Driver/Src/stm32f7xx_ll_usb.c **** }
 2833              		.loc 1 1211 3 is_stmt 1 view .LVU988
1212:Drivers/STM32F7xx_HAL_Driver/Src/stm32f7xx_ll_usb.c **** 
 2834              		.loc 1 1212 1 is_stmt 0 view .LVU989
 2835 001c 0020     		movs	r0, #0
 2836              	.LVL204:
1212:Drivers/STM32F7xx_HAL_Driver/Src/stm32f7xx_ll_usb.c **** 
 2837              		.loc 1 1212 1 view .LVU990
 2838 001e 7047     		bx	lr
 2839              		.cfi_endproc
 2840              	.LFE162:
 2842              		.section	.text.USB_DevConnect,"ax",%progbits
 2843              		.align	1
 2844              		.global	USB_DevConnect
 2845              		.syntax unified
 2846              		.thumb
 2847              		.thumb_func
 2849              	USB_DevConnect:
 2850              	.LVL205:
 2851              	.LFB163:
1220:Drivers/STM32F7xx_HAL_Driver/Src/stm32f7xx_ll_usb.c ****   uint32_t USBx_BASE = (uint32_t)USBx;
 2852              		.loc 1 1220 1 is_stmt 1 view -0
 2853              		.cfi_startproc
 2854              		@ args = 0, pretend = 0, frame = 0
 2855              		@ frame_needed = 0, uses_anonymous_args = 0
 2856              		@ link register save eliminated.
1221:Drivers/STM32F7xx_HAL_Driver/Src/stm32f7xx_ll_usb.c **** 
 2857              		.loc 1 1221 3 view .LVU992
1224:Drivers/STM32F7xx_HAL_Driver/Src/stm32f7xx_ll_usb.c **** 
 2858              		.loc 1 1224 3 view .LVU993
 2859 0000 D0F8003E 		ldr	r3, [r0, #3584]
ARM GAS  /var/folders/8d/8djywmp92nx9cg9c5pcw0px00000gn/T//ccLp59Ij.s 			page 93


1224:Drivers/STM32F7xx_HAL_Driver/Src/stm32f7xx_ll_usb.c **** 
 2860              		.loc 1 1224 16 is_stmt 0 view .LVU994
 2861 0004 23F00303 		bic	r3, r3, #3
 2862 0008 C0F8003E 		str	r3, [r0, #3584]
1226:Drivers/STM32F7xx_HAL_Driver/Src/stm32f7xx_ll_usb.c **** 
 2863              		.loc 1 1226 3 is_stmt 1 view .LVU995
1226:Drivers/STM32F7xx_HAL_Driver/Src/stm32f7xx_ll_usb.c **** 
 2864              		.loc 1 1226 14 is_stmt 0 view .LVU996
 2865 000c D0F80438 		ldr	r3, [r0, #2052]
1226:Drivers/STM32F7xx_HAL_Driver/Src/stm32f7xx_ll_usb.c **** 
 2866              		.loc 1 1226 21 view .LVU997
 2867 0010 23F00203 		bic	r3, r3, #2
 2868 0014 C0F80438 		str	r3, [r0, #2052]
1228:Drivers/STM32F7xx_HAL_Driver/Src/stm32f7xx_ll_usb.c **** }
 2869              		.loc 1 1228 3 is_stmt 1 view .LVU998
1229:Drivers/STM32F7xx_HAL_Driver/Src/stm32f7xx_ll_usb.c **** 
 2870              		.loc 1 1229 1 is_stmt 0 view .LVU999
 2871 0018 0020     		movs	r0, #0
 2872              	.LVL206:
1229:Drivers/STM32F7xx_HAL_Driver/Src/stm32f7xx_ll_usb.c **** 
 2873              		.loc 1 1229 1 view .LVU1000
 2874 001a 7047     		bx	lr
 2875              		.cfi_endproc
 2876              	.LFE163:
 2878              		.section	.text.USB_DevDisconnect,"ax",%progbits
 2879              		.align	1
 2880              		.global	USB_DevDisconnect
 2881              		.syntax unified
 2882              		.thumb
 2883              		.thumb_func
 2885              	USB_DevDisconnect:
 2886              	.LVL207:
 2887              	.LFB164:
1237:Drivers/STM32F7xx_HAL_Driver/Src/stm32f7xx_ll_usb.c ****   uint32_t USBx_BASE = (uint32_t)USBx;
 2888              		.loc 1 1237 1 is_stmt 1 view -0
 2889              		.cfi_startproc
 2890              		@ args = 0, pretend = 0, frame = 0
 2891              		@ frame_needed = 0, uses_anonymous_args = 0
 2892              		@ link register save eliminated.
1238:Drivers/STM32F7xx_HAL_Driver/Src/stm32f7xx_ll_usb.c **** 
 2893              		.loc 1 1238 3 view .LVU1002
1241:Drivers/STM32F7xx_HAL_Driver/Src/stm32f7xx_ll_usb.c **** 
 2894              		.loc 1 1241 3 view .LVU1003
 2895 0000 D0F8003E 		ldr	r3, [r0, #3584]
1241:Drivers/STM32F7xx_HAL_Driver/Src/stm32f7xx_ll_usb.c **** 
 2896              		.loc 1 1241 16 is_stmt 0 view .LVU1004
 2897 0004 23F00303 		bic	r3, r3, #3
 2898 0008 C0F8003E 		str	r3, [r0, #3584]
1243:Drivers/STM32F7xx_HAL_Driver/Src/stm32f7xx_ll_usb.c **** 
 2899              		.loc 1 1243 3 is_stmt 1 view .LVU1005
1243:Drivers/STM32F7xx_HAL_Driver/Src/stm32f7xx_ll_usb.c **** 
 2900              		.loc 1 1243 14 is_stmt 0 view .LVU1006
 2901 000c D0F80438 		ldr	r3, [r0, #2052]
1243:Drivers/STM32F7xx_HAL_Driver/Src/stm32f7xx_ll_usb.c **** 
 2902              		.loc 1 1243 21 view .LVU1007
 2903 0010 43F00203 		orr	r3, r3, #2
 2904 0014 C0F80438 		str	r3, [r0, #2052]
ARM GAS  /var/folders/8d/8djywmp92nx9cg9c5pcw0px00000gn/T//ccLp59Ij.s 			page 94


1245:Drivers/STM32F7xx_HAL_Driver/Src/stm32f7xx_ll_usb.c **** }
 2905              		.loc 1 1245 3 is_stmt 1 view .LVU1008
1246:Drivers/STM32F7xx_HAL_Driver/Src/stm32f7xx_ll_usb.c **** 
 2906              		.loc 1 1246 1 is_stmt 0 view .LVU1009
 2907 0018 0020     		movs	r0, #0
 2908              	.LVL208:
1246:Drivers/STM32F7xx_HAL_Driver/Src/stm32f7xx_ll_usb.c **** 
 2909              		.loc 1 1246 1 view .LVU1010
 2910 001a 7047     		bx	lr
 2911              		.cfi_endproc
 2912              	.LFE164:
 2914              		.section	.text.USB_ReadInterrupts,"ax",%progbits
 2915              		.align	1
 2916              		.global	USB_ReadInterrupts
 2917              		.syntax unified
 2918              		.thumb
 2919              		.thumb_func
 2921              	USB_ReadInterrupts:
 2922              	.LVL209:
 2923              	.LFB165:
1254:Drivers/STM32F7xx_HAL_Driver/Src/stm32f7xx_ll_usb.c ****   uint32_t tmpreg;
 2924              		.loc 1 1254 1 is_stmt 1 view -0
 2925              		.cfi_startproc
 2926              		@ args = 0, pretend = 0, frame = 0
 2927              		@ frame_needed = 0, uses_anonymous_args = 0
 2928              		@ link register save eliminated.
1255:Drivers/STM32F7xx_HAL_Driver/Src/stm32f7xx_ll_usb.c **** 
 2929              		.loc 1 1255 3 view .LVU1012
1257:Drivers/STM32F7xx_HAL_Driver/Src/stm32f7xx_ll_usb.c ****   tmpreg &= USBx->GINTMSK;
 2930              		.loc 1 1257 3 view .LVU1013
1257:Drivers/STM32F7xx_HAL_Driver/Src/stm32f7xx_ll_usb.c ****   tmpreg &= USBx->GINTMSK;
 2931              		.loc 1 1257 10 is_stmt 0 view .LVU1014
 2932 0000 4269     		ldr	r2, [r0, #20]
 2933              	.LVL210:
1258:Drivers/STM32F7xx_HAL_Driver/Src/stm32f7xx_ll_usb.c **** 
 2934              		.loc 1 1258 3 is_stmt 1 view .LVU1015
1258:Drivers/STM32F7xx_HAL_Driver/Src/stm32f7xx_ll_usb.c **** 
 2935              		.loc 1 1258 17 is_stmt 0 view .LVU1016
 2936 0002 8069     		ldr	r0, [r0, #24]
 2937              	.LVL211:
1260:Drivers/STM32F7xx_HAL_Driver/Src/stm32f7xx_ll_usb.c **** }
 2938              		.loc 1 1260 3 is_stmt 1 view .LVU1017
1261:Drivers/STM32F7xx_HAL_Driver/Src/stm32f7xx_ll_usb.c **** 
 2939              		.loc 1 1261 1 is_stmt 0 view .LVU1018
 2940 0004 1040     		ands	r0, r0, r2
 2941              	.LVL212:
1261:Drivers/STM32F7xx_HAL_Driver/Src/stm32f7xx_ll_usb.c **** 
 2942              		.loc 1 1261 1 view .LVU1019
 2943 0006 7047     		bx	lr
 2944              		.cfi_endproc
 2945              	.LFE165:
 2947              		.section	.text.USB_ReadChInterrupts,"ax",%progbits
 2948              		.align	1
 2949              		.global	USB_ReadChInterrupts
 2950              		.syntax unified
 2951              		.thumb
 2952              		.thumb_func
ARM GAS  /var/folders/8d/8djywmp92nx9cg9c5pcw0px00000gn/T//ccLp59Ij.s 			page 95


 2954              	USB_ReadChInterrupts:
 2955              	.LVL213:
 2956              	.LFB166:
1270:Drivers/STM32F7xx_HAL_Driver/Src/stm32f7xx_ll_usb.c ****   uint32_t USBx_BASE = (uint32_t)USBx;
 2957              		.loc 1 1270 1 is_stmt 1 view -0
 2958              		.cfi_startproc
 2959              		@ args = 0, pretend = 0, frame = 0
 2960              		@ frame_needed = 0, uses_anonymous_args = 0
 2961              		@ link register save eliminated.
1271:Drivers/STM32F7xx_HAL_Driver/Src/stm32f7xx_ll_usb.c ****   uint32_t tmpreg;
 2962              		.loc 1 1271 3 view .LVU1021
1272:Drivers/STM32F7xx_HAL_Driver/Src/stm32f7xx_ll_usb.c **** 
 2963              		.loc 1 1272 3 view .LVU1022
1274:Drivers/STM32F7xx_HAL_Driver/Src/stm32f7xx_ll_usb.c ****   tmpreg &= USBx_HC(chnum)->HCINTMSK;
 2964              		.loc 1 1274 3 view .LVU1023
1274:Drivers/STM32F7xx_HAL_Driver/Src/stm32f7xx_ll_usb.c ****   tmpreg &= USBx_HC(chnum)->HCINTMSK;
 2965              		.loc 1 1274 12 is_stmt 0 view .LVU1024
 2966 0000 00EB4110 		add	r0, r0, r1, lsl #5
 2967              	.LVL214:
1274:Drivers/STM32F7xx_HAL_Driver/Src/stm32f7xx_ll_usb.c ****   tmpreg &= USBx_HC(chnum)->HCINTMSK;
 2968              		.loc 1 1274 12 view .LVU1025
 2969 0004 00F5A063 		add	r3, r0, #1280
1274:Drivers/STM32F7xx_HAL_Driver/Src/stm32f7xx_ll_usb.c ****   tmpreg &= USBx_HC(chnum)->HCINTMSK;
 2970              		.loc 1 1274 10 view .LVU1026
 2971 0008 D0F80805 		ldr	r0, [r0, #1288]
 2972              	.LVL215:
1275:Drivers/STM32F7xx_HAL_Driver/Src/stm32f7xx_ll_usb.c **** 
 2973              		.loc 1 1275 3 is_stmt 1 view .LVU1027
1275:Drivers/STM32F7xx_HAL_Driver/Src/stm32f7xx_ll_usb.c **** 
 2974              		.loc 1 1275 27 is_stmt 0 view .LVU1028
 2975 000c DB68     		ldr	r3, [r3, #12]
 2976              	.LVL216:
1277:Drivers/STM32F7xx_HAL_Driver/Src/stm32f7xx_ll_usb.c **** }
 2977              		.loc 1 1277 3 is_stmt 1 view .LVU1029
1278:Drivers/STM32F7xx_HAL_Driver/Src/stm32f7xx_ll_usb.c **** 
 2978              		.loc 1 1278 1 is_stmt 0 view .LVU1030
 2979 000e 1840     		ands	r0, r0, r3
 2980              	.LVL217:
1278:Drivers/STM32F7xx_HAL_Driver/Src/stm32f7xx_ll_usb.c **** 
 2981              		.loc 1 1278 1 view .LVU1031
 2982 0010 7047     		bx	lr
 2983              		.cfi_endproc
 2984              	.LFE166:
 2986              		.section	.text.USB_ReadDevAllOutEpInterrupt,"ax",%progbits
 2987              		.align	1
 2988              		.global	USB_ReadDevAllOutEpInterrupt
 2989              		.syntax unified
 2990              		.thumb
 2991              		.thumb_func
 2993              	USB_ReadDevAllOutEpInterrupt:
 2994              	.LVL218:
 2995              	.LFB167:
1286:Drivers/STM32F7xx_HAL_Driver/Src/stm32f7xx_ll_usb.c ****   uint32_t USBx_BASE = (uint32_t)USBx;
 2996              		.loc 1 1286 1 is_stmt 1 view -0
 2997              		.cfi_startproc
 2998              		@ args = 0, pretend = 0, frame = 0
 2999              		@ frame_needed = 0, uses_anonymous_args = 0
ARM GAS  /var/folders/8d/8djywmp92nx9cg9c5pcw0px00000gn/T//ccLp59Ij.s 			page 96


 3000              		@ link register save eliminated.
1287:Drivers/STM32F7xx_HAL_Driver/Src/stm32f7xx_ll_usb.c ****   uint32_t tmpreg;
 3001              		.loc 1 1287 3 view .LVU1033
1288:Drivers/STM32F7xx_HAL_Driver/Src/stm32f7xx_ll_usb.c **** 
 3002              		.loc 1 1288 3 view .LVU1034
1290:Drivers/STM32F7xx_HAL_Driver/Src/stm32f7xx_ll_usb.c ****   tmpreg &= USBx_DEVICE->DAINTMSK;
 3003              		.loc 1 1290 3 view .LVU1035
1290:Drivers/STM32F7xx_HAL_Driver/Src/stm32f7xx_ll_usb.c ****   tmpreg &= USBx_DEVICE->DAINTMSK;
 3004              		.loc 1 1290 11 is_stmt 0 view .LVU1036
 3005 0000 D0F81838 		ldr	r3, [r0, #2072]
1290:Drivers/STM32F7xx_HAL_Driver/Src/stm32f7xx_ll_usb.c ****   tmpreg &= USBx_DEVICE->DAINTMSK;
 3006              		.loc 1 1290 13 view .LVU1037
 3007 0004 00F50060 		add	r0, r0, #2048
 3008              	.LVL219:
1291:Drivers/STM32F7xx_HAL_Driver/Src/stm32f7xx_ll_usb.c **** 
 3009              		.loc 1 1291 3 is_stmt 1 view .LVU1038
1291:Drivers/STM32F7xx_HAL_Driver/Src/stm32f7xx_ll_usb.c **** 
 3010              		.loc 1 1291 24 is_stmt 0 view .LVU1039
 3011 0008 C069     		ldr	r0, [r0, #28]
 3012              	.LVL220:
1291:Drivers/STM32F7xx_HAL_Driver/Src/stm32f7xx_ll_usb.c **** 
 3013              		.loc 1 1291 10 view .LVU1040
 3014 000a 1840     		ands	r0, r0, r3
 3015              	.LVL221:
1293:Drivers/STM32F7xx_HAL_Driver/Src/stm32f7xx_ll_usb.c **** }
 3016              		.loc 1 1293 3 is_stmt 1 view .LVU1041
1294:Drivers/STM32F7xx_HAL_Driver/Src/stm32f7xx_ll_usb.c **** 
 3017              		.loc 1 1294 1 is_stmt 0 view .LVU1042
 3018 000c 000C     		lsrs	r0, r0, #16
 3019              	.LVL222:
1294:Drivers/STM32F7xx_HAL_Driver/Src/stm32f7xx_ll_usb.c **** 
 3020              		.loc 1 1294 1 view .LVU1043
 3021 000e 7047     		bx	lr
 3022              		.cfi_endproc
 3023              	.LFE167:
 3025              		.section	.text.USB_ReadDevAllInEpInterrupt,"ax",%progbits
 3026              		.align	1
 3027              		.global	USB_ReadDevAllInEpInterrupt
 3028              		.syntax unified
 3029              		.thumb
 3030              		.thumb_func
 3032              	USB_ReadDevAllInEpInterrupt:
 3033              	.LVL223:
 3034              	.LFB168:
1302:Drivers/STM32F7xx_HAL_Driver/Src/stm32f7xx_ll_usb.c ****   uint32_t USBx_BASE = (uint32_t)USBx;
 3035              		.loc 1 1302 1 is_stmt 1 view -0
 3036              		.cfi_startproc
 3037              		@ args = 0, pretend = 0, frame = 0
 3038              		@ frame_needed = 0, uses_anonymous_args = 0
 3039              		@ link register save eliminated.
1303:Drivers/STM32F7xx_HAL_Driver/Src/stm32f7xx_ll_usb.c ****   uint32_t tmpreg;
 3040              		.loc 1 1303 3 view .LVU1045
1304:Drivers/STM32F7xx_HAL_Driver/Src/stm32f7xx_ll_usb.c **** 
 3041              		.loc 1 1304 3 view .LVU1046
1306:Drivers/STM32F7xx_HAL_Driver/Src/stm32f7xx_ll_usb.c ****   tmpreg &= USBx_DEVICE->DAINTMSK;
 3042              		.loc 1 1306 3 view .LVU1047
1306:Drivers/STM32F7xx_HAL_Driver/Src/stm32f7xx_ll_usb.c ****   tmpreg &= USBx_DEVICE->DAINTMSK;
ARM GAS  /var/folders/8d/8djywmp92nx9cg9c5pcw0px00000gn/T//ccLp59Ij.s 			page 97


 3043              		.loc 1 1306 11 is_stmt 0 view .LVU1048
 3044 0000 D0F81838 		ldr	r3, [r0, #2072]
1306:Drivers/STM32F7xx_HAL_Driver/Src/stm32f7xx_ll_usb.c ****   tmpreg &= USBx_DEVICE->DAINTMSK;
 3045              		.loc 1 1306 13 view .LVU1049
 3046 0004 00F50060 		add	r0, r0, #2048
 3047              	.LVL224:
1307:Drivers/STM32F7xx_HAL_Driver/Src/stm32f7xx_ll_usb.c **** 
 3048              		.loc 1 1307 3 is_stmt 1 view .LVU1050
1307:Drivers/STM32F7xx_HAL_Driver/Src/stm32f7xx_ll_usb.c **** 
 3049              		.loc 1 1307 24 is_stmt 0 view .LVU1051
 3050 0008 C069     		ldr	r0, [r0, #28]
 3051              	.LVL225:
1307:Drivers/STM32F7xx_HAL_Driver/Src/stm32f7xx_ll_usb.c **** 
 3052              		.loc 1 1307 10 view .LVU1052
 3053 000a 1840     		ands	r0, r0, r3
 3054              	.LVL226:
1309:Drivers/STM32F7xx_HAL_Driver/Src/stm32f7xx_ll_usb.c **** }
 3055              		.loc 1 1309 3 is_stmt 1 view .LVU1053
1310:Drivers/STM32F7xx_HAL_Driver/Src/stm32f7xx_ll_usb.c **** 
 3056              		.loc 1 1310 1 is_stmt 0 view .LVU1054
 3057 000c 80B2     		uxth	r0, r0
 3058              	.LVL227:
1310:Drivers/STM32F7xx_HAL_Driver/Src/stm32f7xx_ll_usb.c **** 
 3059              		.loc 1 1310 1 view .LVU1055
 3060 000e 7047     		bx	lr
 3061              		.cfi_endproc
 3062              	.LFE168:
 3064              		.section	.text.USB_ReadDevOutEPInterrupt,"ax",%progbits
 3065              		.align	1
 3066              		.global	USB_ReadDevOutEPInterrupt
 3067              		.syntax unified
 3068              		.thumb
 3069              		.thumb_func
 3071              	USB_ReadDevOutEPInterrupt:
 3072              	.LVL228:
 3073              	.LFB169:
1320:Drivers/STM32F7xx_HAL_Driver/Src/stm32f7xx_ll_usb.c ****   uint32_t USBx_BASE = (uint32_t)USBx;
 3074              		.loc 1 1320 1 is_stmt 1 view -0
 3075              		.cfi_startproc
 3076              		@ args = 0, pretend = 0, frame = 0
 3077              		@ frame_needed = 0, uses_anonymous_args = 0
 3078              		@ link register save eliminated.
1321:Drivers/STM32F7xx_HAL_Driver/Src/stm32f7xx_ll_usb.c ****   uint32_t tmpreg;
 3079              		.loc 1 1321 3 view .LVU1057
1322:Drivers/STM32F7xx_HAL_Driver/Src/stm32f7xx_ll_usb.c **** 
 3080              		.loc 1 1322 3 view .LVU1058
1324:Drivers/STM32F7xx_HAL_Driver/Src/stm32f7xx_ll_usb.c ****   tmpreg &= USBx_DEVICE->DOEPMSK;
 3081              		.loc 1 1324 3 view .LVU1059
1324:Drivers/STM32F7xx_HAL_Driver/Src/stm32f7xx_ll_usb.c ****   tmpreg &= USBx_DEVICE->DOEPMSK;
 3082              		.loc 1 1324 13 is_stmt 0 view .LVU1060
 3083 0000 00EB4111 		add	r1, r0, r1, lsl #5
 3084              	.LVL229:
1324:Drivers/STM32F7xx_HAL_Driver/Src/stm32f7xx_ll_usb.c ****   tmpreg &= USBx_DEVICE->DOEPMSK;
 3085              		.loc 1 1324 11 view .LVU1061
 3086 0004 D1F8082B 		ldr	r2, [r1, #2824]
 3087              	.LVL230:
1325:Drivers/STM32F7xx_HAL_Driver/Src/stm32f7xx_ll_usb.c **** 
ARM GAS  /var/folders/8d/8djywmp92nx9cg9c5pcw0px00000gn/T//ccLp59Ij.s 			page 98


 3088              		.loc 1 1325 3 is_stmt 1 view .LVU1062
1325:Drivers/STM32F7xx_HAL_Driver/Src/stm32f7xx_ll_usb.c **** 
 3089              		.loc 1 1325 13 is_stmt 0 view .LVU1063
 3090 0008 00F50060 		add	r0, r0, #2048
 3091              	.LVL231:
1325:Drivers/STM32F7xx_HAL_Driver/Src/stm32f7xx_ll_usb.c **** 
 3092              		.loc 1 1325 24 view .LVU1064
 3093 000c 4069     		ldr	r0, [r0, #20]
 3094              	.LVL232:
1327:Drivers/STM32F7xx_HAL_Driver/Src/stm32f7xx_ll_usb.c **** }
 3095              		.loc 1 1327 3 is_stmt 1 view .LVU1065
1328:Drivers/STM32F7xx_HAL_Driver/Src/stm32f7xx_ll_usb.c **** 
 3096              		.loc 1 1328 1 is_stmt 0 view .LVU1066
 3097 000e 1040     		ands	r0, r0, r2
 3098              	.LVL233:
1328:Drivers/STM32F7xx_HAL_Driver/Src/stm32f7xx_ll_usb.c **** 
 3099              		.loc 1 1328 1 view .LVU1067
 3100 0010 7047     		bx	lr
 3101              		.cfi_endproc
 3102              	.LFE169:
 3104              		.section	.text.USB_ReadDevInEPInterrupt,"ax",%progbits
 3105              		.align	1
 3106              		.global	USB_ReadDevInEPInterrupt
 3107              		.syntax unified
 3108              		.thumb
 3109              		.thumb_func
 3111              	USB_ReadDevInEPInterrupt:
 3112              	.LVL234:
 3113              	.LFB170:
1338:Drivers/STM32F7xx_HAL_Driver/Src/stm32f7xx_ll_usb.c ****   uint32_t USBx_BASE = (uint32_t)USBx;
 3114              		.loc 1 1338 1 is_stmt 1 view -0
 3115              		.cfi_startproc
 3116              		@ args = 0, pretend = 0, frame = 0
 3117              		@ frame_needed = 0, uses_anonymous_args = 0
 3118              		@ link register save eliminated.
1339:Drivers/STM32F7xx_HAL_Driver/Src/stm32f7xx_ll_usb.c ****   uint32_t tmpreg;
 3119              		.loc 1 1339 3 view .LVU1069
1340:Drivers/STM32F7xx_HAL_Driver/Src/stm32f7xx_ll_usb.c ****   uint32_t msk;
 3120              		.loc 1 1340 3 view .LVU1070
1341:Drivers/STM32F7xx_HAL_Driver/Src/stm32f7xx_ll_usb.c ****   uint32_t emp;
 3121              		.loc 1 1341 3 view .LVU1071
1342:Drivers/STM32F7xx_HAL_Driver/Src/stm32f7xx_ll_usb.c **** 
 3122              		.loc 1 1342 3 view .LVU1072
1344:Drivers/STM32F7xx_HAL_Driver/Src/stm32f7xx_ll_usb.c ****   emp = USBx_DEVICE->DIEPEMPMSK;
 3123              		.loc 1 1344 3 view .LVU1073
1344:Drivers/STM32F7xx_HAL_Driver/Src/stm32f7xx_ll_usb.c ****   emp = USBx_DEVICE->DIEPEMPMSK;
 3124              		.loc 1 1344 7 is_stmt 0 view .LVU1074
 3125 0000 D0F81028 		ldr	r2, [r0, #2064]
 3126              	.LVL235:
1345:Drivers/STM32F7xx_HAL_Driver/Src/stm32f7xx_ll_usb.c ****   msk |= ((emp >> (epnum & EP_ADDR_MSK)) & 0x1U) << 7;
 3127              		.loc 1 1345 3 is_stmt 1 view .LVU1075
1345:Drivers/STM32F7xx_HAL_Driver/Src/stm32f7xx_ll_usb.c ****   msk |= ((emp >> (epnum & EP_ADDR_MSK)) & 0x1U) << 7;
 3128              		.loc 1 1345 7 is_stmt 0 view .LVU1076
 3129 0004 D0F83438 		ldr	r3, [r0, #2100]
 3130              	.LVL236:
1346:Drivers/STM32F7xx_HAL_Driver/Src/stm32f7xx_ll_usb.c ****   tmpreg = USBx_INEP((uint32_t)epnum)->DIEPINT & msk;
 3131              		.loc 1 1346 3 is_stmt 1 view .LVU1077
ARM GAS  /var/folders/8d/8djywmp92nx9cg9c5pcw0px00000gn/T//ccLp59Ij.s 			page 99


1346:Drivers/STM32F7xx_HAL_Driver/Src/stm32f7xx_ll_usb.c ****   tmpreg = USBx_INEP((uint32_t)epnum)->DIEPINT & msk;
 3132              		.loc 1 1346 26 is_stmt 0 view .LVU1078
 3133 0008 01F00F0C 		and	ip, r1, #15
1346:Drivers/STM32F7xx_HAL_Driver/Src/stm32f7xx_ll_usb.c ****   tmpreg = USBx_INEP((uint32_t)epnum)->DIEPINT & msk;
 3134              		.loc 1 1346 16 view .LVU1079
 3135 000c 23FA0CF3 		lsr	r3, r3, ip
 3136              	.LVL237:
1346:Drivers/STM32F7xx_HAL_Driver/Src/stm32f7xx_ll_usb.c ****   tmpreg = USBx_INEP((uint32_t)epnum)->DIEPINT & msk;
 3137              		.loc 1 1346 50 view .LVU1080
 3138 0010 DB01     		lsls	r3, r3, #7
 3139 0012 DBB2     		uxtb	r3, r3
1346:Drivers/STM32F7xx_HAL_Driver/Src/stm32f7xx_ll_usb.c ****   tmpreg = USBx_INEP((uint32_t)epnum)->DIEPINT & msk;
 3140              		.loc 1 1346 7 view .LVU1081
 3141 0014 1343     		orrs	r3, r3, r2
 3142              	.LVL238:
1347:Drivers/STM32F7xx_HAL_Driver/Src/stm32f7xx_ll_usb.c **** 
 3143              		.loc 1 1347 3 is_stmt 1 view .LVU1082
1347:Drivers/STM32F7xx_HAL_Driver/Src/stm32f7xx_ll_usb.c **** 
 3144              		.loc 1 1347 12 is_stmt 0 view .LVU1083
 3145 0016 00EB4110 		add	r0, r0, r1, lsl #5
 3146              	.LVL239:
1347:Drivers/STM32F7xx_HAL_Driver/Src/stm32f7xx_ll_usb.c **** 
 3147              		.loc 1 1347 12 view .LVU1084
 3148 001a 00F51060 		add	r0, r0, #2304
1347:Drivers/STM32F7xx_HAL_Driver/Src/stm32f7xx_ll_usb.c **** 
 3149              		.loc 1 1347 38 view .LVU1085
 3150 001e 8068     		ldr	r0, [r0, #8]
 3151              	.LVL240:
1349:Drivers/STM32F7xx_HAL_Driver/Src/stm32f7xx_ll_usb.c **** }
 3152              		.loc 1 1349 3 is_stmt 1 view .LVU1086
1350:Drivers/STM32F7xx_HAL_Driver/Src/stm32f7xx_ll_usb.c **** 
 3153              		.loc 1 1350 1 is_stmt 0 view .LVU1087
 3154 0020 1840     		ands	r0, r0, r3
 3155              	.LVL241:
1350:Drivers/STM32F7xx_HAL_Driver/Src/stm32f7xx_ll_usb.c **** 
 3156              		.loc 1 1350 1 view .LVU1088
 3157 0022 7047     		bx	lr
 3158              		.cfi_endproc
 3159              	.LFE170:
 3161              		.section	.text.USB_ClearInterrupts,"ax",%progbits
 3162              		.align	1
 3163              		.global	USB_ClearInterrupts
 3164              		.syntax unified
 3165              		.thumb
 3166              		.thumb_func
 3168              	USB_ClearInterrupts:
 3169              	.LVL242:
 3170              	.LFB171:
1359:Drivers/STM32F7xx_HAL_Driver/Src/stm32f7xx_ll_usb.c ****   USBx->GINTSTS &= interrupt;
 3171              		.loc 1 1359 1 is_stmt 1 view -0
 3172              		.cfi_startproc
 3173              		@ args = 0, pretend = 0, frame = 0
 3174              		@ frame_needed = 0, uses_anonymous_args = 0
 3175              		@ link register save eliminated.
1360:Drivers/STM32F7xx_HAL_Driver/Src/stm32f7xx_ll_usb.c **** }
 3176              		.loc 1 1360 3 view .LVU1090
1360:Drivers/STM32F7xx_HAL_Driver/Src/stm32f7xx_ll_usb.c **** }
ARM GAS  /var/folders/8d/8djywmp92nx9cg9c5pcw0px00000gn/T//ccLp59Ij.s 			page 100


 3177              		.loc 1 1360 7 is_stmt 0 view .LVU1091
 3178 0000 4369     		ldr	r3, [r0, #20]
1360:Drivers/STM32F7xx_HAL_Driver/Src/stm32f7xx_ll_usb.c **** }
 3179              		.loc 1 1360 17 view .LVU1092
 3180 0002 0B40     		ands	r3, r3, r1
 3181 0004 4361     		str	r3, [r0, #20]
1361:Drivers/STM32F7xx_HAL_Driver/Src/stm32f7xx_ll_usb.c **** 
 3182              		.loc 1 1361 1 view .LVU1093
 3183 0006 7047     		bx	lr
 3184              		.cfi_endproc
 3185              	.LFE171:
 3187              		.section	.text.USB_GetMode,"ax",%progbits
 3188              		.align	1
 3189              		.global	USB_GetMode
 3190              		.syntax unified
 3191              		.thumb
 3192              		.thumb_func
 3194              	USB_GetMode:
 3195              	.LVL243:
 3196              	.LFB172:
1372:Drivers/STM32F7xx_HAL_Driver/Src/stm32f7xx_ll_usb.c ****   return ((USBx->GINTSTS) & 0x1U);
 3197              		.loc 1 1372 1 is_stmt 1 view -0
 3198              		.cfi_startproc
 3199              		@ args = 0, pretend = 0, frame = 0
 3200              		@ frame_needed = 0, uses_anonymous_args = 0
 3201              		@ link register save eliminated.
1373:Drivers/STM32F7xx_HAL_Driver/Src/stm32f7xx_ll_usb.c **** }
 3202              		.loc 1 1373 3 view .LVU1095
1373:Drivers/STM32F7xx_HAL_Driver/Src/stm32f7xx_ll_usb.c **** }
 3203              		.loc 1 1373 16 is_stmt 0 view .LVU1096
 3204 0000 4069     		ldr	r0, [r0, #20]
 3205              	.LVL244:
1374:Drivers/STM32F7xx_HAL_Driver/Src/stm32f7xx_ll_usb.c **** 
 3206              		.loc 1 1374 1 view .LVU1097
 3207 0002 00F00100 		and	r0, r0, #1
 3208 0006 7047     		bx	lr
 3209              		.cfi_endproc
 3210              	.LFE172:
 3212              		.section	.text.USB_SetCurrentMode,"ax",%progbits
 3213              		.align	1
 3214              		.global	USB_SetCurrentMode
 3215              		.syntax unified
 3216              		.thumb
 3217              		.thumb_func
 3219              	USB_SetCurrentMode:
 3220              	.LVL245:
 3221              	.LFB145:
 288:Drivers/STM32F7xx_HAL_Driver/Src/stm32f7xx_ll_usb.c ****   uint32_t ms = 0U;
 3222              		.loc 1 288 1 is_stmt 1 view -0
 3223              		.cfi_startproc
 3224              		@ args = 0, pretend = 0, frame = 0
 3225              		@ frame_needed = 0, uses_anonymous_args = 0
 288:Drivers/STM32F7xx_HAL_Driver/Src/stm32f7xx_ll_usb.c ****   uint32_t ms = 0U;
 3226              		.loc 1 288 1 is_stmt 0 view .LVU1099
 3227 0000 38B5     		push	{r3, r4, r5, lr}
 3228              		.cfi_def_cfa_offset 16
 3229              		.cfi_offset 3, -16
ARM GAS  /var/folders/8d/8djywmp92nx9cg9c5pcw0px00000gn/T//ccLp59Ij.s 			page 101


 3230              		.cfi_offset 4, -12
 3231              		.cfi_offset 5, -8
 3232              		.cfi_offset 14, -4
 3233 0002 0546     		mov	r5, r0
 289:Drivers/STM32F7xx_HAL_Driver/Src/stm32f7xx_ll_usb.c **** 
 3234              		.loc 1 289 3 is_stmt 1 view .LVU1100
 3235              	.LVL246:
 291:Drivers/STM32F7xx_HAL_Driver/Src/stm32f7xx_ll_usb.c **** 
 3236              		.loc 1 291 3 view .LVU1101
 291:Drivers/STM32F7xx_HAL_Driver/Src/stm32f7xx_ll_usb.c **** 
 3237              		.loc 1 291 7 is_stmt 0 view .LVU1102
 3238 0004 C368     		ldr	r3, [r0, #12]
 291:Drivers/STM32F7xx_HAL_Driver/Src/stm32f7xx_ll_usb.c **** 
 3239              		.loc 1 291 17 view .LVU1103
 3240 0006 23F0C043 		bic	r3, r3, #1610612736
 3241 000a C360     		str	r3, [r0, #12]
 293:Drivers/STM32F7xx_HAL_Driver/Src/stm32f7xx_ll_usb.c ****   {
 3242              		.loc 1 293 3 is_stmt 1 view .LVU1104
 293:Drivers/STM32F7xx_HAL_Driver/Src/stm32f7xx_ll_usb.c ****   {
 3243              		.loc 1 293 6 is_stmt 0 view .LVU1105
 3244 000c 0129     		cmp	r1, #1
 3245 000e 13D0     		beq	.L214
 303:Drivers/STM32F7xx_HAL_Driver/Src/stm32f7xx_ll_usb.c ****   {
 3246              		.loc 1 303 8 is_stmt 1 view .LVU1106
 303:Drivers/STM32F7xx_HAL_Driver/Src/stm32f7xx_ll_usb.c ****   {
 3247              		.loc 1 303 11 is_stmt 0 view .LVU1107
 3248 0010 19BB     		cbnz	r1, .L211
 305:Drivers/STM32F7xx_HAL_Driver/Src/stm32f7xx_ll_usb.c **** 
 3249              		.loc 1 305 5 is_stmt 1 view .LVU1108
 305:Drivers/STM32F7xx_HAL_Driver/Src/stm32f7xx_ll_usb.c **** 
 3250              		.loc 1 305 9 is_stmt 0 view .LVU1109
 3251 0012 C368     		ldr	r3, [r0, #12]
 305:Drivers/STM32F7xx_HAL_Driver/Src/stm32f7xx_ll_usb.c **** 
 3252              		.loc 1 305 19 view .LVU1110
 3253 0014 43F08043 		orr	r3, r3, #1073741824
 3254 0018 C360     		str	r3, [r0, #12]
 289:Drivers/STM32F7xx_HAL_Driver/Src/stm32f7xx_ll_usb.c **** 
 3255              		.loc 1 289 12 view .LVU1111
 3256 001a 0024     		movs	r4, #0
 3257              	.LVL247:
 3258              	.L210:
 307:Drivers/STM32F7xx_HAL_Driver/Src/stm32f7xx_ll_usb.c ****     {
 3259              		.loc 1 307 5 is_stmt 1 view .LVU1112
 309:Drivers/STM32F7xx_HAL_Driver/Src/stm32f7xx_ll_usb.c ****       ms += 10U;
 3260              		.loc 1 309 7 view .LVU1113
 3261 001c 0A20     		movs	r0, #10
 3262 001e FFF7FEFF 		bl	HAL_Delay
 3263              	.LVL248:
 310:Drivers/STM32F7xx_HAL_Driver/Src/stm32f7xx_ll_usb.c ****     } while ((USB_GetMode(USBx) != (uint32_t)USB_DEVICE_MODE) && (ms < HAL_USB_CURRENT_MODE_MAX_DEL
 3264              		.loc 1 310 7 view .LVU1114
 310:Drivers/STM32F7xx_HAL_Driver/Src/stm32f7xx_ll_usb.c ****     } while ((USB_GetMode(USBx) != (uint32_t)USB_DEVICE_MODE) && (ms < HAL_USB_CURRENT_MODE_MAX_DEL
 3265              		.loc 1 310 10 is_stmt 0 view .LVU1115
 3266 0022 0A34     		adds	r4, r4, #10
 3267              	.LVL249:
 311:Drivers/STM32F7xx_HAL_Driver/Src/stm32f7xx_ll_usb.c ****   }
 3268              		.loc 1 311 63 is_stmt 1 discriminator 2 view .LVU1116
 311:Drivers/STM32F7xx_HAL_Driver/Src/stm32f7xx_ll_usb.c ****   }
ARM GAS  /var/folders/8d/8djywmp92nx9cg9c5pcw0px00000gn/T//ccLp59Ij.s 			page 102


 3269              		.loc 1 311 15 is_stmt 0 discriminator 2 view .LVU1117
 3270 0024 2846     		mov	r0, r5
 3271 0026 FFF7FEFF 		bl	USB_GetMode
 3272              	.LVL250:
 311:Drivers/STM32F7xx_HAL_Driver/Src/stm32f7xx_ll_usb.c ****   }
 3273              		.loc 1 311 63 discriminator 2 view .LVU1118
 3274 002a 08B1     		cbz	r0, .L207
 311:Drivers/STM32F7xx_HAL_Driver/Src/stm32f7xx_ll_usb.c ****   }
 3275              		.loc 1 311 63 discriminator 1 view .LVU1119
 3276 002c C72C     		cmp	r4, #199
 3277 002e F5D9     		bls	.L210
 3278              	.L207:
 318:Drivers/STM32F7xx_HAL_Driver/Src/stm32f7xx_ll_usb.c ****   {
 3279              		.loc 1 318 3 is_stmt 1 view .LVU1120
 318:Drivers/STM32F7xx_HAL_Driver/Src/stm32f7xx_ll_usb.c ****   {
 3280              		.loc 1 318 6 is_stmt 0 view .LVU1121
 3281 0030 C82C     		cmp	r4, #200
 3282 0032 14D0     		beq	.L212
 323:Drivers/STM32F7xx_HAL_Driver/Src/stm32f7xx_ll_usb.c **** }
 3283              		.loc 1 323 10 view .LVU1122
 3284 0034 0020     		movs	r0, #0
 3285              	.LVL251:
 3286              	.L209:
 324:Drivers/STM32F7xx_HAL_Driver/Src/stm32f7xx_ll_usb.c **** 
 3287              		.loc 1 324 1 view .LVU1123
 3288 0036 38BD     		pop	{r3, r4, r5, pc}
 3289              	.LVL252:
 3290              	.L214:
 295:Drivers/STM32F7xx_HAL_Driver/Src/stm32f7xx_ll_usb.c **** 
 3291              		.loc 1 295 5 is_stmt 1 view .LVU1124
 295:Drivers/STM32F7xx_HAL_Driver/Src/stm32f7xx_ll_usb.c **** 
 3292              		.loc 1 295 9 is_stmt 0 view .LVU1125
 3293 0038 C368     		ldr	r3, [r0, #12]
 295:Drivers/STM32F7xx_HAL_Driver/Src/stm32f7xx_ll_usb.c **** 
 3294              		.loc 1 295 19 view .LVU1126
 3295 003a 43F00053 		orr	r3, r3, #536870912
 3296 003e C360     		str	r3, [r0, #12]
 289:Drivers/STM32F7xx_HAL_Driver/Src/stm32f7xx_ll_usb.c **** 
 3297              		.loc 1 289 12 view .LVU1127
 3298 0040 0024     		movs	r4, #0
 3299              	.LVL253:
 3300              	.L208:
 297:Drivers/STM32F7xx_HAL_Driver/Src/stm32f7xx_ll_usb.c ****     {
 3301              		.loc 1 297 5 is_stmt 1 view .LVU1128
 299:Drivers/STM32F7xx_HAL_Driver/Src/stm32f7xx_ll_usb.c ****       ms += 10U;
 3302              		.loc 1 299 7 view .LVU1129
 3303 0042 0A20     		movs	r0, #10
 3304 0044 FFF7FEFF 		bl	HAL_Delay
 3305              	.LVL254:
 300:Drivers/STM32F7xx_HAL_Driver/Src/stm32f7xx_ll_usb.c ****     } while ((USB_GetMode(USBx) != (uint32_t)USB_HOST_MODE) && (ms < HAL_USB_CURRENT_MODE_MAX_DELAY
 3306              		.loc 1 300 7 view .LVU1130
 300:Drivers/STM32F7xx_HAL_Driver/Src/stm32f7xx_ll_usb.c ****     } while ((USB_GetMode(USBx) != (uint32_t)USB_HOST_MODE) && (ms < HAL_USB_CURRENT_MODE_MAX_DELAY
 3307              		.loc 1 300 10 is_stmt 0 view .LVU1131
 3308 0048 0A34     		adds	r4, r4, #10
 3309              	.LVL255:
 301:Drivers/STM32F7xx_HAL_Driver/Src/stm32f7xx_ll_usb.c ****   }
 3310              		.loc 1 301 61 is_stmt 1 discriminator 2 view .LVU1132
ARM GAS  /var/folders/8d/8djywmp92nx9cg9c5pcw0px00000gn/T//ccLp59Ij.s 			page 103


 301:Drivers/STM32F7xx_HAL_Driver/Src/stm32f7xx_ll_usb.c ****   }
 3311              		.loc 1 301 15 is_stmt 0 discriminator 2 view .LVU1133
 3312 004a 2846     		mov	r0, r5
 3313 004c FFF7FEFF 		bl	USB_GetMode
 3314              	.LVL256:
 301:Drivers/STM32F7xx_HAL_Driver/Src/stm32f7xx_ll_usb.c ****   }
 3315              		.loc 1 301 61 discriminator 2 view .LVU1134
 3316 0050 0128     		cmp	r0, #1
 3317 0052 EDD0     		beq	.L207
 301:Drivers/STM32F7xx_HAL_Driver/Src/stm32f7xx_ll_usb.c ****   }
 3318              		.loc 1 301 61 discriminator 1 view .LVU1135
 3319 0054 C72C     		cmp	r4, #199
 3320 0056 F4D9     		bls	.L208
 3321 0058 EAE7     		b	.L207
 3322              	.LVL257:
 3323              	.L211:
 315:Drivers/STM32F7xx_HAL_Driver/Src/stm32f7xx_ll_usb.c ****   }
 3324              		.loc 1 315 12 view .LVU1136
 3325 005a 0120     		movs	r0, #1
 3326              	.LVL258:
 315:Drivers/STM32F7xx_HAL_Driver/Src/stm32f7xx_ll_usb.c ****   }
 3327              		.loc 1 315 12 view .LVU1137
 3328 005c EBE7     		b	.L209
 3329              	.LVL259:
 3330              	.L212:
 320:Drivers/STM32F7xx_HAL_Driver/Src/stm32f7xx_ll_usb.c ****   }
 3331              		.loc 1 320 12 view .LVU1138
 3332 005e 0120     		movs	r0, #1
 3333 0060 E9E7     		b	.L209
 3334              		.cfi_endproc
 3335              	.LFE145:
 3337              		.section	.text.USB_ActivateSetup,"ax",%progbits
 3338              		.align	1
 3339              		.global	USB_ActivateSetup
 3340              		.syntax unified
 3341              		.thumb
 3342              		.thumb_func
 3344              	USB_ActivateSetup:
 3345              	.LVL260:
 3346              	.LFB173:
1382:Drivers/STM32F7xx_HAL_Driver/Src/stm32f7xx_ll_usb.c ****   uint32_t USBx_BASE = (uint32_t)USBx;
 3347              		.loc 1 1382 1 is_stmt 1 view -0
 3348              		.cfi_startproc
 3349              		@ args = 0, pretend = 0, frame = 0
 3350              		@ frame_needed = 0, uses_anonymous_args = 0
 3351              		@ link register save eliminated.
1383:Drivers/STM32F7xx_HAL_Driver/Src/stm32f7xx_ll_usb.c **** 
 3352              		.loc 1 1383 3 view .LVU1140
1386:Drivers/STM32F7xx_HAL_Driver/Src/stm32f7xx_ll_usb.c **** 
 3353              		.loc 1 1386 3 view .LVU1141
1386:Drivers/STM32F7xx_HAL_Driver/Src/stm32f7xx_ll_usb.c **** 
 3354              		.loc 1 1386 16 is_stmt 0 view .LVU1142
 3355 0000 D0F80039 		ldr	r3, [r0, #2304]
1386:Drivers/STM32F7xx_HAL_Driver/Src/stm32f7xx_ll_usb.c **** 
 3356              		.loc 1 1386 26 view .LVU1143
 3357 0004 6FF30A03 		bfc	r3, #0, #11
 3358 0008 C0F80039 		str	r3, [r0, #2304]
ARM GAS  /var/folders/8d/8djywmp92nx9cg9c5pcw0px00000gn/T//ccLp59Ij.s 			page 104


1388:Drivers/STM32F7xx_HAL_Driver/Src/stm32f7xx_ll_usb.c **** 
 3359              		.loc 1 1388 3 is_stmt 1 view .LVU1144
1388:Drivers/STM32F7xx_HAL_Driver/Src/stm32f7xx_ll_usb.c **** 
 3360              		.loc 1 1388 14 is_stmt 0 view .LVU1145
 3361 000c D0F80438 		ldr	r3, [r0, #2052]
1388:Drivers/STM32F7xx_HAL_Driver/Src/stm32f7xx_ll_usb.c **** 
 3362              		.loc 1 1388 21 view .LVU1146
 3363 0010 43F48073 		orr	r3, r3, #256
 3364 0014 C0F80438 		str	r3, [r0, #2052]
1390:Drivers/STM32F7xx_HAL_Driver/Src/stm32f7xx_ll_usb.c **** }
 3365              		.loc 1 1390 3 is_stmt 1 view .LVU1147
1391:Drivers/STM32F7xx_HAL_Driver/Src/stm32f7xx_ll_usb.c **** 
 3366              		.loc 1 1391 1 is_stmt 0 view .LVU1148
 3367 0018 0020     		movs	r0, #0
 3368              	.LVL261:
1391:Drivers/STM32F7xx_HAL_Driver/Src/stm32f7xx_ll_usb.c **** 
 3369              		.loc 1 1391 1 view .LVU1149
 3370 001a 7047     		bx	lr
 3371              		.cfi_endproc
 3372              	.LFE173:
 3374              		.section	.text.USB_EP0_OutStart,"ax",%progbits
 3375              		.align	1
 3376              		.global	USB_EP0_OutStart
 3377              		.syntax unified
 3378              		.thumb
 3379              		.thumb_func
 3381              	USB_EP0_OutStart:
 3382              	.LVL262:
 3383              	.LFB174:
1404:Drivers/STM32F7xx_HAL_Driver/Src/stm32f7xx_ll_usb.c ****   uint32_t USBx_BASE = (uint32_t)USBx;
 3384              		.loc 1 1404 1 is_stmt 1 view -0
 3385              		.cfi_startproc
 3386              		@ args = 0, pretend = 0, frame = 0
 3387              		@ frame_needed = 0, uses_anonymous_args = 0
 3388              		@ link register save eliminated.
1404:Drivers/STM32F7xx_HAL_Driver/Src/stm32f7xx_ll_usb.c ****   uint32_t USBx_BASE = (uint32_t)USBx;
 3389              		.loc 1 1404 1 is_stmt 0 view .LVU1151
 3390 0000 10B4     		push	{r4}
 3391              		.cfi_def_cfa_offset 4
 3392              		.cfi_offset 4, -4
1405:Drivers/STM32F7xx_HAL_Driver/Src/stm32f7xx_ll_usb.c ****   uint32_t gSNPSiD = *(__IO const uint32_t *)(&USBx->CID + 0x1U);
 3393              		.loc 1 1405 3 is_stmt 1 view .LVU1152
 3394              	.LVL263:
1406:Drivers/STM32F7xx_HAL_Driver/Src/stm32f7xx_ll_usb.c **** 
 3395              		.loc 1 1406 3 view .LVU1153
1406:Drivers/STM32F7xx_HAL_Driver/Src/stm32f7xx_ll_usb.c **** 
 3396              		.loc 1 1406 12 is_stmt 0 view .LVU1154
 3397 0002 046C     		ldr	r4, [r0, #64]
 3398              	.LVL264:
1408:Drivers/STM32F7xx_HAL_Driver/Src/stm32f7xx_ll_usb.c ****   {
 3399              		.loc 1 1408 3 is_stmt 1 view .LVU1155
1408:Drivers/STM32F7xx_HAL_Driver/Src/stm32f7xx_ll_usb.c ****   {
 3400              		.loc 1 1408 6 is_stmt 0 view .LVU1156
 3401 0004 154B     		ldr	r3, .L221
 3402 0006 9C42     		cmp	r4, r3
 3403 0008 03D9     		bls	.L217
1410:Drivers/STM32F7xx_HAL_Driver/Src/stm32f7xx_ll_usb.c ****     {
ARM GAS  /var/folders/8d/8djywmp92nx9cg9c5pcw0px00000gn/T//ccLp59Ij.s 			page 105


 3404              		.loc 1 1410 5 is_stmt 1 view .LVU1157
1410:Drivers/STM32F7xx_HAL_Driver/Src/stm32f7xx_ll_usb.c ****     {
 3405              		.loc 1 1410 24 is_stmt 0 view .LVU1158
 3406 000a D0F8003B 		ldr	r3, [r0, #2816]
1410:Drivers/STM32F7xx_HAL_Driver/Src/stm32f7xx_ll_usb.c ****     {
 3407              		.loc 1 1410 8 view .LVU1159
 3408 000e 002B     		cmp	r3, #0
 3409 0010 16DB     		blt	.L218
 3410              	.L217:
1416:Drivers/STM32F7xx_HAL_Driver/Src/stm32f7xx_ll_usb.c ****   USBx_OUTEP(0U)->DOEPTSIZ |= (USB_OTG_DOEPTSIZ_PKTCNT & (1U << 19));
 3411              		.loc 1 1416 3 is_stmt 1 view .LVU1160
1416:Drivers/STM32F7xx_HAL_Driver/Src/stm32f7xx_ll_usb.c ****   USBx_OUTEP(0U)->DOEPTSIZ |= (USB_OTG_DOEPTSIZ_PKTCNT & (1U << 19));
 3412              		.loc 1 1416 28 is_stmt 0 view .LVU1161
 3413 0012 0024     		movs	r4, #0
 3414              	.LVL265:
1416:Drivers/STM32F7xx_HAL_Driver/Src/stm32f7xx_ll_usb.c ****   USBx_OUTEP(0U)->DOEPTSIZ |= (USB_OTG_DOEPTSIZ_PKTCNT & (1U << 19));
 3415              		.loc 1 1416 28 view .LVU1162
 3416 0014 C0F8104B 		str	r4, [r0, #2832]
1417:Drivers/STM32F7xx_HAL_Driver/Src/stm32f7xx_ll_usb.c ****   USBx_OUTEP(0U)->DOEPTSIZ |= (3U * 8U);
 3417              		.loc 1 1417 3 is_stmt 1 view .LVU1163
1417:Drivers/STM32F7xx_HAL_Driver/Src/stm32f7xx_ll_usb.c ****   USBx_OUTEP(0U)->DOEPTSIZ |= (3U * 8U);
 3418              		.loc 1 1417 17 is_stmt 0 view .LVU1164
 3419 0018 D0F8104B 		ldr	r4, [r0, #2832]
1417:Drivers/STM32F7xx_HAL_Driver/Src/stm32f7xx_ll_usb.c ****   USBx_OUTEP(0U)->DOEPTSIZ |= (3U * 8U);
 3420              		.loc 1 1417 28 view .LVU1165
 3421 001c 44F40024 		orr	r4, r4, #524288
 3422 0020 C0F8104B 		str	r4, [r0, #2832]
1418:Drivers/STM32F7xx_HAL_Driver/Src/stm32f7xx_ll_usb.c ****   USBx_OUTEP(0U)->DOEPTSIZ |=  USB_OTG_DOEPTSIZ_STUPCNT;
 3423              		.loc 1 1418 3 is_stmt 1 view .LVU1166
1418:Drivers/STM32F7xx_HAL_Driver/Src/stm32f7xx_ll_usb.c ****   USBx_OUTEP(0U)->DOEPTSIZ |=  USB_OTG_DOEPTSIZ_STUPCNT;
 3424              		.loc 1 1418 17 is_stmt 0 view .LVU1167
 3425 0024 D0F8104B 		ldr	r4, [r0, #2832]
1418:Drivers/STM32F7xx_HAL_Driver/Src/stm32f7xx_ll_usb.c ****   USBx_OUTEP(0U)->DOEPTSIZ |=  USB_OTG_DOEPTSIZ_STUPCNT;
 3426              		.loc 1 1418 28 view .LVU1168
 3427 0028 44F01804 		orr	r4, r4, #24
 3428 002c C0F8104B 		str	r4, [r0, #2832]
1419:Drivers/STM32F7xx_HAL_Driver/Src/stm32f7xx_ll_usb.c **** 
 3429              		.loc 1 1419 3 is_stmt 1 view .LVU1169
1419:Drivers/STM32F7xx_HAL_Driver/Src/stm32f7xx_ll_usb.c **** 
 3430              		.loc 1 1419 17 is_stmt 0 view .LVU1170
 3431 0030 D0F8104B 		ldr	r4, [r0, #2832]
1419:Drivers/STM32F7xx_HAL_Driver/Src/stm32f7xx_ll_usb.c **** 
 3432              		.loc 1 1419 28 view .LVU1171
 3433 0034 44F0C044 		orr	r4, r4, #1610612736
 3434 0038 C0F8104B 		str	r4, [r0, #2832]
1421:Drivers/STM32F7xx_HAL_Driver/Src/stm32f7xx_ll_usb.c ****   {
 3435              		.loc 1 1421 3 is_stmt 1 view .LVU1172
1421:Drivers/STM32F7xx_HAL_Driver/Src/stm32f7xx_ll_usb.c ****   {
 3436              		.loc 1 1421 6 is_stmt 0 view .LVU1173
 3437 003c 0129     		cmp	r1, #1
 3438 003e 03D0     		beq	.L220
 3439              	.L218:
1429:Drivers/STM32F7xx_HAL_Driver/Src/stm32f7xx_ll_usb.c **** 
 3440              		.loc 1 1429 1 view .LVU1174
 3441 0040 0020     		movs	r0, #0
 3442              	.LVL266:
1429:Drivers/STM32F7xx_HAL_Driver/Src/stm32f7xx_ll_usb.c **** 
ARM GAS  /var/folders/8d/8djywmp92nx9cg9c5pcw0px00000gn/T//ccLp59Ij.s 			page 106


 3443              		.loc 1 1429 1 view .LVU1175
 3444 0042 5DF8044B 		ldr	r4, [sp], #4
 3445              		.cfi_remember_state
 3446              		.cfi_restore 4
 3447              		.cfi_def_cfa_offset 0
 3448 0046 7047     		bx	lr
 3449              	.LVL267:
 3450              	.L220:
 3451              		.cfi_restore_state
1423:Drivers/STM32F7xx_HAL_Driver/Src/stm32f7xx_ll_usb.c ****     /* EP enable */
 3452              		.loc 1 1423 5 is_stmt 1 view .LVU1176
1423:Drivers/STM32F7xx_HAL_Driver/Src/stm32f7xx_ll_usb.c ****     /* EP enable */
 3453              		.loc 1 1423 29 is_stmt 0 view .LVU1177
 3454 0048 C0F8142B 		str	r2, [r0, #2836]
1425:Drivers/STM32F7xx_HAL_Driver/Src/stm32f7xx_ll_usb.c ****   }
 3455              		.loc 1 1425 5 is_stmt 1 view .LVU1178
1425:Drivers/STM32F7xx_HAL_Driver/Src/stm32f7xx_ll_usb.c ****   }
 3456              		.loc 1 1425 19 is_stmt 0 view .LVU1179
 3457 004c D0F8003B 		ldr	r3, [r0, #2816]
1425:Drivers/STM32F7xx_HAL_Driver/Src/stm32f7xx_ll_usb.c ****   }
 3458              		.loc 1 1425 29 view .LVU1180
 3459 0050 43F08023 		orr	r3, r3, #-2147450880
 3460 0054 C0F8003B 		str	r3, [r0, #2816]
 3461 0058 F2E7     		b	.L218
 3462              	.L222:
 3463 005a 00BF     		.align	2
 3464              	.L221:
 3465 005c 0A30544F 		.word	1330917386
 3466              		.cfi_endproc
 3467              	.LFE174:
 3469              		.section	.text.USB_HostInit,"ax",%progbits
 3470              		.align	1
 3471              		.global	USB_HostInit
 3472              		.syntax unified
 3473              		.thumb
 3474              		.thumb_func
 3476              	USB_HostInit:
 3477              	.LVL268:
 3478              	.LFB176:
1467:Drivers/STM32F7xx_HAL_Driver/Src/stm32f7xx_ll_usb.c **** 
1468:Drivers/STM32F7xx_HAL_Driver/Src/stm32f7xx_ll_usb.c **** #ifdef USBPHYC
1469:Drivers/STM32F7xx_HAL_Driver/Src/stm32f7xx_ll_usb.c **** /**
1470:Drivers/STM32F7xx_HAL_Driver/Src/stm32f7xx_ll_usb.c ****   * @brief  Enables control of a High Speed USB PHY
1471:Drivers/STM32F7xx_HAL_Driver/Src/stm32f7xx_ll_usb.c ****   *         Init the low level hardware : GPIO, CLOCK, NVIC...
1472:Drivers/STM32F7xx_HAL_Driver/Src/stm32f7xx_ll_usb.c ****   * @param  USBx  Selected device
1473:Drivers/STM32F7xx_HAL_Driver/Src/stm32f7xx_ll_usb.c ****   * @retval HAL status
1474:Drivers/STM32F7xx_HAL_Driver/Src/stm32f7xx_ll_usb.c ****   */
1475:Drivers/STM32F7xx_HAL_Driver/Src/stm32f7xx_ll_usb.c **** static HAL_StatusTypeDef USB_HS_PHYCInit(USB_OTG_GlobalTypeDef *USBx)
1476:Drivers/STM32F7xx_HAL_Driver/Src/stm32f7xx_ll_usb.c **** {
1477:Drivers/STM32F7xx_HAL_Driver/Src/stm32f7xx_ll_usb.c ****   UNUSED(USBx);
1478:Drivers/STM32F7xx_HAL_Driver/Src/stm32f7xx_ll_usb.c ****   __IO uint32_t count = 0U;
1479:Drivers/STM32F7xx_HAL_Driver/Src/stm32f7xx_ll_usb.c **** 
1480:Drivers/STM32F7xx_HAL_Driver/Src/stm32f7xx_ll_usb.c ****   /* Enable LDO */
1481:Drivers/STM32F7xx_HAL_Driver/Src/stm32f7xx_ll_usb.c ****   USB_HS_PHYC->USB_HS_PHYC_LDO |= USB_HS_PHYC_LDO_ENABLE;
1482:Drivers/STM32F7xx_HAL_Driver/Src/stm32f7xx_ll_usb.c **** 
1483:Drivers/STM32F7xx_HAL_Driver/Src/stm32f7xx_ll_usb.c ****   /* wait for LDO Ready */
1484:Drivers/STM32F7xx_HAL_Driver/Src/stm32f7xx_ll_usb.c ****   while ((USB_HS_PHYC->USB_HS_PHYC_LDO & USB_HS_PHYC_LDO_STATUS) == 0U)
ARM GAS  /var/folders/8d/8djywmp92nx9cg9c5pcw0px00000gn/T//ccLp59Ij.s 			page 107


1485:Drivers/STM32F7xx_HAL_Driver/Src/stm32f7xx_ll_usb.c ****   {
1486:Drivers/STM32F7xx_HAL_Driver/Src/stm32f7xx_ll_usb.c ****     count++;
1487:Drivers/STM32F7xx_HAL_Driver/Src/stm32f7xx_ll_usb.c **** 
1488:Drivers/STM32F7xx_HAL_Driver/Src/stm32f7xx_ll_usb.c ****     if (count > HAL_USB_TIMEOUT)
1489:Drivers/STM32F7xx_HAL_Driver/Src/stm32f7xx_ll_usb.c ****     {
1490:Drivers/STM32F7xx_HAL_Driver/Src/stm32f7xx_ll_usb.c ****       return HAL_TIMEOUT;
1491:Drivers/STM32F7xx_HAL_Driver/Src/stm32f7xx_ll_usb.c ****     }
1492:Drivers/STM32F7xx_HAL_Driver/Src/stm32f7xx_ll_usb.c ****   }
1493:Drivers/STM32F7xx_HAL_Driver/Src/stm32f7xx_ll_usb.c **** 
1494:Drivers/STM32F7xx_HAL_Driver/Src/stm32f7xx_ll_usb.c ****   /* Controls PHY frequency operation selection */
1495:Drivers/STM32F7xx_HAL_Driver/Src/stm32f7xx_ll_usb.c ****   if (HSE_VALUE == PHYC_12_MHZ) /* HSE = 12MHz */
1496:Drivers/STM32F7xx_HAL_Driver/Src/stm32f7xx_ll_usb.c ****   {
1497:Drivers/STM32F7xx_HAL_Driver/Src/stm32f7xx_ll_usb.c ****     USB_HS_PHYC->USB_HS_PHYC_PLL = (0x0U << 1);
1498:Drivers/STM32F7xx_HAL_Driver/Src/stm32f7xx_ll_usb.c ****   }
1499:Drivers/STM32F7xx_HAL_Driver/Src/stm32f7xx_ll_usb.c ****   else if (HSE_VALUE == PHYC_12_5_MHZ) /* HSE = 12.5MHz */
1500:Drivers/STM32F7xx_HAL_Driver/Src/stm32f7xx_ll_usb.c ****   {
1501:Drivers/STM32F7xx_HAL_Driver/Src/stm32f7xx_ll_usb.c ****     USB_HS_PHYC->USB_HS_PHYC_PLL = (0x2U << 1);
1502:Drivers/STM32F7xx_HAL_Driver/Src/stm32f7xx_ll_usb.c ****   }
1503:Drivers/STM32F7xx_HAL_Driver/Src/stm32f7xx_ll_usb.c ****   else if (HSE_VALUE == PHYC_16_MHZ) /* HSE = 16MHz */
1504:Drivers/STM32F7xx_HAL_Driver/Src/stm32f7xx_ll_usb.c ****   {
1505:Drivers/STM32F7xx_HAL_Driver/Src/stm32f7xx_ll_usb.c ****     USB_HS_PHYC->USB_HS_PHYC_PLL = (0x3U << 1);
1506:Drivers/STM32F7xx_HAL_Driver/Src/stm32f7xx_ll_usb.c ****   }
1507:Drivers/STM32F7xx_HAL_Driver/Src/stm32f7xx_ll_usb.c ****   else if (HSE_VALUE == PHYC_24_MHZ) /* HSE = 24MHz */
1508:Drivers/STM32F7xx_HAL_Driver/Src/stm32f7xx_ll_usb.c ****   {
1509:Drivers/STM32F7xx_HAL_Driver/Src/stm32f7xx_ll_usb.c ****     USB_HS_PHYC->USB_HS_PHYC_PLL = (0x4U << 1);
1510:Drivers/STM32F7xx_HAL_Driver/Src/stm32f7xx_ll_usb.c ****   }
1511:Drivers/STM32F7xx_HAL_Driver/Src/stm32f7xx_ll_usb.c ****   else if (HSE_VALUE == PHYC_25_MHZ) /* HSE = 25MHz */
1512:Drivers/STM32F7xx_HAL_Driver/Src/stm32f7xx_ll_usb.c ****   {
1513:Drivers/STM32F7xx_HAL_Driver/Src/stm32f7xx_ll_usb.c ****     USB_HS_PHYC->USB_HS_PHYC_PLL = (0x5U << 1);
1514:Drivers/STM32F7xx_HAL_Driver/Src/stm32f7xx_ll_usb.c ****   }
1515:Drivers/STM32F7xx_HAL_Driver/Src/stm32f7xx_ll_usb.c ****   else if (HSE_VALUE == PHYC_32_MHZ) /* HSE = 32MHz */
1516:Drivers/STM32F7xx_HAL_Driver/Src/stm32f7xx_ll_usb.c ****   {
1517:Drivers/STM32F7xx_HAL_Driver/Src/stm32f7xx_ll_usb.c ****     USB_HS_PHYC->USB_HS_PHYC_PLL = (0x7U << 1);
1518:Drivers/STM32F7xx_HAL_Driver/Src/stm32f7xx_ll_usb.c ****   }
1519:Drivers/STM32F7xx_HAL_Driver/Src/stm32f7xx_ll_usb.c ****   else
1520:Drivers/STM32F7xx_HAL_Driver/Src/stm32f7xx_ll_usb.c ****   {
1521:Drivers/STM32F7xx_HAL_Driver/Src/stm32f7xx_ll_usb.c ****     /* ... */
1522:Drivers/STM32F7xx_HAL_Driver/Src/stm32f7xx_ll_usb.c ****   }
1523:Drivers/STM32F7xx_HAL_Driver/Src/stm32f7xx_ll_usb.c **** 
1524:Drivers/STM32F7xx_HAL_Driver/Src/stm32f7xx_ll_usb.c ****   /* Control the tuning interface of the High Speed PHY */
1525:Drivers/STM32F7xx_HAL_Driver/Src/stm32f7xx_ll_usb.c ****   USB_HS_PHYC->USB_HS_PHYC_TUNE |= USB_HS_PHYC_TUNE_VALUE;
1526:Drivers/STM32F7xx_HAL_Driver/Src/stm32f7xx_ll_usb.c **** 
1527:Drivers/STM32F7xx_HAL_Driver/Src/stm32f7xx_ll_usb.c ****   /* Enable PLL internal PHY */
1528:Drivers/STM32F7xx_HAL_Driver/Src/stm32f7xx_ll_usb.c ****   USB_HS_PHYC->USB_HS_PHYC_PLL |= USB_HS_PHYC_PLL_PLLEN;
1529:Drivers/STM32F7xx_HAL_Driver/Src/stm32f7xx_ll_usb.c **** 
1530:Drivers/STM32F7xx_HAL_Driver/Src/stm32f7xx_ll_usb.c **** 
1531:Drivers/STM32F7xx_HAL_Driver/Src/stm32f7xx_ll_usb.c ****   /* 2ms Delay required to get internal phy clock stable */
1532:Drivers/STM32F7xx_HAL_Driver/Src/stm32f7xx_ll_usb.c ****   HAL_Delay(2U);
1533:Drivers/STM32F7xx_HAL_Driver/Src/stm32f7xx_ll_usb.c **** 
1534:Drivers/STM32F7xx_HAL_Driver/Src/stm32f7xx_ll_usb.c ****   return HAL_OK;
1535:Drivers/STM32F7xx_HAL_Driver/Src/stm32f7xx_ll_usb.c **** }
1536:Drivers/STM32F7xx_HAL_Driver/Src/stm32f7xx_ll_usb.c **** 
1537:Drivers/STM32F7xx_HAL_Driver/Src/stm32f7xx_ll_usb.c **** #endif /* USBPHYC */
1538:Drivers/STM32F7xx_HAL_Driver/Src/stm32f7xx_ll_usb.c **** /**
1539:Drivers/STM32F7xx_HAL_Driver/Src/stm32f7xx_ll_usb.c ****   * @brief  USB_HostInit : Initializes the USB OTG controller registers
1540:Drivers/STM32F7xx_HAL_Driver/Src/stm32f7xx_ll_usb.c ****   *         for Host mode
1541:Drivers/STM32F7xx_HAL_Driver/Src/stm32f7xx_ll_usb.c ****   * @param  USBx  Selected device
ARM GAS  /var/folders/8d/8djywmp92nx9cg9c5pcw0px00000gn/T//ccLp59Ij.s 			page 108


1542:Drivers/STM32F7xx_HAL_Driver/Src/stm32f7xx_ll_usb.c ****   * @param  cfg   pointer to a USB_OTG_CfgTypeDef structure that contains
1543:Drivers/STM32F7xx_HAL_Driver/Src/stm32f7xx_ll_usb.c ****   *         the configuration information for the specified USBx peripheral.
1544:Drivers/STM32F7xx_HAL_Driver/Src/stm32f7xx_ll_usb.c ****   * @retval HAL status
1545:Drivers/STM32F7xx_HAL_Driver/Src/stm32f7xx_ll_usb.c ****   */
1546:Drivers/STM32F7xx_HAL_Driver/Src/stm32f7xx_ll_usb.c **** HAL_StatusTypeDef USB_HostInit(USB_OTG_GlobalTypeDef *USBx, USB_OTG_CfgTypeDef cfg)
1547:Drivers/STM32F7xx_HAL_Driver/Src/stm32f7xx_ll_usb.c **** {
 3479              		.loc 1 1547 1 is_stmt 1 view -0
 3480              		.cfi_startproc
 3481              		@ args = 20, pretend = 16, frame = 0
 3482              		@ frame_needed = 0, uses_anonymous_args = 0
 3483              		.loc 1 1547 1 is_stmt 0 view .LVU1182
 3484 0000 84B0     		sub	sp, sp, #16
 3485              		.cfi_def_cfa_offset 16
 3486 0002 38B5     		push	{r3, r4, r5, lr}
 3487              		.cfi_def_cfa_offset 32
 3488              		.cfi_offset 3, -32
 3489              		.cfi_offset 4, -28
 3490              		.cfi_offset 5, -24
 3491              		.cfi_offset 14, -20
 3492 0004 0446     		mov	r4, r0
 3493 0006 05A8     		add	r0, sp, #20
 3494              	.LVL269:
 3495              		.loc 1 1547 1 view .LVU1183
 3496 0008 80E80E00 		stm	r0, {r1, r2, r3}
1548:Drivers/STM32F7xx_HAL_Driver/Src/stm32f7xx_ll_usb.c ****   HAL_StatusTypeDef ret = HAL_OK;
 3497              		.loc 1 1548 3 is_stmt 1 view .LVU1184
 3498              	.LVL270:
1549:Drivers/STM32F7xx_HAL_Driver/Src/stm32f7xx_ll_usb.c ****   uint32_t USBx_BASE = (uint32_t)USBx;
 3499              		.loc 1 1549 3 view .LVU1185
1550:Drivers/STM32F7xx_HAL_Driver/Src/stm32f7xx_ll_usb.c ****   uint32_t i;
 3500              		.loc 1 1550 3 view .LVU1186
1551:Drivers/STM32F7xx_HAL_Driver/Src/stm32f7xx_ll_usb.c **** 
1552:Drivers/STM32F7xx_HAL_Driver/Src/stm32f7xx_ll_usb.c ****   /* Restart the Phy Clock */
1553:Drivers/STM32F7xx_HAL_Driver/Src/stm32f7xx_ll_usb.c ****   USBx_PCGCCTL = 0U;
 3501              		.loc 1 1553 3 view .LVU1187
 3502              		.loc 1 1553 16 is_stmt 0 view .LVU1188
 3503 000c 0023     		movs	r3, #0
 3504 000e C4F8003E 		str	r3, [r4, #3584]
1554:Drivers/STM32F7xx_HAL_Driver/Src/stm32f7xx_ll_usb.c **** 
1555:Drivers/STM32F7xx_HAL_Driver/Src/stm32f7xx_ll_usb.c ****   /* Disable VBUS sensing */
1556:Drivers/STM32F7xx_HAL_Driver/Src/stm32f7xx_ll_usb.c ****   USBx->GCCFG &= ~(USB_OTG_GCCFG_VBDEN);
 3505              		.loc 1 1556 3 is_stmt 1 view .LVU1189
 3506              		.loc 1 1556 7 is_stmt 0 view .LVU1190
 3507 0012 A36B     		ldr	r3, [r4, #56]
 3508              		.loc 1 1556 15 view .LVU1191
 3509 0014 23F40013 		bic	r3, r3, #2097152
 3510 0018 A363     		str	r3, [r4, #56]
1557:Drivers/STM32F7xx_HAL_Driver/Src/stm32f7xx_ll_usb.c **** 
1558:Drivers/STM32F7xx_HAL_Driver/Src/stm32f7xx_ll_usb.c ****   if ((USBx->GUSBCFG & USB_OTG_GUSBCFG_PHYSEL) == 0U)
 3511              		.loc 1 1558 3 is_stmt 1 view .LVU1192
 3512              		.loc 1 1558 12 is_stmt 0 view .LVU1193
 3513 001a E368     		ldr	r3, [r4, #12]
 3514              		.loc 1 1558 6 view .LVU1194
 3515 001c 13F0400F 		tst	r3, #64
 3516 0020 11D1     		bne	.L224
1559:Drivers/STM32F7xx_HAL_Driver/Src/stm32f7xx_ll_usb.c ****   {
1560:Drivers/STM32F7xx_HAL_Driver/Src/stm32f7xx_ll_usb.c ****     if (cfg.speed == USBH_FSLS_SPEED)
ARM GAS  /var/folders/8d/8djywmp92nx9cg9c5pcw0px00000gn/T//ccLp59Ij.s 			page 109


 3517              		.loc 1 1560 5 is_stmt 1 view .LVU1195
 3518              		.loc 1 1560 12 is_stmt 0 view .LVU1196
 3519 0022 9DF81730 		ldrb	r3, [sp, #23]	@ zero_extendqisi2
 3520              		.loc 1 1560 8 view .LVU1197
 3521 0026 012B     		cmp	r3, #1
 3522 0028 06D0     		beq	.L237
1561:Drivers/STM32F7xx_HAL_Driver/Src/stm32f7xx_ll_usb.c ****     {
1562:Drivers/STM32F7xx_HAL_Driver/Src/stm32f7xx_ll_usb.c ****       /* Force Device Enumeration to FS/LS mode only */
1563:Drivers/STM32F7xx_HAL_Driver/Src/stm32f7xx_ll_usb.c ****       USBx_HOST->HCFG |= USB_OTG_HCFG_FSLSS;
1564:Drivers/STM32F7xx_HAL_Driver/Src/stm32f7xx_ll_usb.c ****     }
1565:Drivers/STM32F7xx_HAL_Driver/Src/stm32f7xx_ll_usb.c ****     else
1566:Drivers/STM32F7xx_HAL_Driver/Src/stm32f7xx_ll_usb.c ****     {
1567:Drivers/STM32F7xx_HAL_Driver/Src/stm32f7xx_ll_usb.c ****       /* Set default Max speed support */
1568:Drivers/STM32F7xx_HAL_Driver/Src/stm32f7xx_ll_usb.c ****       USBx_HOST->HCFG &= ~(USB_OTG_HCFG_FSLSS);
 3523              		.loc 1 1568 7 is_stmt 1 view .LVU1198
 3524              		.loc 1 1568 16 is_stmt 0 view .LVU1199
 3525 002a D4F80034 		ldr	r3, [r4, #1024]
 3526              		.loc 1 1568 23 view .LVU1200
 3527 002e 23F00403 		bic	r3, r3, #4
 3528 0032 C4F80034 		str	r3, [r4, #1024]
 3529 0036 0CE0     		b	.L226
 3530              	.L237:
1563:Drivers/STM32F7xx_HAL_Driver/Src/stm32f7xx_ll_usb.c ****     }
 3531              		.loc 1 1563 7 is_stmt 1 view .LVU1201
1563:Drivers/STM32F7xx_HAL_Driver/Src/stm32f7xx_ll_usb.c ****     }
 3532              		.loc 1 1563 16 is_stmt 0 view .LVU1202
 3533 0038 D4F80034 		ldr	r3, [r4, #1024]
1563:Drivers/STM32F7xx_HAL_Driver/Src/stm32f7xx_ll_usb.c ****     }
 3534              		.loc 1 1563 23 view .LVU1203
 3535 003c 43F00403 		orr	r3, r3, #4
 3536 0040 C4F80034 		str	r3, [r4, #1024]
 3537 0044 05E0     		b	.L226
 3538              	.L224:
1569:Drivers/STM32F7xx_HAL_Driver/Src/stm32f7xx_ll_usb.c ****     }
1570:Drivers/STM32F7xx_HAL_Driver/Src/stm32f7xx_ll_usb.c ****   }
1571:Drivers/STM32F7xx_HAL_Driver/Src/stm32f7xx_ll_usb.c ****   else
1572:Drivers/STM32F7xx_HAL_Driver/Src/stm32f7xx_ll_usb.c ****   {
1573:Drivers/STM32F7xx_HAL_Driver/Src/stm32f7xx_ll_usb.c ****     /* Set default Max speed support */
1574:Drivers/STM32F7xx_HAL_Driver/Src/stm32f7xx_ll_usb.c ****     USBx_HOST->HCFG &= ~(USB_OTG_HCFG_FSLSS);
 3539              		.loc 1 1574 5 is_stmt 1 view .LVU1204
 3540              		.loc 1 1574 14 is_stmt 0 view .LVU1205
 3541 0046 D4F80034 		ldr	r3, [r4, #1024]
 3542              		.loc 1 1574 21 view .LVU1206
 3543 004a 23F00403 		bic	r3, r3, #4
 3544 004e C4F80034 		str	r3, [r4, #1024]
 3545              	.L226:
1575:Drivers/STM32F7xx_HAL_Driver/Src/stm32f7xx_ll_usb.c ****   }
1576:Drivers/STM32F7xx_HAL_Driver/Src/stm32f7xx_ll_usb.c **** 
1577:Drivers/STM32F7xx_HAL_Driver/Src/stm32f7xx_ll_usb.c ****   /* Make sure the FIFOs are flushed. */
1578:Drivers/STM32F7xx_HAL_Driver/Src/stm32f7xx_ll_usb.c ****   if (USB_FlushTxFifo(USBx, 0x10U) != HAL_OK) /* all Tx FIFOs */
 3546              		.loc 1 1578 3 is_stmt 1 view .LVU1207
 3547              		.loc 1 1578 7 is_stmt 0 view .LVU1208
 3548 0052 1021     		movs	r1, #16
 3549 0054 2046     		mov	r0, r4
 3550 0056 FFF7FEFF 		bl	USB_FlushTxFifo
 3551              	.LVL271:
 3552              		.loc 1 1578 6 discriminator 1 view .LVU1209
ARM GAS  /var/folders/8d/8djywmp92nx9cg9c5pcw0px00000gn/T//ccLp59Ij.s 			page 110


 3553 005a 0546     		mov	r5, r0
 3554 005c 00B1     		cbz	r0, .L227
1579:Drivers/STM32F7xx_HAL_Driver/Src/stm32f7xx_ll_usb.c ****   {
1580:Drivers/STM32F7xx_HAL_Driver/Src/stm32f7xx_ll_usb.c ****     ret = HAL_ERROR;
 3555              		.loc 1 1580 9 view .LVU1210
 3556 005e 0125     		movs	r5, #1
 3557              	.L227:
 3558              	.LVL272:
1581:Drivers/STM32F7xx_HAL_Driver/Src/stm32f7xx_ll_usb.c ****   }
1582:Drivers/STM32F7xx_HAL_Driver/Src/stm32f7xx_ll_usb.c **** 
1583:Drivers/STM32F7xx_HAL_Driver/Src/stm32f7xx_ll_usb.c ****   if (USB_FlushRxFifo(USBx) != HAL_OK)
 3559              		.loc 1 1583 3 is_stmt 1 view .LVU1211
 3560              		.loc 1 1583 7 is_stmt 0 view .LVU1212
 3561 0060 2046     		mov	r0, r4
 3562 0062 FFF7FEFF 		bl	USB_FlushRxFifo
 3563              	.LVL273:
 3564              		.loc 1 1583 6 discriminator 1 view .LVU1213
 3565 0066 00B1     		cbz	r0, .L228
1584:Drivers/STM32F7xx_HAL_Driver/Src/stm32f7xx_ll_usb.c ****   {
1585:Drivers/STM32F7xx_HAL_Driver/Src/stm32f7xx_ll_usb.c ****     ret = HAL_ERROR;
 3566              		.loc 1 1585 9 view .LVU1214
 3567 0068 0125     		movs	r5, #1
 3568              	.LVL274:
 3569              	.L228:
1586:Drivers/STM32F7xx_HAL_Driver/Src/stm32f7xx_ll_usb.c ****   }
1587:Drivers/STM32F7xx_HAL_Driver/Src/stm32f7xx_ll_usb.c **** 
1588:Drivers/STM32F7xx_HAL_Driver/Src/stm32f7xx_ll_usb.c ****   /* Clear all pending HC Interrupts */
1589:Drivers/STM32F7xx_HAL_Driver/Src/stm32f7xx_ll_usb.c ****   for (i = 0U; i < cfg.Host_channels; i++)
 3570              		.loc 1 1589 3 is_stmt 1 view .LVU1215
 3571              		.loc 1 1589 10 is_stmt 0 view .LVU1216
 3572 006a 0022     		movs	r2, #0
 3573              		.loc 1 1589 3 view .LVU1217
 3574 006c 09E0     		b	.L229
 3575              	.LVL275:
 3576              	.L230:
1590:Drivers/STM32F7xx_HAL_Driver/Src/stm32f7xx_ll_usb.c ****   {
1591:Drivers/STM32F7xx_HAL_Driver/Src/stm32f7xx_ll_usb.c ****     USBx_HC(i)->HCINT = CLEAR_INTERRUPT_MASK;
 3577              		.loc 1 1591 5 is_stmt 1 view .LVU1218
 3578 006e 04EB4213 		add	r3, r4, r2, lsl #5
 3579              		.loc 1 1591 23 is_stmt 0 view .LVU1219
 3580 0072 4FF0FF31 		mov	r1, #-1
 3581 0076 C3F80815 		str	r1, [r3, #1288]
1592:Drivers/STM32F7xx_HAL_Driver/Src/stm32f7xx_ll_usb.c ****     USBx_HC(i)->HCINTMSK = 0U;
 3582              		.loc 1 1592 5 is_stmt 1 view .LVU1220
 3583              		.loc 1 1592 26 is_stmt 0 view .LVU1221
 3584 007a 0021     		movs	r1, #0
 3585 007c C3F80C15 		str	r1, [r3, #1292]
1589:Drivers/STM32F7xx_HAL_Driver/Src/stm32f7xx_ll_usb.c ****   {
 3586              		.loc 1 1589 40 is_stmt 1 discriminator 3 view .LVU1222
 3587 0080 0132     		adds	r2, r2, #1
 3588              	.LVL276:
 3589              	.L229:
1589:Drivers/STM32F7xx_HAL_Driver/Src/stm32f7xx_ll_usb.c ****   {
 3590              		.loc 1 1589 18 discriminator 1 view .LVU1223
1589:Drivers/STM32F7xx_HAL_Driver/Src/stm32f7xx_ll_usb.c ****   {
 3591              		.loc 1 1589 23 is_stmt 0 discriminator 1 view .LVU1224
 3592 0082 9DF81530 		ldrb	r3, [sp, #21]	@ zero_extendqisi2
ARM GAS  /var/folders/8d/8djywmp92nx9cg9c5pcw0px00000gn/T//ccLp59Ij.s 			page 111


1589:Drivers/STM32F7xx_HAL_Driver/Src/stm32f7xx_ll_usb.c ****   {
 3593              		.loc 1 1589 18 discriminator 1 view .LVU1225
 3594 0086 9342     		cmp	r3, r2
 3595 0088 F1D8     		bhi	.L230
1593:Drivers/STM32F7xx_HAL_Driver/Src/stm32f7xx_ll_usb.c ****   }
1594:Drivers/STM32F7xx_HAL_Driver/Src/stm32f7xx_ll_usb.c **** 
1595:Drivers/STM32F7xx_HAL_Driver/Src/stm32f7xx_ll_usb.c ****   /* Disable all interrupts. */
1596:Drivers/STM32F7xx_HAL_Driver/Src/stm32f7xx_ll_usb.c ****   USBx->GINTMSK = 0U;
 3596              		.loc 1 1596 3 is_stmt 1 view .LVU1226
 3597              		.loc 1 1596 17 is_stmt 0 view .LVU1227
 3598 008a 0023     		movs	r3, #0
 3599 008c A361     		str	r3, [r4, #24]
1597:Drivers/STM32F7xx_HAL_Driver/Src/stm32f7xx_ll_usb.c **** 
1598:Drivers/STM32F7xx_HAL_Driver/Src/stm32f7xx_ll_usb.c ****   /* Clear any pending interrupts */
1599:Drivers/STM32F7xx_HAL_Driver/Src/stm32f7xx_ll_usb.c ****   USBx->GINTSTS = CLEAR_INTERRUPT_MASK;
 3600              		.loc 1 1599 3 is_stmt 1 view .LVU1228
 3601              		.loc 1 1599 17 is_stmt 0 view .LVU1229
 3602 008e 4FF0FF33 		mov	r3, #-1
 3603 0092 6361     		str	r3, [r4, #20]
1600:Drivers/STM32F7xx_HAL_Driver/Src/stm32f7xx_ll_usb.c **** #if defined (USB_OTG_HS)
1601:Drivers/STM32F7xx_HAL_Driver/Src/stm32f7xx_ll_usb.c ****   if (USBx == USB_OTG_HS)
 3604              		.loc 1 1601 3 is_stmt 1 view .LVU1230
 3605              		.loc 1 1601 6 is_stmt 0 view .LVU1231
 3606 0094 124B     		ldr	r3, .L239
 3607 0096 9C42     		cmp	r4, r3
 3608 0098 17D0     		beq	.L238
1602:Drivers/STM32F7xx_HAL_Driver/Src/stm32f7xx_ll_usb.c ****   {
1603:Drivers/STM32F7xx_HAL_Driver/Src/stm32f7xx_ll_usb.c ****     /* set Rx FIFO size */
1604:Drivers/STM32F7xx_HAL_Driver/Src/stm32f7xx_ll_usb.c ****     USBx->GRXFSIZ  = 0x200U;
1605:Drivers/STM32F7xx_HAL_Driver/Src/stm32f7xx_ll_usb.c ****     USBx->DIEPTXF0_HNPTXFSIZ = (uint32_t)(((0x100U << 16) & USB_OTG_NPTXFD) | 0x200U);
1606:Drivers/STM32F7xx_HAL_Driver/Src/stm32f7xx_ll_usb.c ****     USBx->HPTXFSIZ = (uint32_t)(((0xE0U << 16) & USB_OTG_HPTXFSIZ_PTXFD) | 0x300U);
1607:Drivers/STM32F7xx_HAL_Driver/Src/stm32f7xx_ll_usb.c ****   }
1608:Drivers/STM32F7xx_HAL_Driver/Src/stm32f7xx_ll_usb.c ****   else
1609:Drivers/STM32F7xx_HAL_Driver/Src/stm32f7xx_ll_usb.c **** #endif /* defined (USB_OTG_HS) */
1610:Drivers/STM32F7xx_HAL_Driver/Src/stm32f7xx_ll_usb.c ****   {
1611:Drivers/STM32F7xx_HAL_Driver/Src/stm32f7xx_ll_usb.c ****     /* set Rx FIFO size */
1612:Drivers/STM32F7xx_HAL_Driver/Src/stm32f7xx_ll_usb.c ****     USBx->GRXFSIZ  = 0x80U;
 3609              		.loc 1 1612 5 is_stmt 1 view .LVU1232
 3610              		.loc 1 1612 20 is_stmt 0 view .LVU1233
 3611 009a 8023     		movs	r3, #128
 3612 009c 6362     		str	r3, [r4, #36]
1613:Drivers/STM32F7xx_HAL_Driver/Src/stm32f7xx_ll_usb.c ****     USBx->DIEPTXF0_HNPTXFSIZ = (uint32_t)(((0x60U << 16) & USB_OTG_NPTXFD) | 0x80U);
 3613              		.loc 1 1613 5 is_stmt 1 view .LVU1234
 3614              		.loc 1 1613 30 is_stmt 0 view .LVU1235
 3615 009e 03F5C003 		add	r3, r3, #6291456
 3616 00a2 A362     		str	r3, [r4, #40]
1614:Drivers/STM32F7xx_HAL_Driver/Src/stm32f7xx_ll_usb.c ****     USBx->HPTXFSIZ = (uint32_t)(((0x40U << 16)& USB_OTG_HPTXFSIZ_PTXFD) | 0xE0U);
 3617              		.loc 1 1614 5 is_stmt 1 view .LVU1236
 3618              		.loc 1 1614 20 is_stmt 0 view .LVU1237
 3619 00a4 0F4B     		ldr	r3, .L239+4
 3620 00a6 C4F80031 		str	r3, [r4, #256]
 3621              	.L232:
1615:Drivers/STM32F7xx_HAL_Driver/Src/stm32f7xx_ll_usb.c ****   }
1616:Drivers/STM32F7xx_HAL_Driver/Src/stm32f7xx_ll_usb.c **** 
1617:Drivers/STM32F7xx_HAL_Driver/Src/stm32f7xx_ll_usb.c ****   /* Enable the common interrupts */
1618:Drivers/STM32F7xx_HAL_Driver/Src/stm32f7xx_ll_usb.c ****   if (cfg.dma_enable == 0U)
 3622              		.loc 1 1618 3 is_stmt 1 view .LVU1238
ARM GAS  /var/folders/8d/8djywmp92nx9cg9c5pcw0px00000gn/T//ccLp59Ij.s 			page 112


 3623              		.loc 1 1618 10 is_stmt 0 view .LVU1239
 3624 00aa 9DF81630 		ldrb	r3, [sp, #22]	@ zero_extendqisi2
 3625              		.loc 1 1618 6 view .LVU1240
 3626 00ae 1BB9     		cbnz	r3, .L233
1619:Drivers/STM32F7xx_HAL_Driver/Src/stm32f7xx_ll_usb.c ****   {
1620:Drivers/STM32F7xx_HAL_Driver/Src/stm32f7xx_ll_usb.c ****     USBx->GINTMSK |= USB_OTG_GINTMSK_RXFLVLM;
 3627              		.loc 1 1620 5 is_stmt 1 view .LVU1241
 3628              		.loc 1 1620 9 is_stmt 0 view .LVU1242
 3629 00b0 A369     		ldr	r3, [r4, #24]
 3630              		.loc 1 1620 19 view .LVU1243
 3631 00b2 43F01003 		orr	r3, r3, #16
 3632 00b6 A361     		str	r3, [r4, #24]
 3633              	.L233:
1621:Drivers/STM32F7xx_HAL_Driver/Src/stm32f7xx_ll_usb.c ****   }
1622:Drivers/STM32F7xx_HAL_Driver/Src/stm32f7xx_ll_usb.c **** 
1623:Drivers/STM32F7xx_HAL_Driver/Src/stm32f7xx_ll_usb.c ****   /* Enable interrupts matching to the Host mode ONLY */
1624:Drivers/STM32F7xx_HAL_Driver/Src/stm32f7xx_ll_usb.c ****   USBx->GINTMSK |= (USB_OTG_GINTMSK_PRTIM            | USB_OTG_GINTMSK_HCIM | \
 3634              		.loc 1 1624 3 is_stmt 1 view .LVU1244
 3635              		.loc 1 1624 7 is_stmt 0 view .LVU1245
 3636 00b8 A269     		ldr	r2, [r4, #24]
 3637              	.LVL277:
 3638              		.loc 1 1624 17 view .LVU1246
 3639 00ba 0B4B     		ldr	r3, .L239+8
 3640 00bc 1343     		orrs	r3, r3, r2
 3641 00be A361     		str	r3, [r4, #24]
1625:Drivers/STM32F7xx_HAL_Driver/Src/stm32f7xx_ll_usb.c ****                     USB_OTG_GINTMSK_SOFM             | USB_OTG_GINTSTS_DISCINT | \
1626:Drivers/STM32F7xx_HAL_Driver/Src/stm32f7xx_ll_usb.c ****                     USB_OTG_GINTMSK_PXFRM_IISOOXFRM  | USB_OTG_GINTMSK_WUIM);
1627:Drivers/STM32F7xx_HAL_Driver/Src/stm32f7xx_ll_usb.c **** 
1628:Drivers/STM32F7xx_HAL_Driver/Src/stm32f7xx_ll_usb.c ****   return ret;
 3642              		.loc 1 1628 3 is_stmt 1 view .LVU1247
1629:Drivers/STM32F7xx_HAL_Driver/Src/stm32f7xx_ll_usb.c **** }
 3643              		.loc 1 1629 1 is_stmt 0 view .LVU1248
 3644 00c0 2846     		mov	r0, r5
 3645 00c2 BDE83840 		pop	{r3, r4, r5, lr}
 3646              		.cfi_remember_state
 3647              		.cfi_restore 14
 3648              		.cfi_restore 5
 3649              		.cfi_restore 4
 3650              		.cfi_restore 3
 3651              		.cfi_def_cfa_offset 16
 3652              	.LVL278:
 3653              		.loc 1 1629 1 view .LVU1249
 3654 00c6 04B0     		add	sp, sp, #16
 3655              		.cfi_def_cfa_offset 0
 3656 00c8 7047     		bx	lr
 3657              	.LVL279:
 3658              	.L238:
 3659              		.cfi_restore_state
1604:Drivers/STM32F7xx_HAL_Driver/Src/stm32f7xx_ll_usb.c ****     USBx->DIEPTXF0_HNPTXFSIZ = (uint32_t)(((0x100U << 16) & USB_OTG_NPTXFD) | 0x200U);
 3660              		.loc 1 1604 5 is_stmt 1 view .LVU1250
1604:Drivers/STM32F7xx_HAL_Driver/Src/stm32f7xx_ll_usb.c ****     USBx->DIEPTXF0_HNPTXFSIZ = (uint32_t)(((0x100U << 16) & USB_OTG_NPTXFD) | 0x200U);
 3661              		.loc 1 1604 20 is_stmt 0 view .LVU1251
 3662 00ca 4FF40073 		mov	r3, #512
 3663 00ce 6362     		str	r3, [r4, #36]
1605:Drivers/STM32F7xx_HAL_Driver/Src/stm32f7xx_ll_usb.c ****     USBx->HPTXFSIZ = (uint32_t)(((0xE0U << 16) & USB_OTG_HPTXFSIZ_PTXFD) | 0x300U);
 3664              		.loc 1 1605 5 is_stmt 1 view .LVU1252
1605:Drivers/STM32F7xx_HAL_Driver/Src/stm32f7xx_ll_usb.c ****     USBx->HPTXFSIZ = (uint32_t)(((0xE0U << 16) & USB_OTG_HPTXFSIZ_PTXFD) | 0x300U);
ARM GAS  /var/folders/8d/8djywmp92nx9cg9c5pcw0px00000gn/T//ccLp59Ij.s 			page 113


 3665              		.loc 1 1605 30 is_stmt 0 view .LVU1253
 3666 00d0 03F18073 		add	r3, r3, #16777216
 3667 00d4 A362     		str	r3, [r4, #40]
1606:Drivers/STM32F7xx_HAL_Driver/Src/stm32f7xx_ll_usb.c ****   }
 3668              		.loc 1 1606 5 is_stmt 1 view .LVU1254
1606:Drivers/STM32F7xx_HAL_Driver/Src/stm32f7xx_ll_usb.c ****   }
 3669              		.loc 1 1606 20 is_stmt 0 view .LVU1255
 3670 00d6 054B     		ldr	r3, .L239+12
 3671 00d8 C4F80031 		str	r3, [r4, #256]
 3672 00dc E5E7     		b	.L232
 3673              	.L240:
 3674 00de 00BF     		.align	2
 3675              	.L239:
 3676 00e0 00000440 		.word	1074003968
 3677 00e4 E0004000 		.word	4194528
 3678 00e8 080020A3 		.word	-1558183928
 3679 00ec 0003E000 		.word	14680832
 3680              		.cfi_endproc
 3681              	.LFE176:
 3683              		.section	.text.USB_InitFSLSPClkSel,"ax",%progbits
 3684              		.align	1
 3685              		.global	USB_InitFSLSPClkSel
 3686              		.syntax unified
 3687              		.thumb
 3688              		.thumb_func
 3690              	USB_InitFSLSPClkSel:
 3691              	.LVL280:
 3692              	.LFB177:
1630:Drivers/STM32F7xx_HAL_Driver/Src/stm32f7xx_ll_usb.c **** 
1631:Drivers/STM32F7xx_HAL_Driver/Src/stm32f7xx_ll_usb.c **** /**
1632:Drivers/STM32F7xx_HAL_Driver/Src/stm32f7xx_ll_usb.c ****   * @brief  USB_InitFSLSPClkSel : Initializes the FSLSPClkSel field of the
1633:Drivers/STM32F7xx_HAL_Driver/Src/stm32f7xx_ll_usb.c ****   *         HCFG register on the PHY type and set the right frame interval
1634:Drivers/STM32F7xx_HAL_Driver/Src/stm32f7xx_ll_usb.c ****   * @param  USBx  Selected device
1635:Drivers/STM32F7xx_HAL_Driver/Src/stm32f7xx_ll_usb.c ****   * @param  freq  clock frequency
1636:Drivers/STM32F7xx_HAL_Driver/Src/stm32f7xx_ll_usb.c ****   *          This parameter can be one of these values:
1637:Drivers/STM32F7xx_HAL_Driver/Src/stm32f7xx_ll_usb.c ****   *           HCFG_48_MHZ : Full Speed 48 MHz Clock
1638:Drivers/STM32F7xx_HAL_Driver/Src/stm32f7xx_ll_usb.c ****   *           HCFG_6_MHZ : Low Speed 6 MHz Clock
1639:Drivers/STM32F7xx_HAL_Driver/Src/stm32f7xx_ll_usb.c ****   * @retval HAL status
1640:Drivers/STM32F7xx_HAL_Driver/Src/stm32f7xx_ll_usb.c ****   */
1641:Drivers/STM32F7xx_HAL_Driver/Src/stm32f7xx_ll_usb.c **** HAL_StatusTypeDef USB_InitFSLSPClkSel(const USB_OTG_GlobalTypeDef *USBx, uint8_t freq)
1642:Drivers/STM32F7xx_HAL_Driver/Src/stm32f7xx_ll_usb.c **** {
 3693              		.loc 1 1642 1 is_stmt 1 view -0
 3694              		.cfi_startproc
 3695              		@ args = 0, pretend = 0, frame = 0
 3696              		@ frame_needed = 0, uses_anonymous_args = 0
 3697              		@ link register save eliminated.
1643:Drivers/STM32F7xx_HAL_Driver/Src/stm32f7xx_ll_usb.c ****   uint32_t USBx_BASE = (uint32_t)USBx;
 3698              		.loc 1 1643 3 view .LVU1257
1644:Drivers/STM32F7xx_HAL_Driver/Src/stm32f7xx_ll_usb.c **** 
1645:Drivers/STM32F7xx_HAL_Driver/Src/stm32f7xx_ll_usb.c ****   USBx_HOST->HCFG &= ~(USB_OTG_HCFG_FSLSPCS);
 3699              		.loc 1 1645 3 view .LVU1258
 3700              		.loc 1 1645 12 is_stmt 0 view .LVU1259
 3701 0000 00F5806C 		add	ip, r0, #1024
 3702 0004 D0F80034 		ldr	r3, [r0, #1024]
 3703              		.loc 1 1645 19 view .LVU1260
 3704 0008 23F00303 		bic	r3, r3, #3
 3705 000c C0F80034 		str	r3, [r0, #1024]
ARM GAS  /var/folders/8d/8djywmp92nx9cg9c5pcw0px00000gn/T//ccLp59Ij.s 			page 114


1646:Drivers/STM32F7xx_HAL_Driver/Src/stm32f7xx_ll_usb.c ****   USBx_HOST->HCFG |= (uint32_t)freq & USB_OTG_HCFG_FSLSPCS;
 3706              		.loc 1 1646 3 is_stmt 1 view .LVU1261
 3707              		.loc 1 1646 12 is_stmt 0 view .LVU1262
 3708 0010 D0F80034 		ldr	r3, [r0, #1024]
 3709              		.loc 1 1646 37 view .LVU1263
 3710 0014 01F00302 		and	r2, r1, #3
 3711              		.loc 1 1646 19 view .LVU1264
 3712 0018 1343     		orrs	r3, r3, r2
 3713 001a C0F80034 		str	r3, [r0, #1024]
1647:Drivers/STM32F7xx_HAL_Driver/Src/stm32f7xx_ll_usb.c **** 
1648:Drivers/STM32F7xx_HAL_Driver/Src/stm32f7xx_ll_usb.c ****   if (freq == HCFG_48_MHZ)
 3714              		.loc 1 1648 3 is_stmt 1 view .LVU1265
 3715              		.loc 1 1648 6 is_stmt 0 view .LVU1266
 3716 001e 0129     		cmp	r1, #1
 3717 0020 07D0     		beq	.L245
1649:Drivers/STM32F7xx_HAL_Driver/Src/stm32f7xx_ll_usb.c ****   {
1650:Drivers/STM32F7xx_HAL_Driver/Src/stm32f7xx_ll_usb.c ****     USBx_HOST->HFIR = HFIR_48_MHZ;
1651:Drivers/STM32F7xx_HAL_Driver/Src/stm32f7xx_ll_usb.c ****   }
1652:Drivers/STM32F7xx_HAL_Driver/Src/stm32f7xx_ll_usb.c ****   else if (freq == HCFG_6_MHZ)
 3718              		.loc 1 1652 8 is_stmt 1 view .LVU1267
 3719              		.loc 1 1652 11 is_stmt 0 view .LVU1268
 3720 0022 0229     		cmp	r1, #2
 3721 0024 0BD1     		bne	.L244
1653:Drivers/STM32F7xx_HAL_Driver/Src/stm32f7xx_ll_usb.c ****   {
1654:Drivers/STM32F7xx_HAL_Driver/Src/stm32f7xx_ll_usb.c ****     USBx_HOST->HFIR = HFIR_6_MHZ;
 3722              		.loc 1 1654 5 is_stmt 1 view .LVU1269
 3723              		.loc 1 1654 21 is_stmt 0 view .LVU1270
 3724 0026 41F27073 		movw	r3, #6000
 3725 002a CCF80430 		str	r3, [ip, #4]
1655:Drivers/STM32F7xx_HAL_Driver/Src/stm32f7xx_ll_usb.c ****   }
1656:Drivers/STM32F7xx_HAL_Driver/Src/stm32f7xx_ll_usb.c ****   else
1657:Drivers/STM32F7xx_HAL_Driver/Src/stm32f7xx_ll_usb.c ****   {
1658:Drivers/STM32F7xx_HAL_Driver/Src/stm32f7xx_ll_usb.c ****     return HAL_ERROR;
1659:Drivers/STM32F7xx_HAL_Driver/Src/stm32f7xx_ll_usb.c ****   }
1660:Drivers/STM32F7xx_HAL_Driver/Src/stm32f7xx_ll_usb.c **** 
1661:Drivers/STM32F7xx_HAL_Driver/Src/stm32f7xx_ll_usb.c ****   return HAL_OK;
 3726              		.loc 1 1661 10 view .LVU1271
 3727 002e 0020     		movs	r0, #0
 3728              	.LVL281:
 3729              		.loc 1 1661 10 view .LVU1272
 3730 0030 7047     		bx	lr
 3731              	.LVL282:
 3732              	.L245:
1650:Drivers/STM32F7xx_HAL_Driver/Src/stm32f7xx_ll_usb.c ****   }
 3733              		.loc 1 1650 5 is_stmt 1 view .LVU1273
1650:Drivers/STM32F7xx_HAL_Driver/Src/stm32f7xx_ll_usb.c ****   }
 3734              		.loc 1 1650 21 is_stmt 0 view .LVU1274
 3735 0032 4BF68033 		movw	r3, #48000
 3736 0036 CCF80430 		str	r3, [ip, #4]
 3737              		.loc 1 1661 10 view .LVU1275
 3738 003a 0020     		movs	r0, #0
 3739              	.LVL283:
 3740              		.loc 1 1661 10 view .LVU1276
 3741 003c 7047     		bx	lr
 3742              	.LVL284:
 3743              	.L244:
1658:Drivers/STM32F7xx_HAL_Driver/Src/stm32f7xx_ll_usb.c ****   }
ARM GAS  /var/folders/8d/8djywmp92nx9cg9c5pcw0px00000gn/T//ccLp59Ij.s 			page 115


 3744              		.loc 1 1658 12 view .LVU1277
 3745 003e 0120     		movs	r0, #1
 3746              	.LVL285:
1662:Drivers/STM32F7xx_HAL_Driver/Src/stm32f7xx_ll_usb.c **** }
 3747              		.loc 1 1662 1 view .LVU1278
 3748 0040 7047     		bx	lr
 3749              		.cfi_endproc
 3750              	.LFE177:
 3752              		.section	.text.USB_ResetPort,"ax",%progbits
 3753              		.align	1
 3754              		.global	USB_ResetPort
 3755              		.syntax unified
 3756              		.thumb
 3757              		.thumb_func
 3759              	USB_ResetPort:
 3760              	.LVL286:
 3761              	.LFB178:
1663:Drivers/STM32F7xx_HAL_Driver/Src/stm32f7xx_ll_usb.c **** 
1664:Drivers/STM32F7xx_HAL_Driver/Src/stm32f7xx_ll_usb.c **** /**
1665:Drivers/STM32F7xx_HAL_Driver/Src/stm32f7xx_ll_usb.c ****   * @brief  USB_OTG_ResetPort : Reset Host Port
1666:Drivers/STM32F7xx_HAL_Driver/Src/stm32f7xx_ll_usb.c ****   * @param  USBx  Selected device
1667:Drivers/STM32F7xx_HAL_Driver/Src/stm32f7xx_ll_usb.c ****   * @retval HAL status
1668:Drivers/STM32F7xx_HAL_Driver/Src/stm32f7xx_ll_usb.c ****   * @note (1)The application must wait at least 10 ms
1669:Drivers/STM32F7xx_HAL_Driver/Src/stm32f7xx_ll_usb.c ****   *   before clearing the reset bit.
1670:Drivers/STM32F7xx_HAL_Driver/Src/stm32f7xx_ll_usb.c ****   */
1671:Drivers/STM32F7xx_HAL_Driver/Src/stm32f7xx_ll_usb.c **** HAL_StatusTypeDef USB_ResetPort(const USB_OTG_GlobalTypeDef *USBx)
1672:Drivers/STM32F7xx_HAL_Driver/Src/stm32f7xx_ll_usb.c **** {
 3762              		.loc 1 1672 1 is_stmt 1 view -0
 3763              		.cfi_startproc
 3764              		@ args = 0, pretend = 0, frame = 8
 3765              		@ frame_needed = 0, uses_anonymous_args = 0
 3766              		.loc 1 1672 1 is_stmt 0 view .LVU1280
 3767 0000 30B5     		push	{r4, r5, lr}
 3768              		.cfi_def_cfa_offset 12
 3769              		.cfi_offset 4, -12
 3770              		.cfi_offset 5, -8
 3771              		.cfi_offset 14, -4
 3772 0002 83B0     		sub	sp, sp, #12
 3773              		.cfi_def_cfa_offset 24
 3774 0004 0446     		mov	r4, r0
1673:Drivers/STM32F7xx_HAL_Driver/Src/stm32f7xx_ll_usb.c ****   uint32_t USBx_BASE = (uint32_t)USBx;
 3775              		.loc 1 1673 3 is_stmt 1 view .LVU1281
 3776              	.LVL287:
1674:Drivers/STM32F7xx_HAL_Driver/Src/stm32f7xx_ll_usb.c **** 
1675:Drivers/STM32F7xx_HAL_Driver/Src/stm32f7xx_ll_usb.c ****   __IO uint32_t hprt0 = 0U;
 3777              		.loc 1 1675 3 view .LVU1282
 3778              		.loc 1 1675 17 is_stmt 0 view .LVU1283
 3779 0006 0025     		movs	r5, #0
 3780 0008 0195     		str	r5, [sp, #4]
1676:Drivers/STM32F7xx_HAL_Driver/Src/stm32f7xx_ll_usb.c **** 
1677:Drivers/STM32F7xx_HAL_Driver/Src/stm32f7xx_ll_usb.c ****   hprt0 = USBx_HPRT0;
 3781              		.loc 1 1677 3 is_stmt 1 view .LVU1284
 3782              		.loc 1 1677 11 is_stmt 0 view .LVU1285
 3783 000a D0F84034 		ldr	r3, [r0, #1088]
 3784              		.loc 1 1677 9 view .LVU1286
 3785 000e 0193     		str	r3, [sp, #4]
1678:Drivers/STM32F7xx_HAL_Driver/Src/stm32f7xx_ll_usb.c **** 
ARM GAS  /var/folders/8d/8djywmp92nx9cg9c5pcw0px00000gn/T//ccLp59Ij.s 			page 116


1679:Drivers/STM32F7xx_HAL_Driver/Src/stm32f7xx_ll_usb.c ****   hprt0 &= ~(USB_OTG_HPRT_PENA | USB_OTG_HPRT_PCDET |
 3786              		.loc 1 1679 3 is_stmt 1 view .LVU1287
 3787              		.loc 1 1679 9 is_stmt 0 view .LVU1288
 3788 0010 019B     		ldr	r3, [sp, #4]
 3789 0012 23F02E03 		bic	r3, r3, #46
 3790 0016 0193     		str	r3, [sp, #4]
1680:Drivers/STM32F7xx_HAL_Driver/Src/stm32f7xx_ll_usb.c ****              USB_OTG_HPRT_PENCHNG | USB_OTG_HPRT_POCCHNG);
1681:Drivers/STM32F7xx_HAL_Driver/Src/stm32f7xx_ll_usb.c **** 
1682:Drivers/STM32F7xx_HAL_Driver/Src/stm32f7xx_ll_usb.c ****   USBx_HPRT0 = (USB_OTG_HPRT_PRST | hprt0);
 3791              		.loc 1 1682 3 is_stmt 1 view .LVU1289
 3792              		.loc 1 1682 35 is_stmt 0 view .LVU1290
 3793 0018 019B     		ldr	r3, [sp, #4]
 3794 001a 43F48073 		orr	r3, r3, #256
 3795              		.loc 1 1682 14 view .LVU1291
 3796 001e C0F84034 		str	r3, [r0, #1088]
1683:Drivers/STM32F7xx_HAL_Driver/Src/stm32f7xx_ll_usb.c ****   HAL_Delay(100U);                                 /* See Note #1 */
 3797              		.loc 1 1683 3 is_stmt 1 view .LVU1292
 3798 0022 6420     		movs	r0, #100
 3799              	.LVL288:
 3800              		.loc 1 1683 3 is_stmt 0 view .LVU1293
 3801 0024 FFF7FEFF 		bl	HAL_Delay
 3802              	.LVL289:
1684:Drivers/STM32F7xx_HAL_Driver/Src/stm32f7xx_ll_usb.c ****   USBx_HPRT0 = ((~USB_OTG_HPRT_PRST) & hprt0);
 3803              		.loc 1 1684 3 is_stmt 1 view .LVU1294
 3804              		.loc 1 1684 38 is_stmt 0 view .LVU1295
 3805 0028 019B     		ldr	r3, [sp, #4]
 3806 002a 23F48073 		bic	r3, r3, #256
 3807              		.loc 1 1684 14 view .LVU1296
 3808 002e C4F84034 		str	r3, [r4, #1088]
1685:Drivers/STM32F7xx_HAL_Driver/Src/stm32f7xx_ll_usb.c ****   HAL_Delay(10U);
 3809              		.loc 1 1685 3 is_stmt 1 view .LVU1297
 3810 0032 0A20     		movs	r0, #10
 3811 0034 FFF7FEFF 		bl	HAL_Delay
 3812              	.LVL290:
1686:Drivers/STM32F7xx_HAL_Driver/Src/stm32f7xx_ll_usb.c **** 
1687:Drivers/STM32F7xx_HAL_Driver/Src/stm32f7xx_ll_usb.c ****   return HAL_OK;
 3813              		.loc 1 1687 3 view .LVU1298
1688:Drivers/STM32F7xx_HAL_Driver/Src/stm32f7xx_ll_usb.c **** }
 3814              		.loc 1 1688 1 is_stmt 0 view .LVU1299
 3815 0038 2846     		mov	r0, r5
 3816 003a 03B0     		add	sp, sp, #12
 3817              		.cfi_def_cfa_offset 12
 3818              		@ sp needed
 3819 003c 30BD     		pop	{r4, r5, pc}
 3820              		.loc 1 1688 1 view .LVU1300
 3821              		.cfi_endproc
 3822              	.LFE178:
 3824              		.section	.text.USB_DriveVbus,"ax",%progbits
 3825              		.align	1
 3826              		.global	USB_DriveVbus
 3827              		.syntax unified
 3828              		.thumb
 3829              		.thumb_func
 3831              	USB_DriveVbus:
 3832              	.LVL291:
 3833              	.LFB179:
1689:Drivers/STM32F7xx_HAL_Driver/Src/stm32f7xx_ll_usb.c **** 
ARM GAS  /var/folders/8d/8djywmp92nx9cg9c5pcw0px00000gn/T//ccLp59Ij.s 			page 117


1690:Drivers/STM32F7xx_HAL_Driver/Src/stm32f7xx_ll_usb.c **** /**
1691:Drivers/STM32F7xx_HAL_Driver/Src/stm32f7xx_ll_usb.c ****   * @brief  USB_DriveVbus : activate or de-activate vbus
1692:Drivers/STM32F7xx_HAL_Driver/Src/stm32f7xx_ll_usb.c ****   * @param  state  VBUS state
1693:Drivers/STM32F7xx_HAL_Driver/Src/stm32f7xx_ll_usb.c ****   *          This parameter can be one of these values:
1694:Drivers/STM32F7xx_HAL_Driver/Src/stm32f7xx_ll_usb.c ****   *           0 : Deactivate VBUS
1695:Drivers/STM32F7xx_HAL_Driver/Src/stm32f7xx_ll_usb.c ****   *           1 : Activate VBUS
1696:Drivers/STM32F7xx_HAL_Driver/Src/stm32f7xx_ll_usb.c ****   * @retval HAL status
1697:Drivers/STM32F7xx_HAL_Driver/Src/stm32f7xx_ll_usb.c ****   */
1698:Drivers/STM32F7xx_HAL_Driver/Src/stm32f7xx_ll_usb.c **** HAL_StatusTypeDef USB_DriveVbus(const USB_OTG_GlobalTypeDef *USBx, uint8_t state)
1699:Drivers/STM32F7xx_HAL_Driver/Src/stm32f7xx_ll_usb.c **** {
 3834              		.loc 1 1699 1 is_stmt 1 view -0
 3835              		.cfi_startproc
 3836              		@ args = 0, pretend = 0, frame = 8
 3837              		@ frame_needed = 0, uses_anonymous_args = 0
 3838              		@ link register save eliminated.
 3839              		.loc 1 1699 1 is_stmt 0 view .LVU1302
 3840 0000 82B0     		sub	sp, sp, #8
 3841              		.cfi_def_cfa_offset 8
1700:Drivers/STM32F7xx_HAL_Driver/Src/stm32f7xx_ll_usb.c ****   uint32_t USBx_BASE = (uint32_t)USBx;
 3842              		.loc 1 1700 3 is_stmt 1 view .LVU1303
 3843              	.LVL292:
1701:Drivers/STM32F7xx_HAL_Driver/Src/stm32f7xx_ll_usb.c ****   __IO uint32_t hprt0 = 0U;
 3844              		.loc 1 1701 3 view .LVU1304
 3845              		.loc 1 1701 17 is_stmt 0 view .LVU1305
 3846 0002 0023     		movs	r3, #0
 3847 0004 0193     		str	r3, [sp, #4]
1702:Drivers/STM32F7xx_HAL_Driver/Src/stm32f7xx_ll_usb.c **** 
1703:Drivers/STM32F7xx_HAL_Driver/Src/stm32f7xx_ll_usb.c ****   hprt0 = USBx_HPRT0;
 3848              		.loc 1 1703 3 is_stmt 1 view .LVU1306
 3849              		.loc 1 1703 11 is_stmt 0 view .LVU1307
 3850 0006 D0F84034 		ldr	r3, [r0, #1088]
 3851              		.loc 1 1703 9 view .LVU1308
 3852 000a 0193     		str	r3, [sp, #4]
1704:Drivers/STM32F7xx_HAL_Driver/Src/stm32f7xx_ll_usb.c **** 
1705:Drivers/STM32F7xx_HAL_Driver/Src/stm32f7xx_ll_usb.c ****   hprt0 &= ~(USB_OTG_HPRT_PENA | USB_OTG_HPRT_PCDET |
 3853              		.loc 1 1705 3 is_stmt 1 view .LVU1309
 3854              		.loc 1 1705 9 is_stmt 0 view .LVU1310
 3855 000c 019B     		ldr	r3, [sp, #4]
 3856 000e 23F02E03 		bic	r3, r3, #46
 3857 0012 0193     		str	r3, [sp, #4]
1706:Drivers/STM32F7xx_HAL_Driver/Src/stm32f7xx_ll_usb.c ****              USB_OTG_HPRT_PENCHNG | USB_OTG_HPRT_POCCHNG);
1707:Drivers/STM32F7xx_HAL_Driver/Src/stm32f7xx_ll_usb.c **** 
1708:Drivers/STM32F7xx_HAL_Driver/Src/stm32f7xx_ll_usb.c ****   if (((hprt0 & USB_OTG_HPRT_PPWR) == 0U) && (state == 1U))
 3858              		.loc 1 1708 3 is_stmt 1 view .LVU1311
 3859              		.loc 1 1708 15 is_stmt 0 view .LVU1312
 3860 0014 019B     		ldr	r3, [sp, #4]
 3861              		.loc 1 1708 6 view .LVU1313
 3862 0016 13F4805F 		tst	r3, #4096
 3863 001a 01D1     		bne	.L249
 3864              		.loc 1 1708 43 discriminator 1 view .LVU1314
 3865 001c 0129     		cmp	r1, #1
 3866 001e 0CD0     		beq	.L252
 3867              	.L249:
1709:Drivers/STM32F7xx_HAL_Driver/Src/stm32f7xx_ll_usb.c ****   {
1710:Drivers/STM32F7xx_HAL_Driver/Src/stm32f7xx_ll_usb.c ****     USBx_HPRT0 = (USB_OTG_HPRT_PPWR | hprt0);
1711:Drivers/STM32F7xx_HAL_Driver/Src/stm32f7xx_ll_usb.c ****   }
1712:Drivers/STM32F7xx_HAL_Driver/Src/stm32f7xx_ll_usb.c ****   if (((hprt0 & USB_OTG_HPRT_PPWR) == USB_OTG_HPRT_PPWR) && (state == 0U))
ARM GAS  /var/folders/8d/8djywmp92nx9cg9c5pcw0px00000gn/T//ccLp59Ij.s 			page 118


 3868              		.loc 1 1712 3 is_stmt 1 view .LVU1315
 3869              		.loc 1 1712 15 is_stmt 0 view .LVU1316
 3870 0020 019B     		ldr	r3, [sp, #4]
 3871              		.loc 1 1712 6 view .LVU1317
 3872 0022 13F4805F 		tst	r3, #4096
 3873 0026 05D0     		beq	.L250
 3874              		.loc 1 1712 58 discriminator 1 view .LVU1318
 3875 0028 21B9     		cbnz	r1, .L250
1713:Drivers/STM32F7xx_HAL_Driver/Src/stm32f7xx_ll_usb.c ****   {
1714:Drivers/STM32F7xx_HAL_Driver/Src/stm32f7xx_ll_usb.c ****     USBx_HPRT0 = ((~USB_OTG_HPRT_PPWR) & hprt0);
 3876              		.loc 1 1714 5 is_stmt 1 view .LVU1319
 3877              		.loc 1 1714 40 is_stmt 0 view .LVU1320
 3878 002a 019B     		ldr	r3, [sp, #4]
 3879 002c 23F48053 		bic	r3, r3, #4096
 3880              		.loc 1 1714 16 view .LVU1321
 3881 0030 C0F84034 		str	r3, [r0, #1088]
 3882              	.L250:
1715:Drivers/STM32F7xx_HAL_Driver/Src/stm32f7xx_ll_usb.c ****   }
1716:Drivers/STM32F7xx_HAL_Driver/Src/stm32f7xx_ll_usb.c ****   return HAL_OK;
 3883              		.loc 1 1716 3 is_stmt 1 view .LVU1322
1717:Drivers/STM32F7xx_HAL_Driver/Src/stm32f7xx_ll_usb.c **** }
 3884              		.loc 1 1717 1 is_stmt 0 view .LVU1323
 3885 0034 0020     		movs	r0, #0
 3886              	.LVL293:
 3887              		.loc 1 1717 1 view .LVU1324
 3888 0036 02B0     		add	sp, sp, #8
 3889              		.cfi_remember_state
 3890              		.cfi_def_cfa_offset 0
 3891              		@ sp needed
 3892 0038 7047     		bx	lr
 3893              	.LVL294:
 3894              	.L252:
 3895              		.cfi_restore_state
1710:Drivers/STM32F7xx_HAL_Driver/Src/stm32f7xx_ll_usb.c ****   }
 3896              		.loc 1 1710 5 is_stmt 1 view .LVU1325
1710:Drivers/STM32F7xx_HAL_Driver/Src/stm32f7xx_ll_usb.c ****   }
 3897              		.loc 1 1710 37 is_stmt 0 view .LVU1326
 3898 003a 019B     		ldr	r3, [sp, #4]
 3899 003c 43F48053 		orr	r3, r3, #4096
1710:Drivers/STM32F7xx_HAL_Driver/Src/stm32f7xx_ll_usb.c ****   }
 3900              		.loc 1 1710 16 view .LVU1327
 3901 0040 C0F84034 		str	r3, [r0, #1088]
 3902 0044 ECE7     		b	.L249
 3903              		.cfi_endproc
 3904              	.LFE179:
 3906              		.section	.text.USB_GetHostSpeed,"ax",%progbits
 3907              		.align	1
 3908              		.global	USB_GetHostSpeed
 3909              		.syntax unified
 3910              		.thumb
 3911              		.thumb_func
 3913              	USB_GetHostSpeed:
 3914              	.LVL295:
 3915              	.LFB180:
1718:Drivers/STM32F7xx_HAL_Driver/Src/stm32f7xx_ll_usb.c **** 
1719:Drivers/STM32F7xx_HAL_Driver/Src/stm32f7xx_ll_usb.c **** /**
1720:Drivers/STM32F7xx_HAL_Driver/Src/stm32f7xx_ll_usb.c ****   * @brief  Return Host Core speed
ARM GAS  /var/folders/8d/8djywmp92nx9cg9c5pcw0px00000gn/T//ccLp59Ij.s 			page 119


1721:Drivers/STM32F7xx_HAL_Driver/Src/stm32f7xx_ll_usb.c ****   * @param  USBx  Selected device
1722:Drivers/STM32F7xx_HAL_Driver/Src/stm32f7xx_ll_usb.c ****   * @retval speed : Host speed
1723:Drivers/STM32F7xx_HAL_Driver/Src/stm32f7xx_ll_usb.c ****   *          This parameter can be one of these values:
1724:Drivers/STM32F7xx_HAL_Driver/Src/stm32f7xx_ll_usb.c ****   *            @arg HCD_SPEED_HIGH: High speed mode
1725:Drivers/STM32F7xx_HAL_Driver/Src/stm32f7xx_ll_usb.c ****   *            @arg HCD_SPEED_FULL: Full speed mode
1726:Drivers/STM32F7xx_HAL_Driver/Src/stm32f7xx_ll_usb.c ****   *            @arg HCD_SPEED_LOW: Low speed mode
1727:Drivers/STM32F7xx_HAL_Driver/Src/stm32f7xx_ll_usb.c ****   */
1728:Drivers/STM32F7xx_HAL_Driver/Src/stm32f7xx_ll_usb.c **** uint32_t USB_GetHostSpeed(USB_OTG_GlobalTypeDef const *USBx)
1729:Drivers/STM32F7xx_HAL_Driver/Src/stm32f7xx_ll_usb.c **** {
 3916              		.loc 1 1729 1 is_stmt 1 view -0
 3917              		.cfi_startproc
 3918              		@ args = 0, pretend = 0, frame = 8
 3919              		@ frame_needed = 0, uses_anonymous_args = 0
 3920              		@ link register save eliminated.
 3921              		.loc 1 1729 1 is_stmt 0 view .LVU1329
 3922 0000 82B0     		sub	sp, sp, #8
 3923              		.cfi_def_cfa_offset 8
1730:Drivers/STM32F7xx_HAL_Driver/Src/stm32f7xx_ll_usb.c ****   uint32_t USBx_BASE = (uint32_t)USBx;
 3924              		.loc 1 1730 3 is_stmt 1 view .LVU1330
 3925              	.LVL296:
1731:Drivers/STM32F7xx_HAL_Driver/Src/stm32f7xx_ll_usb.c ****   __IO uint32_t hprt0 = 0U;
 3926              		.loc 1 1731 3 view .LVU1331
 3927              		.loc 1 1731 17 is_stmt 0 view .LVU1332
 3928 0002 0023     		movs	r3, #0
 3929 0004 0193     		str	r3, [sp, #4]
1732:Drivers/STM32F7xx_HAL_Driver/Src/stm32f7xx_ll_usb.c **** 
1733:Drivers/STM32F7xx_HAL_Driver/Src/stm32f7xx_ll_usb.c ****   hprt0 = USBx_HPRT0;
 3930              		.loc 1 1733 3 is_stmt 1 view .LVU1333
 3931              		.loc 1 1733 11 is_stmt 0 view .LVU1334
 3932 0006 D0F84034 		ldr	r3, [r0, #1088]
 3933              		.loc 1 1733 9 view .LVU1335
 3934 000a 0193     		str	r3, [sp, #4]
1734:Drivers/STM32F7xx_HAL_Driver/Src/stm32f7xx_ll_usb.c ****   return ((hprt0 & USB_OTG_HPRT_PSPD) >> 17);
 3935              		.loc 1 1734 3 is_stmt 1 view .LVU1336
 3936              		.loc 1 1734 39 is_stmt 0 view .LVU1337
 3937 000c 0198     		ldr	r0, [sp, #4]
 3938              	.LVL297:
1735:Drivers/STM32F7xx_HAL_Driver/Src/stm32f7xx_ll_usb.c **** }
 3939              		.loc 1 1735 1 view .LVU1338
 3940 000e C0F34140 		ubfx	r0, r0, #17, #2
 3941 0012 02B0     		add	sp, sp, #8
 3942              		.cfi_def_cfa_offset 0
 3943              		@ sp needed
 3944 0014 7047     		bx	lr
 3945              		.cfi_endproc
 3946              	.LFE180:
 3948              		.section	.text.USB_GetCurrentFrame,"ax",%progbits
 3949              		.align	1
 3950              		.global	USB_GetCurrentFrame
 3951              		.syntax unified
 3952              		.thumb
 3953              		.thumb_func
 3955              	USB_GetCurrentFrame:
 3956              	.LVL298:
 3957              	.LFB181:
1736:Drivers/STM32F7xx_HAL_Driver/Src/stm32f7xx_ll_usb.c **** 
1737:Drivers/STM32F7xx_HAL_Driver/Src/stm32f7xx_ll_usb.c **** /**
ARM GAS  /var/folders/8d/8djywmp92nx9cg9c5pcw0px00000gn/T//ccLp59Ij.s 			page 120


1738:Drivers/STM32F7xx_HAL_Driver/Src/stm32f7xx_ll_usb.c ****   * @brief  Return Host Current Frame number
1739:Drivers/STM32F7xx_HAL_Driver/Src/stm32f7xx_ll_usb.c ****   * @param  USBx  Selected device
1740:Drivers/STM32F7xx_HAL_Driver/Src/stm32f7xx_ll_usb.c ****   * @retval current frame number
1741:Drivers/STM32F7xx_HAL_Driver/Src/stm32f7xx_ll_usb.c ****   */
1742:Drivers/STM32F7xx_HAL_Driver/Src/stm32f7xx_ll_usb.c **** uint32_t USB_GetCurrentFrame(USB_OTG_GlobalTypeDef const *USBx)
1743:Drivers/STM32F7xx_HAL_Driver/Src/stm32f7xx_ll_usb.c **** {
 3958              		.loc 1 1743 1 is_stmt 1 view -0
 3959              		.cfi_startproc
 3960              		@ args = 0, pretend = 0, frame = 0
 3961              		@ frame_needed = 0, uses_anonymous_args = 0
 3962              		@ link register save eliminated.
1744:Drivers/STM32F7xx_HAL_Driver/Src/stm32f7xx_ll_usb.c ****   uint32_t USBx_BASE = (uint32_t)USBx;
 3963              		.loc 1 1744 3 view .LVU1340
1745:Drivers/STM32F7xx_HAL_Driver/Src/stm32f7xx_ll_usb.c **** 
1746:Drivers/STM32F7xx_HAL_Driver/Src/stm32f7xx_ll_usb.c ****   return (USBx_HOST->HFNUM & USB_OTG_HFNUM_FRNUM);
 3964              		.loc 1 1746 3 view .LVU1341
 3965              		.loc 1 1746 11 is_stmt 0 view .LVU1342
 3966 0000 00F58060 		add	r0, r0, #1024
 3967              	.LVL299:
 3968              		.loc 1 1746 20 view .LVU1343
 3969 0004 8068     		ldr	r0, [r0, #8]
 3970              	.LVL300:
1747:Drivers/STM32F7xx_HAL_Driver/Src/stm32f7xx_ll_usb.c **** }
 3971              		.loc 1 1747 1 view .LVU1344
 3972 0006 80B2     		uxth	r0, r0
 3973 0008 7047     		bx	lr
 3974              		.cfi_endproc
 3975              	.LFE181:
 3977              		.section	.text.USB_HC_Init,"ax",%progbits
 3978              		.align	1
 3979              		.global	USB_HC_Init
 3980              		.syntax unified
 3981              		.thumb
 3982              		.thumb_func
 3984              	USB_HC_Init:
 3985              	.LVL301:
 3986              	.LFB182:
1748:Drivers/STM32F7xx_HAL_Driver/Src/stm32f7xx_ll_usb.c **** 
1749:Drivers/STM32F7xx_HAL_Driver/Src/stm32f7xx_ll_usb.c **** /**
1750:Drivers/STM32F7xx_HAL_Driver/Src/stm32f7xx_ll_usb.c ****   * @brief  Initialize a host channel
1751:Drivers/STM32F7xx_HAL_Driver/Src/stm32f7xx_ll_usb.c ****   * @param  USBx  Selected device
1752:Drivers/STM32F7xx_HAL_Driver/Src/stm32f7xx_ll_usb.c ****   * @param  ch_num  Channel number
1753:Drivers/STM32F7xx_HAL_Driver/Src/stm32f7xx_ll_usb.c ****   *         This parameter can be a value from 1 to 15
1754:Drivers/STM32F7xx_HAL_Driver/Src/stm32f7xx_ll_usb.c ****   * @param  epnum  Endpoint number
1755:Drivers/STM32F7xx_HAL_Driver/Src/stm32f7xx_ll_usb.c ****   *          This parameter can be a value from 1 to 15
1756:Drivers/STM32F7xx_HAL_Driver/Src/stm32f7xx_ll_usb.c ****   * @param  dev_address  Current device address
1757:Drivers/STM32F7xx_HAL_Driver/Src/stm32f7xx_ll_usb.c ****   *          This parameter can be a value from 0 to 255
1758:Drivers/STM32F7xx_HAL_Driver/Src/stm32f7xx_ll_usb.c ****   * @param  speed  Current device speed
1759:Drivers/STM32F7xx_HAL_Driver/Src/stm32f7xx_ll_usb.c ****   *          This parameter can be one of these values:
1760:Drivers/STM32F7xx_HAL_Driver/Src/stm32f7xx_ll_usb.c ****   *            @arg USB_OTG_SPEED_HIGH: High speed mode
1761:Drivers/STM32F7xx_HAL_Driver/Src/stm32f7xx_ll_usb.c ****   *            @arg USB_OTG_SPEED_FULL: Full speed mode
1762:Drivers/STM32F7xx_HAL_Driver/Src/stm32f7xx_ll_usb.c ****   *            @arg USB_OTG_SPEED_LOW: Low speed mode
1763:Drivers/STM32F7xx_HAL_Driver/Src/stm32f7xx_ll_usb.c ****   * @param  ep_type  Endpoint Type
1764:Drivers/STM32F7xx_HAL_Driver/Src/stm32f7xx_ll_usb.c ****   *          This parameter can be one of these values:
1765:Drivers/STM32F7xx_HAL_Driver/Src/stm32f7xx_ll_usb.c ****   *            @arg EP_TYPE_CTRL: Control type
1766:Drivers/STM32F7xx_HAL_Driver/Src/stm32f7xx_ll_usb.c ****   *            @arg EP_TYPE_ISOC: Isochronous type
1767:Drivers/STM32F7xx_HAL_Driver/Src/stm32f7xx_ll_usb.c ****   *            @arg EP_TYPE_BULK: Bulk type
ARM GAS  /var/folders/8d/8djywmp92nx9cg9c5pcw0px00000gn/T//ccLp59Ij.s 			page 121


1768:Drivers/STM32F7xx_HAL_Driver/Src/stm32f7xx_ll_usb.c ****   *            @arg EP_TYPE_INTR: Interrupt type
1769:Drivers/STM32F7xx_HAL_Driver/Src/stm32f7xx_ll_usb.c ****   * @param  mps  Max Packet Size
1770:Drivers/STM32F7xx_HAL_Driver/Src/stm32f7xx_ll_usb.c ****   *          This parameter can be a value from 0 to 32K
1771:Drivers/STM32F7xx_HAL_Driver/Src/stm32f7xx_ll_usb.c ****   * @retval HAL state
1772:Drivers/STM32F7xx_HAL_Driver/Src/stm32f7xx_ll_usb.c ****   */
1773:Drivers/STM32F7xx_HAL_Driver/Src/stm32f7xx_ll_usb.c **** HAL_StatusTypeDef USB_HC_Init(USB_OTG_GlobalTypeDef *USBx, uint8_t ch_num,
1774:Drivers/STM32F7xx_HAL_Driver/Src/stm32f7xx_ll_usb.c ****                               uint8_t epnum, uint8_t dev_address, uint8_t speed,
1775:Drivers/STM32F7xx_HAL_Driver/Src/stm32f7xx_ll_usb.c ****                               uint8_t ep_type, uint16_t mps)
1776:Drivers/STM32F7xx_HAL_Driver/Src/stm32f7xx_ll_usb.c **** {
 3987              		.loc 1 1776 1 is_stmt 1 view -0
 3988              		.cfi_startproc
 3989              		@ args = 12, pretend = 0, frame = 0
 3990              		@ frame_needed = 0, uses_anonymous_args = 0
 3991              		.loc 1 1776 1 is_stmt 0 view .LVU1346
 3992 0000 2DE9F843 		push	{r3, r4, r5, r6, r7, r8, r9, lr}
 3993              		.cfi_def_cfa_offset 32
 3994              		.cfi_offset 3, -32
 3995              		.cfi_offset 4, -28
 3996              		.cfi_offset 5, -24
 3997              		.cfi_offset 6, -20
 3998              		.cfi_offset 7, -16
 3999              		.cfi_offset 8, -12
 4000              		.cfi_offset 9, -8
 4001              		.cfi_offset 14, -4
 4002 0004 9146     		mov	r9, r2
 4003 0006 1C46     		mov	r4, r3
 4004 0008 9DF82450 		ldrb	r5, [sp, #36]	@ zero_extendqisi2
1777:Drivers/STM32F7xx_HAL_Driver/Src/stm32f7xx_ll_usb.c ****   HAL_StatusTypeDef ret = HAL_OK;
 4005              		.loc 1 1777 3 is_stmt 1 view .LVU1347
 4006              	.LVL302:
1778:Drivers/STM32F7xx_HAL_Driver/Src/stm32f7xx_ll_usb.c ****   uint32_t USBx_BASE = (uint32_t)USBx;
 4007              		.loc 1 1778 3 view .LVU1348
1779:Drivers/STM32F7xx_HAL_Driver/Src/stm32f7xx_ll_usb.c ****   uint32_t HCcharEpDir;
 4008              		.loc 1 1779 3 view .LVU1349
1780:Drivers/STM32F7xx_HAL_Driver/Src/stm32f7xx_ll_usb.c ****   uint32_t HCcharLowSpeed;
 4009              		.loc 1 1780 3 view .LVU1350
1781:Drivers/STM32F7xx_HAL_Driver/Src/stm32f7xx_ll_usb.c ****   uint32_t HostCoreSpeed;
 4010              		.loc 1 1781 3 view .LVU1351
1782:Drivers/STM32F7xx_HAL_Driver/Src/stm32f7xx_ll_usb.c **** 
1783:Drivers/STM32F7xx_HAL_Driver/Src/stm32f7xx_ll_usb.c ****   /* Clear old interrupt conditions for this host channel. */
1784:Drivers/STM32F7xx_HAL_Driver/Src/stm32f7xx_ll_usb.c ****   USBx_HC((uint32_t)ch_num)->HCINT = CLEAR_INTERRUPT_MASK;
 4011              		.loc 1 1784 3 view .LVU1352
 4012 000c 00EB4116 		add	r6, r0, r1, lsl #5
 4013 0010 06F5A063 		add	r3, r6, #1280
 4014              	.LVL303:
 4015              		.loc 1 1784 36 is_stmt 0 view .LVU1353
 4016 0014 4FF0FF32 		mov	r2, #-1
 4017              	.LVL304:
 4018              		.loc 1 1784 36 view .LVU1354
 4019 0018 9A60     		str	r2, [r3, #8]
1785:Drivers/STM32F7xx_HAL_Driver/Src/stm32f7xx_ll_usb.c **** 
1786:Drivers/STM32F7xx_HAL_Driver/Src/stm32f7xx_ll_usb.c ****   /* Enable channel interrupts required for this transfer. */
1787:Drivers/STM32F7xx_HAL_Driver/Src/stm32f7xx_ll_usb.c ****   switch (ep_type)
 4020              		.loc 1 1787 3 is_stmt 1 view .LVU1355
 4021 001a 032D     		cmp	r5, #3
 4022 001c 00F28380 		bhi	.L266
 4023 0020 DFE805F0 		tbb	[pc, r5]
ARM GAS  /var/folders/8d/8djywmp92nx9cg9c5pcw0px00000gn/T//ccLp59Ij.s 			page 122


 4024              	.L259:
 4025 0024 02       		.byte	(.L260-.L259)/2
 4026 0025 73       		.byte	(.L261-.L259)/2
 4027 0026 02       		.byte	(.L260-.L259)/2
 4028 0027 19       		.byte	(.L258-.L259)/2
 4029              		.p2align 1
 4030              	.L260:
1788:Drivers/STM32F7xx_HAL_Driver/Src/stm32f7xx_ll_usb.c ****   {
1789:Drivers/STM32F7xx_HAL_Driver/Src/stm32f7xx_ll_usb.c ****     case EP_TYPE_CTRL:
1790:Drivers/STM32F7xx_HAL_Driver/Src/stm32f7xx_ll_usb.c ****     case EP_TYPE_BULK:
1791:Drivers/STM32F7xx_HAL_Driver/Src/stm32f7xx_ll_usb.c ****       USBx_HC((uint32_t)ch_num)->HCINTMSK = USB_OTG_HCINTMSK_XFRCM  |
 4031              		.loc 1 1791 7 view .LVU1356
 4032              		.loc 1 1791 43 is_stmt 0 view .LVU1357
 4033 0028 40F29D42 		movw	r2, #1181
 4034 002c DA60     		str	r2, [r3, #12]
1792:Drivers/STM32F7xx_HAL_Driver/Src/stm32f7xx_ll_usb.c ****                                             USB_OTG_HCINTMSK_STALLM |
1793:Drivers/STM32F7xx_HAL_Driver/Src/stm32f7xx_ll_usb.c ****                                             USB_OTG_HCINTMSK_TXERRM |
1794:Drivers/STM32F7xx_HAL_Driver/Src/stm32f7xx_ll_usb.c ****                                             USB_OTG_HCINTMSK_DTERRM |
1795:Drivers/STM32F7xx_HAL_Driver/Src/stm32f7xx_ll_usb.c ****                                             USB_OTG_HCINTMSK_AHBERR |
1796:Drivers/STM32F7xx_HAL_Driver/Src/stm32f7xx_ll_usb.c ****                                             USB_OTG_HCINTMSK_NAKM;
1797:Drivers/STM32F7xx_HAL_Driver/Src/stm32f7xx_ll_usb.c **** 
1798:Drivers/STM32F7xx_HAL_Driver/Src/stm32f7xx_ll_usb.c ****       if ((epnum & 0x80U) == 0x80U)
 4035              		.loc 1 1798 7 is_stmt 1 view .LVU1358
 4036              		.loc 1 1798 10 is_stmt 0 view .LVU1359
 4037 002e 19F0800F 		tst	r9, #128
 4038 0032 04D1     		bne	.L273
1799:Drivers/STM32F7xx_HAL_Driver/Src/stm32f7xx_ll_usb.c ****       {
1800:Drivers/STM32F7xx_HAL_Driver/Src/stm32f7xx_ll_usb.c ****         USBx_HC((uint32_t)ch_num)->HCINTMSK |= USB_OTG_HCINTMSK_BBERRM;
1801:Drivers/STM32F7xx_HAL_Driver/Src/stm32f7xx_ll_usb.c ****       }
1802:Drivers/STM32F7xx_HAL_Driver/Src/stm32f7xx_ll_usb.c ****       else
1803:Drivers/STM32F7xx_HAL_Driver/Src/stm32f7xx_ll_usb.c ****       {
1804:Drivers/STM32F7xx_HAL_Driver/Src/stm32f7xx_ll_usb.c **** #if defined (USB_OTG_HS)
1805:Drivers/STM32F7xx_HAL_Driver/Src/stm32f7xx_ll_usb.c ****         if (USBx == USB_OTG_HS)
 4039              		.loc 1 1805 9 is_stmt 1 view .LVU1360
 4040              		.loc 1 1805 12 is_stmt 0 view .LVU1361
 4041 0034 3F4A     		ldr	r2, .L278
 4042 0036 9042     		cmp	r0, r2
 4043 0038 07D0     		beq	.L274
1777:Drivers/STM32F7xx_HAL_Driver/Src/stm32f7xx_ll_usb.c ****   uint32_t USBx_BASE = (uint32_t)USBx;
 4044              		.loc 1 1777 21 view .LVU1362
 4045 003a 0027     		movs	r7, #0
 4046 003c 12E0     		b	.L257
 4047              	.L273:
1800:Drivers/STM32F7xx_HAL_Driver/Src/stm32f7xx_ll_usb.c ****       }
 4048              		.loc 1 1800 9 is_stmt 1 view .LVU1363
1800:Drivers/STM32F7xx_HAL_Driver/Src/stm32f7xx_ll_usb.c ****       }
 4049              		.loc 1 1800 34 is_stmt 0 view .LVU1364
 4050 003e DA68     		ldr	r2, [r3, #12]
1800:Drivers/STM32F7xx_HAL_Driver/Src/stm32f7xx_ll_usb.c ****       }
 4051              		.loc 1 1800 45 view .LVU1365
 4052 0040 42F48072 		orr	r2, r2, #256
 4053 0044 DA60     		str	r2, [r3, #12]
1777:Drivers/STM32F7xx_HAL_Driver/Src/stm32f7xx_ll_usb.c ****   uint32_t USBx_BASE = (uint32_t)USBx;
 4054              		.loc 1 1777 21 view .LVU1366
 4055 0046 0027     		movs	r7, #0
 4056 0048 0CE0     		b	.L257
 4057              	.L274:
ARM GAS  /var/folders/8d/8djywmp92nx9cg9c5pcw0px00000gn/T//ccLp59Ij.s 			page 123


1806:Drivers/STM32F7xx_HAL_Driver/Src/stm32f7xx_ll_usb.c ****         {
1807:Drivers/STM32F7xx_HAL_Driver/Src/stm32f7xx_ll_usb.c ****           USBx_HC((uint32_t)ch_num)->HCINTMSK |= USB_OTG_HCINTMSK_NYET |
 4058              		.loc 1 1807 11 is_stmt 1 view .LVU1367
 4059              		.loc 1 1807 36 is_stmt 0 view .LVU1368
 4060 004a DA68     		ldr	r2, [r3, #12]
 4061              		.loc 1 1807 47 view .LVU1369
 4062 004c 42F06002 		orr	r2, r2, #96
 4063 0050 DA60     		str	r2, [r3, #12]
1777:Drivers/STM32F7xx_HAL_Driver/Src/stm32f7xx_ll_usb.c ****   uint32_t USBx_BASE = (uint32_t)USBx;
 4064              		.loc 1 1777 21 view .LVU1370
 4065 0052 0027     		movs	r7, #0
 4066 0054 06E0     		b	.L257
 4067              	.L258:
1808:Drivers/STM32F7xx_HAL_Driver/Src/stm32f7xx_ll_usb.c ****                                                  USB_OTG_HCINTMSK_ACKM;
1809:Drivers/STM32F7xx_HAL_Driver/Src/stm32f7xx_ll_usb.c ****         }
1810:Drivers/STM32F7xx_HAL_Driver/Src/stm32f7xx_ll_usb.c **** #endif /* defined (USB_OTG_HS) */
1811:Drivers/STM32F7xx_HAL_Driver/Src/stm32f7xx_ll_usb.c ****       }
1812:Drivers/STM32F7xx_HAL_Driver/Src/stm32f7xx_ll_usb.c ****       break;
1813:Drivers/STM32F7xx_HAL_Driver/Src/stm32f7xx_ll_usb.c **** 
1814:Drivers/STM32F7xx_HAL_Driver/Src/stm32f7xx_ll_usb.c ****     case EP_TYPE_INTR:
1815:Drivers/STM32F7xx_HAL_Driver/Src/stm32f7xx_ll_usb.c ****       USBx_HC((uint32_t)ch_num)->HCINTMSK = USB_OTG_HCINTMSK_XFRCM  |
 4068              		.loc 1 1815 7 is_stmt 1 view .LVU1371
 4069              		.loc 1 1815 43 is_stmt 0 view .LVU1372
 4070 0056 40F29D62 		movw	r2, #1693
 4071 005a DA60     		str	r2, [r3, #12]
1816:Drivers/STM32F7xx_HAL_Driver/Src/stm32f7xx_ll_usb.c ****                                             USB_OTG_HCINTMSK_STALLM |
1817:Drivers/STM32F7xx_HAL_Driver/Src/stm32f7xx_ll_usb.c ****                                             USB_OTG_HCINTMSK_TXERRM |
1818:Drivers/STM32F7xx_HAL_Driver/Src/stm32f7xx_ll_usb.c ****                                             USB_OTG_HCINTMSK_DTERRM |
1819:Drivers/STM32F7xx_HAL_Driver/Src/stm32f7xx_ll_usb.c ****                                             USB_OTG_HCINTMSK_NAKM   |
1820:Drivers/STM32F7xx_HAL_Driver/Src/stm32f7xx_ll_usb.c ****                                             USB_OTG_HCINTMSK_AHBERR |
1821:Drivers/STM32F7xx_HAL_Driver/Src/stm32f7xx_ll_usb.c ****                                             USB_OTG_HCINTMSK_FRMORM;
1822:Drivers/STM32F7xx_HAL_Driver/Src/stm32f7xx_ll_usb.c **** 
1823:Drivers/STM32F7xx_HAL_Driver/Src/stm32f7xx_ll_usb.c ****       if ((epnum & 0x80U) == 0x80U)
 4072              		.loc 1 1823 7 is_stmt 1 view .LVU1373
 4073              		.loc 1 1823 10 is_stmt 0 view .LVU1374
 4074 005c 19F0800F 		tst	r9, #128
 4075 0060 4DD1     		bne	.L275
1777:Drivers/STM32F7xx_HAL_Driver/Src/stm32f7xx_ll_usb.c ****   uint32_t USBx_BASE = (uint32_t)USBx;
 4076              		.loc 1 1777 21 view .LVU1375
 4077 0062 0027     		movs	r7, #0
 4078              	.L257:
 4079              	.LVL305:
1824:Drivers/STM32F7xx_HAL_Driver/Src/stm32f7xx_ll_usb.c ****       {
1825:Drivers/STM32F7xx_HAL_Driver/Src/stm32f7xx_ll_usb.c ****         USBx_HC((uint32_t)ch_num)->HCINTMSK |= USB_OTG_HCINTMSK_BBERRM;
1826:Drivers/STM32F7xx_HAL_Driver/Src/stm32f7xx_ll_usb.c ****       }
1827:Drivers/STM32F7xx_HAL_Driver/Src/stm32f7xx_ll_usb.c **** 
1828:Drivers/STM32F7xx_HAL_Driver/Src/stm32f7xx_ll_usb.c ****       break;
1829:Drivers/STM32F7xx_HAL_Driver/Src/stm32f7xx_ll_usb.c **** 
1830:Drivers/STM32F7xx_HAL_Driver/Src/stm32f7xx_ll_usb.c ****     case EP_TYPE_ISOC:
1831:Drivers/STM32F7xx_HAL_Driver/Src/stm32f7xx_ll_usb.c ****       USBx_HC((uint32_t)ch_num)->HCINTMSK = USB_OTG_HCINTMSK_XFRCM  |
1832:Drivers/STM32F7xx_HAL_Driver/Src/stm32f7xx_ll_usb.c ****                                             USB_OTG_HCINTMSK_ACKM   |
1833:Drivers/STM32F7xx_HAL_Driver/Src/stm32f7xx_ll_usb.c ****                                             USB_OTG_HCINTMSK_AHBERR |
1834:Drivers/STM32F7xx_HAL_Driver/Src/stm32f7xx_ll_usb.c ****                                             USB_OTG_HCINTMSK_FRMORM;
1835:Drivers/STM32F7xx_HAL_Driver/Src/stm32f7xx_ll_usb.c **** 
1836:Drivers/STM32F7xx_HAL_Driver/Src/stm32f7xx_ll_usb.c ****       if ((epnum & 0x80U) == 0x80U)
1837:Drivers/STM32F7xx_HAL_Driver/Src/stm32f7xx_ll_usb.c ****       {
1838:Drivers/STM32F7xx_HAL_Driver/Src/stm32f7xx_ll_usb.c ****         USBx_HC((uint32_t)ch_num)->HCINTMSK |= (USB_OTG_HCINTMSK_TXERRM | USB_OTG_HCINTMSK_BBERRM);
ARM GAS  /var/folders/8d/8djywmp92nx9cg9c5pcw0px00000gn/T//ccLp59Ij.s 			page 124


1839:Drivers/STM32F7xx_HAL_Driver/Src/stm32f7xx_ll_usb.c ****       }
1840:Drivers/STM32F7xx_HAL_Driver/Src/stm32f7xx_ll_usb.c ****       break;
1841:Drivers/STM32F7xx_HAL_Driver/Src/stm32f7xx_ll_usb.c **** 
1842:Drivers/STM32F7xx_HAL_Driver/Src/stm32f7xx_ll_usb.c ****     default:
1843:Drivers/STM32F7xx_HAL_Driver/Src/stm32f7xx_ll_usb.c ****       ret = HAL_ERROR;
1844:Drivers/STM32F7xx_HAL_Driver/Src/stm32f7xx_ll_usb.c ****       break;
1845:Drivers/STM32F7xx_HAL_Driver/Src/stm32f7xx_ll_usb.c ****   }
1846:Drivers/STM32F7xx_HAL_Driver/Src/stm32f7xx_ll_usb.c **** 
1847:Drivers/STM32F7xx_HAL_Driver/Src/stm32f7xx_ll_usb.c ****   /* Clear Hub Start Split transaction */
1848:Drivers/STM32F7xx_HAL_Driver/Src/stm32f7xx_ll_usb.c ****   USBx_HC((uint32_t)ch_num)->HCSPLT = 0U;
 4080              		.loc 1 1848 3 is_stmt 1 view .LVU1376
 4081              		.loc 1 1848 37 is_stmt 0 view .LVU1377
 4082 0064 0022     		movs	r2, #0
 4083 0066 5A60     		str	r2, [r3, #4]
1849:Drivers/STM32F7xx_HAL_Driver/Src/stm32f7xx_ll_usb.c **** 
1850:Drivers/STM32F7xx_HAL_Driver/Src/stm32f7xx_ll_usb.c ****   /* Enable host channel Halt interrupt */
1851:Drivers/STM32F7xx_HAL_Driver/Src/stm32f7xx_ll_usb.c ****   USBx_HC((uint32_t)ch_num)->HCINTMSK |= USB_OTG_HCINTMSK_CHHM;
 4084              		.loc 1 1851 3 is_stmt 1 view .LVU1378
 4085              		.loc 1 1851 28 is_stmt 0 view .LVU1379
 4086 0068 DA68     		ldr	r2, [r3, #12]
 4087              		.loc 1 1851 39 view .LVU1380
 4088 006a 42F00202 		orr	r2, r2, #2
 4089 006e DA60     		str	r2, [r3, #12]
1852:Drivers/STM32F7xx_HAL_Driver/Src/stm32f7xx_ll_usb.c **** 
1853:Drivers/STM32F7xx_HAL_Driver/Src/stm32f7xx_ll_usb.c ****   /* Enable the top level host channel interrupt. */
1854:Drivers/STM32F7xx_HAL_Driver/Src/stm32f7xx_ll_usb.c ****   USBx_HOST->HAINTMSK |= 1UL << (ch_num & 0xFU);
 4090              		.loc 1 1854 3 is_stmt 1 view .LVU1381
 4091              		.loc 1 1854 12 is_stmt 0 view .LVU1382
 4092 0070 D0F81834 		ldr	r3, [r0, #1048]
 4093              		.loc 1 1854 41 view .LVU1383
 4094 0074 01F00F01 		and	r1, r1, #15
 4095              	.LVL306:
 4096              		.loc 1 1854 30 view .LVU1384
 4097 0078 0122     		movs	r2, #1
 4098 007a 8A40     		lsls	r2, r2, r1
 4099              		.loc 1 1854 23 view .LVU1385
 4100 007c 1343     		orrs	r3, r3, r2
 4101 007e C0F81834 		str	r3, [r0, #1048]
1855:Drivers/STM32F7xx_HAL_Driver/Src/stm32f7xx_ll_usb.c **** 
1856:Drivers/STM32F7xx_HAL_Driver/Src/stm32f7xx_ll_usb.c ****   /* Make sure host channel interrupts are enabled. */
1857:Drivers/STM32F7xx_HAL_Driver/Src/stm32f7xx_ll_usb.c ****   USBx->GINTMSK |= USB_OTG_GINTMSK_HCIM;
 4102              		.loc 1 1857 3 is_stmt 1 view .LVU1386
 4103              		.loc 1 1857 7 is_stmt 0 view .LVU1387
 4104 0082 8369     		ldr	r3, [r0, #24]
 4105              		.loc 1 1857 17 view .LVU1388
 4106 0084 43F00073 		orr	r3, r3, #33554432
 4107 0088 8361     		str	r3, [r0, #24]
1858:Drivers/STM32F7xx_HAL_Driver/Src/stm32f7xx_ll_usb.c **** 
1859:Drivers/STM32F7xx_HAL_Driver/Src/stm32f7xx_ll_usb.c ****   /* Program the HCCHAR register */
1860:Drivers/STM32F7xx_HAL_Driver/Src/stm32f7xx_ll_usb.c ****   if ((epnum & 0x80U) == 0x80U)
 4108              		.loc 1 1860 3 is_stmt 1 view .LVU1389
 4109              		.loc 1 1860 6 is_stmt 0 view .LVU1390
 4110 008a 19F0800F 		tst	r9, #128
 4111 008e 4CD1     		bne	.L276
1861:Drivers/STM32F7xx_HAL_Driver/Src/stm32f7xx_ll_usb.c ****   {
1862:Drivers/STM32F7xx_HAL_Driver/Src/stm32f7xx_ll_usb.c ****     HCcharEpDir = (0x1U << 15) & USB_OTG_HCCHAR_EPDIR;
1863:Drivers/STM32F7xx_HAL_Driver/Src/stm32f7xx_ll_usb.c ****   }
ARM GAS  /var/folders/8d/8djywmp92nx9cg9c5pcw0px00000gn/T//ccLp59Ij.s 			page 125


1864:Drivers/STM32F7xx_HAL_Driver/Src/stm32f7xx_ll_usb.c ****   else
1865:Drivers/STM32F7xx_HAL_Driver/Src/stm32f7xx_ll_usb.c ****   {
1866:Drivers/STM32F7xx_HAL_Driver/Src/stm32f7xx_ll_usb.c ****     HCcharEpDir = 0U;
 4112              		.loc 1 1866 17 view .LVU1391
 4113 0090 4FF00008 		mov	r8, #0
 4114              	.L263:
 4115              	.LVL307:
1867:Drivers/STM32F7xx_HAL_Driver/Src/stm32f7xx_ll_usb.c ****   }
1868:Drivers/STM32F7xx_HAL_Driver/Src/stm32f7xx_ll_usb.c **** 
1869:Drivers/STM32F7xx_HAL_Driver/Src/stm32f7xx_ll_usb.c ****   HostCoreSpeed = USB_GetHostSpeed(USBx);
 4116              		.loc 1 1869 3 is_stmt 1 view .LVU1392
 4117              		.loc 1 1869 19 is_stmt 0 view .LVU1393
 4118 0094 FFF7FEFF 		bl	USB_GetHostSpeed
 4119              	.LVL308:
1870:Drivers/STM32F7xx_HAL_Driver/Src/stm32f7xx_ll_usb.c **** 
1871:Drivers/STM32F7xx_HAL_Driver/Src/stm32f7xx_ll_usb.c ****   /* LS device plugged to HUB */
1872:Drivers/STM32F7xx_HAL_Driver/Src/stm32f7xx_ll_usb.c ****   if ((speed == HPRT0_PRTSPD_LOW_SPEED) && (HostCoreSpeed != HPRT0_PRTSPD_LOW_SPEED))
 4120              		.loc 1 1872 3 is_stmt 1 view .LVU1394
 4121              		.loc 1 1872 41 is_stmt 0 view .LVU1395
 4122 0098 9DF82030 		ldrb	r3, [sp, #32]	@ zero_extendqisi2
 4123 009c 022B     		cmp	r3, #2
 4124 009e 14BF     		ite	ne
 4125 00a0 0023     		movne	r3, #0
 4126 00a2 0123     		moveq	r3, #1
 4127 00a4 0228     		cmp	r0, #2
 4128 00a6 08BF     		it	eq
 4129 00a8 0023     		moveq	r3, #0
 4130              		.loc 1 1872 6 view .LVU1396
 4131 00aa 002B     		cmp	r3, #0
 4132 00ac 40D0     		beq	.L271
1873:Drivers/STM32F7xx_HAL_Driver/Src/stm32f7xx_ll_usb.c ****   {
1874:Drivers/STM32F7xx_HAL_Driver/Src/stm32f7xx_ll_usb.c ****     HCcharLowSpeed = (0x1U << 17) & USB_OTG_HCCHAR_LSDEV;
 4133              		.loc 1 1874 20 view .LVU1397
 4134 00ae 4FF40032 		mov	r2, #131072
 4135              	.L264:
 4136              	.LVL309:
1875:Drivers/STM32F7xx_HAL_Driver/Src/stm32f7xx_ll_usb.c ****   }
1876:Drivers/STM32F7xx_HAL_Driver/Src/stm32f7xx_ll_usb.c ****   else
1877:Drivers/STM32F7xx_HAL_Driver/Src/stm32f7xx_ll_usb.c ****   {
1878:Drivers/STM32F7xx_HAL_Driver/Src/stm32f7xx_ll_usb.c ****     HCcharLowSpeed = 0U;
1879:Drivers/STM32F7xx_HAL_Driver/Src/stm32f7xx_ll_usb.c ****   }
1880:Drivers/STM32F7xx_HAL_Driver/Src/stm32f7xx_ll_usb.c **** 
1881:Drivers/STM32F7xx_HAL_Driver/Src/stm32f7xx_ll_usb.c ****   USBx_HC((uint32_t)ch_num)->HCCHAR = (((uint32_t)dev_address << 22) & USB_OTG_HCCHAR_DAD) |
 4137              		.loc 1 1881 3 is_stmt 1 view .LVU1398
 4138              		.loc 1 1881 63 is_stmt 0 view .LVU1399
 4139 00b2 A305     		lsls	r3, r4, #22
 4140              		.loc 1 1881 70 view .LVU1400
 4141 00b4 03F0FE53 		and	r3, r3, #532676608
1882:Drivers/STM32F7xx_HAL_Driver/Src/stm32f7xx_ll_usb.c ****                                       ((((uint32_t)epnum & 0x7FU) << 11) & USB_OTG_HCCHAR_EPNUM) |
 4142              		.loc 1 1882 67 view .LVU1401
 4143 00b8 4FEAC929 		lsl	r9, r9, #11
 4144              	.LVL310:
 4145              		.loc 1 1882 74 view .LVU1402
 4146 00bc 09F4F049 		and	r9, r9, #30720
1881:Drivers/STM32F7xx_HAL_Driver/Src/stm32f7xx_ll_usb.c ****                                       ((((uint32_t)epnum & 0x7FU) << 11) & USB_OTG_HCCHAR_EPNUM) |
 4147              		.loc 1 1881 92 view .LVU1403
 4148 00c0 43EA0903 		orr	r3, r3, r9
ARM GAS  /var/folders/8d/8djywmp92nx9cg9c5pcw0px00000gn/T//ccLp59Ij.s 			page 126


1883:Drivers/STM32F7xx_HAL_Driver/Src/stm32f7xx_ll_usb.c ****                                       (((uint32_t)ep_type << 18) & USB_OTG_HCCHAR_EPTYP) |
 4149              		.loc 1 1883 59 view .LVU1404
 4150 00c4 A904     		lsls	r1, r5, #18
 4151              		.loc 1 1883 66 view .LVU1405
 4152 00c6 01F44021 		and	r1, r1, #786432
1882:Drivers/STM32F7xx_HAL_Driver/Src/stm32f7xx_ll_usb.c ****                                       ((((uint32_t)epnum & 0x7FU) << 11) & USB_OTG_HCCHAR_EPNUM) |
 4153              		.loc 1 1882 98 view .LVU1406
 4154 00ca 0B43     		orrs	r3, r3, r1
1884:Drivers/STM32F7xx_HAL_Driver/Src/stm32f7xx_ll_usb.c ****                                       ((uint32_t)mps & USB_OTG_HCCHAR_MPSIZ) |
 4155              		.loc 1 1884 54 view .LVU1407
 4156 00cc BDF82810 		ldrh	r1, [sp, #40]
 4157 00d0 C1F30A01 		ubfx	r1, r1, #0, #11
1883:Drivers/STM32F7xx_HAL_Driver/Src/stm32f7xx_ll_usb.c ****                                       (((uint32_t)ep_type << 18) & USB_OTG_HCCHAR_EPTYP) |
 4158              		.loc 1 1883 90 view .LVU1408
 4159 00d4 0B43     		orrs	r3, r3, r1
1885:Drivers/STM32F7xx_HAL_Driver/Src/stm32f7xx_ll_usb.c ****                                       USB_OTG_HCCHAR_MC_0 | HCcharEpDir | HCcharLowSpeed;
 4160              		.loc 1 1885 59 view .LVU1409
 4161 00d6 43EA0803 		orr	r3, r3, r8
 4162              		.loc 1 1885 73 view .LVU1410
 4163 00da 1343     		orrs	r3, r3, r2
 4164 00dc 43F48013 		orr	r3, r3, #1048576
1881:Drivers/STM32F7xx_HAL_Driver/Src/stm32f7xx_ll_usb.c ****                                       ((((uint32_t)epnum & 0x7FU) << 11) & USB_OTG_HCCHAR_EPNUM) |
 4165              		.loc 1 1881 37 view .LVU1411
 4166 00e0 C6F80035 		str	r3, [r6, #1280]
1886:Drivers/STM32F7xx_HAL_Driver/Src/stm32f7xx_ll_usb.c **** 
1887:Drivers/STM32F7xx_HAL_Driver/Src/stm32f7xx_ll_usb.c ****   if ((ep_type == EP_TYPE_INTR) || (ep_type == EP_TYPE_ISOC))
 4167              		.loc 1 1887 3 is_stmt 1 view .LVU1412
 4168              		.loc 1 1887 6 is_stmt 0 view .LVU1413
 4169 00e4 012D     		cmp	r5, #1
 4170 00e6 18BF     		it	ne
 4171 00e8 032D     		cmpne	r5, #3
 4172 00ea 05D1     		bne	.L265
1888:Drivers/STM32F7xx_HAL_Driver/Src/stm32f7xx_ll_usb.c ****   {
1889:Drivers/STM32F7xx_HAL_Driver/Src/stm32f7xx_ll_usb.c ****     USBx_HC((uint32_t)ch_num)->HCCHAR |= USB_OTG_HCCHAR_ODDFRM;
 4173              		.loc 1 1889 5 is_stmt 1 view .LVU1414
 4174              		.loc 1 1889 30 is_stmt 0 view .LVU1415
 4175 00ec D6F80035 		ldr	r3, [r6, #1280]
 4176              		.loc 1 1889 39 view .LVU1416
 4177 00f0 43F00053 		orr	r3, r3, #536870912
 4178 00f4 C6F80035 		str	r3, [r6, #1280]
 4179              	.L265:
1890:Drivers/STM32F7xx_HAL_Driver/Src/stm32f7xx_ll_usb.c ****   }
1891:Drivers/STM32F7xx_HAL_Driver/Src/stm32f7xx_ll_usb.c **** 
1892:Drivers/STM32F7xx_HAL_Driver/Src/stm32f7xx_ll_usb.c ****   return ret;
 4180              		.loc 1 1892 3 is_stmt 1 view .LVU1417
1893:Drivers/STM32F7xx_HAL_Driver/Src/stm32f7xx_ll_usb.c **** }
 4181              		.loc 1 1893 1 is_stmt 0 view .LVU1418
 4182 00f8 3846     		mov	r0, r7
 4183              	.LVL311:
 4184              		.loc 1 1893 1 view .LVU1419
 4185 00fa BDE8F883 		pop	{r3, r4, r5, r6, r7, r8, r9, pc}
 4186              	.LVL312:
 4187              	.L275:
1825:Drivers/STM32F7xx_HAL_Driver/Src/stm32f7xx_ll_usb.c ****       }
 4188              		.loc 1 1825 9 is_stmt 1 view .LVU1420
1825:Drivers/STM32F7xx_HAL_Driver/Src/stm32f7xx_ll_usb.c ****       }
 4189              		.loc 1 1825 34 is_stmt 0 view .LVU1421
ARM GAS  /var/folders/8d/8djywmp92nx9cg9c5pcw0px00000gn/T//ccLp59Ij.s 			page 127


 4190 00fe DA68     		ldr	r2, [r3, #12]
1825:Drivers/STM32F7xx_HAL_Driver/Src/stm32f7xx_ll_usb.c ****       }
 4191              		.loc 1 1825 45 view .LVU1422
 4192 0100 42F48072 		orr	r2, r2, #256
 4193 0104 DA60     		str	r2, [r3, #12]
1777:Drivers/STM32F7xx_HAL_Driver/Src/stm32f7xx_ll_usb.c ****   uint32_t USBx_BASE = (uint32_t)USBx;
 4194              		.loc 1 1777 21 view .LVU1423
 4195 0106 0027     		movs	r7, #0
 4196 0108 ACE7     		b	.L257
 4197              	.L261:
1831:Drivers/STM32F7xx_HAL_Driver/Src/stm32f7xx_ll_usb.c ****                                             USB_OTG_HCINTMSK_ACKM   |
 4198              		.loc 1 1831 7 is_stmt 1 view .LVU1424
1831:Drivers/STM32F7xx_HAL_Driver/Src/stm32f7xx_ll_usb.c ****                                             USB_OTG_HCINTMSK_ACKM   |
 4199              		.loc 1 1831 43 is_stmt 0 view .LVU1425
 4200 010a 40F22522 		movw	r2, #549
 4201 010e DA60     		str	r2, [r3, #12]
1836:Drivers/STM32F7xx_HAL_Driver/Src/stm32f7xx_ll_usb.c ****       {
 4202              		.loc 1 1836 7 is_stmt 1 view .LVU1426
1836:Drivers/STM32F7xx_HAL_Driver/Src/stm32f7xx_ll_usb.c ****       {
 4203              		.loc 1 1836 10 is_stmt 0 view .LVU1427
 4204 0110 19F0800F 		tst	r9, #128
 4205 0114 01D1     		bne	.L277
1777:Drivers/STM32F7xx_HAL_Driver/Src/stm32f7xx_ll_usb.c ****   uint32_t USBx_BASE = (uint32_t)USBx;
 4206              		.loc 1 1777 21 view .LVU1428
 4207 0116 0027     		movs	r7, #0
 4208 0118 A4E7     		b	.L257
 4209              	.L277:
1838:Drivers/STM32F7xx_HAL_Driver/Src/stm32f7xx_ll_usb.c ****       }
 4210              		.loc 1 1838 9 is_stmt 1 view .LVU1429
1838:Drivers/STM32F7xx_HAL_Driver/Src/stm32f7xx_ll_usb.c ****       }
 4211              		.loc 1 1838 34 is_stmt 0 view .LVU1430
 4212 011a DA68     		ldr	r2, [r3, #12]
1838:Drivers/STM32F7xx_HAL_Driver/Src/stm32f7xx_ll_usb.c ****       }
 4213              		.loc 1 1838 45 view .LVU1431
 4214 011c 42F4C072 		orr	r2, r2, #384
 4215 0120 DA60     		str	r2, [r3, #12]
1777:Drivers/STM32F7xx_HAL_Driver/Src/stm32f7xx_ll_usb.c ****   uint32_t USBx_BASE = (uint32_t)USBx;
 4216              		.loc 1 1777 21 view .LVU1432
 4217 0122 0027     		movs	r7, #0
 4218 0124 9EE7     		b	.L257
 4219              	.L266:
1787:Drivers/STM32F7xx_HAL_Driver/Src/stm32f7xx_ll_usb.c ****   {
 4220              		.loc 1 1787 3 view .LVU1433
 4221 0126 0127     		movs	r7, #1
 4222 0128 9CE7     		b	.L257
 4223              	.LVL313:
 4224              	.L276:
1862:Drivers/STM32F7xx_HAL_Driver/Src/stm32f7xx_ll_usb.c ****   }
 4225              		.loc 1 1862 17 view .LVU1434
 4226 012a 4FF40048 		mov	r8, #32768
 4227 012e B1E7     		b	.L263
 4228              	.LVL314:
 4229              	.L271:
1878:Drivers/STM32F7xx_HAL_Driver/Src/stm32f7xx_ll_usb.c ****   }
 4230              		.loc 1 1878 20 view .LVU1435
 4231 0130 0022     		movs	r2, #0
 4232 0132 BEE7     		b	.L264
ARM GAS  /var/folders/8d/8djywmp92nx9cg9c5pcw0px00000gn/T//ccLp59Ij.s 			page 128


 4233              	.L279:
 4234              		.align	2
 4235              	.L278:
 4236 0134 00000440 		.word	1074003968
 4237              		.cfi_endproc
 4238              	.LFE182:
 4240              		.section	.text.USB_HC_ReadInterrupt,"ax",%progbits
 4241              		.align	1
 4242              		.global	USB_HC_ReadInterrupt
 4243              		.syntax unified
 4244              		.thumb
 4245              		.thumb_func
 4247              	USB_HC_ReadInterrupt:
 4248              	.LVL315:
 4249              	.LFB184:
1894:Drivers/STM32F7xx_HAL_Driver/Src/stm32f7xx_ll_usb.c **** 
1895:Drivers/STM32F7xx_HAL_Driver/Src/stm32f7xx_ll_usb.c **** /**
1896:Drivers/STM32F7xx_HAL_Driver/Src/stm32f7xx_ll_usb.c ****   * @brief  Start a transfer over a host channel
1897:Drivers/STM32F7xx_HAL_Driver/Src/stm32f7xx_ll_usb.c ****   * @param  USBx  Selected device
1898:Drivers/STM32F7xx_HAL_Driver/Src/stm32f7xx_ll_usb.c ****   * @param  hc  pointer to host channel structure
1899:Drivers/STM32F7xx_HAL_Driver/Src/stm32f7xx_ll_usb.c ****   * @param  dma USB dma enabled or disabled
1900:Drivers/STM32F7xx_HAL_Driver/Src/stm32f7xx_ll_usb.c ****   *          This parameter can be one of these values:
1901:Drivers/STM32F7xx_HAL_Driver/Src/stm32f7xx_ll_usb.c ****   *           0 : DMA feature not used
1902:Drivers/STM32F7xx_HAL_Driver/Src/stm32f7xx_ll_usb.c ****   *           1 : DMA feature used
1903:Drivers/STM32F7xx_HAL_Driver/Src/stm32f7xx_ll_usb.c ****   * @retval HAL state
1904:Drivers/STM32F7xx_HAL_Driver/Src/stm32f7xx_ll_usb.c ****   */
1905:Drivers/STM32F7xx_HAL_Driver/Src/stm32f7xx_ll_usb.c **** HAL_StatusTypeDef USB_HC_StartXfer(USB_OTG_GlobalTypeDef *USBx, USB_OTG_HCTypeDef *hc, uint8_t dma)
1906:Drivers/STM32F7xx_HAL_Driver/Src/stm32f7xx_ll_usb.c **** {
1907:Drivers/STM32F7xx_HAL_Driver/Src/stm32f7xx_ll_usb.c ****   uint32_t USBx_BASE = (uint32_t)USBx;
1908:Drivers/STM32F7xx_HAL_Driver/Src/stm32f7xx_ll_usb.c ****   uint32_t ch_num = (uint32_t)hc->ch_num;
1909:Drivers/STM32F7xx_HAL_Driver/Src/stm32f7xx_ll_usb.c ****   __IO uint32_t tmpreg;
1910:Drivers/STM32F7xx_HAL_Driver/Src/stm32f7xx_ll_usb.c ****   uint8_t  is_oddframe;
1911:Drivers/STM32F7xx_HAL_Driver/Src/stm32f7xx_ll_usb.c ****   uint16_t len_words;
1912:Drivers/STM32F7xx_HAL_Driver/Src/stm32f7xx_ll_usb.c ****   uint16_t num_packets;
1913:Drivers/STM32F7xx_HAL_Driver/Src/stm32f7xx_ll_usb.c ****   uint16_t max_hc_pkt_count = HC_MAX_PKT_CNT;
1914:Drivers/STM32F7xx_HAL_Driver/Src/stm32f7xx_ll_usb.c **** 
1915:Drivers/STM32F7xx_HAL_Driver/Src/stm32f7xx_ll_usb.c **** #if defined (USB_OTG_HS)
1916:Drivers/STM32F7xx_HAL_Driver/Src/stm32f7xx_ll_usb.c ****   if (USBx == USB_OTG_HS)
1917:Drivers/STM32F7xx_HAL_Driver/Src/stm32f7xx_ll_usb.c ****   {
1918:Drivers/STM32F7xx_HAL_Driver/Src/stm32f7xx_ll_usb.c ****     /* in DMA mode host Core automatically issues ping in case of NYET/NAK */
1919:Drivers/STM32F7xx_HAL_Driver/Src/stm32f7xx_ll_usb.c ****     if (dma == 1U)
1920:Drivers/STM32F7xx_HAL_Driver/Src/stm32f7xx_ll_usb.c ****     {
1921:Drivers/STM32F7xx_HAL_Driver/Src/stm32f7xx_ll_usb.c ****       if (((hc->ep_type == EP_TYPE_CTRL) || (hc->ep_type == EP_TYPE_BULK)) && (hc->do_ssplit == 0U)
1922:Drivers/STM32F7xx_HAL_Driver/Src/stm32f7xx_ll_usb.c ****       {
1923:Drivers/STM32F7xx_HAL_Driver/Src/stm32f7xx_ll_usb.c **** 
1924:Drivers/STM32F7xx_HAL_Driver/Src/stm32f7xx_ll_usb.c ****         USBx_HC((uint32_t)ch_num)->HCINTMSK &= ~(USB_OTG_HCINTMSK_NYET |
1925:Drivers/STM32F7xx_HAL_Driver/Src/stm32f7xx_ll_usb.c ****                                                  USB_OTG_HCINTMSK_ACKM |
1926:Drivers/STM32F7xx_HAL_Driver/Src/stm32f7xx_ll_usb.c ****                                                  USB_OTG_HCINTMSK_NAKM);
1927:Drivers/STM32F7xx_HAL_Driver/Src/stm32f7xx_ll_usb.c ****       }
1928:Drivers/STM32F7xx_HAL_Driver/Src/stm32f7xx_ll_usb.c ****     }
1929:Drivers/STM32F7xx_HAL_Driver/Src/stm32f7xx_ll_usb.c ****     else
1930:Drivers/STM32F7xx_HAL_Driver/Src/stm32f7xx_ll_usb.c ****     {
1931:Drivers/STM32F7xx_HAL_Driver/Src/stm32f7xx_ll_usb.c ****       if ((hc->speed == USBH_HS_SPEED) && (hc->do_ping == 1U))
1932:Drivers/STM32F7xx_HAL_Driver/Src/stm32f7xx_ll_usb.c ****       {
1933:Drivers/STM32F7xx_HAL_Driver/Src/stm32f7xx_ll_usb.c ****         (void)USB_DoPing(USBx, hc->ch_num);
1934:Drivers/STM32F7xx_HAL_Driver/Src/stm32f7xx_ll_usb.c ****         return HAL_OK;
1935:Drivers/STM32F7xx_HAL_Driver/Src/stm32f7xx_ll_usb.c ****       }
ARM GAS  /var/folders/8d/8djywmp92nx9cg9c5pcw0px00000gn/T//ccLp59Ij.s 			page 129


1936:Drivers/STM32F7xx_HAL_Driver/Src/stm32f7xx_ll_usb.c ****     }
1937:Drivers/STM32F7xx_HAL_Driver/Src/stm32f7xx_ll_usb.c ****   }
1938:Drivers/STM32F7xx_HAL_Driver/Src/stm32f7xx_ll_usb.c **** #endif /* defined (USB_OTG_HS) */
1939:Drivers/STM32F7xx_HAL_Driver/Src/stm32f7xx_ll_usb.c **** 
1940:Drivers/STM32F7xx_HAL_Driver/Src/stm32f7xx_ll_usb.c ****   if (hc->do_ssplit == 1U)
1941:Drivers/STM32F7xx_HAL_Driver/Src/stm32f7xx_ll_usb.c ****   {
1942:Drivers/STM32F7xx_HAL_Driver/Src/stm32f7xx_ll_usb.c ****     /* Set number of packet to 1 for Split transaction */
1943:Drivers/STM32F7xx_HAL_Driver/Src/stm32f7xx_ll_usb.c ****     num_packets = 1U;
1944:Drivers/STM32F7xx_HAL_Driver/Src/stm32f7xx_ll_usb.c **** 
1945:Drivers/STM32F7xx_HAL_Driver/Src/stm32f7xx_ll_usb.c ****     if (hc->ep_is_in != 0U)
1946:Drivers/STM32F7xx_HAL_Driver/Src/stm32f7xx_ll_usb.c ****     {
1947:Drivers/STM32F7xx_HAL_Driver/Src/stm32f7xx_ll_usb.c ****       hc->XferSize = (uint32_t)num_packets * hc->max_packet;
1948:Drivers/STM32F7xx_HAL_Driver/Src/stm32f7xx_ll_usb.c ****     }
1949:Drivers/STM32F7xx_HAL_Driver/Src/stm32f7xx_ll_usb.c ****     else
1950:Drivers/STM32F7xx_HAL_Driver/Src/stm32f7xx_ll_usb.c ****     {
1951:Drivers/STM32F7xx_HAL_Driver/Src/stm32f7xx_ll_usb.c ****       if (hc->ep_type == EP_TYPE_ISOC)
1952:Drivers/STM32F7xx_HAL_Driver/Src/stm32f7xx_ll_usb.c ****       {
1953:Drivers/STM32F7xx_HAL_Driver/Src/stm32f7xx_ll_usb.c ****         if (hc->xfer_len > ISO_SPLT_MPS)
1954:Drivers/STM32F7xx_HAL_Driver/Src/stm32f7xx_ll_usb.c ****         {
1955:Drivers/STM32F7xx_HAL_Driver/Src/stm32f7xx_ll_usb.c ****           /* Isochrone Max Packet Size for Split mode */
1956:Drivers/STM32F7xx_HAL_Driver/Src/stm32f7xx_ll_usb.c ****           hc->XferSize = hc->max_packet;
1957:Drivers/STM32F7xx_HAL_Driver/Src/stm32f7xx_ll_usb.c ****           hc->xfer_len = hc->XferSize;
1958:Drivers/STM32F7xx_HAL_Driver/Src/stm32f7xx_ll_usb.c **** 
1959:Drivers/STM32F7xx_HAL_Driver/Src/stm32f7xx_ll_usb.c ****           if ((hc->iso_splt_xactPos == HCSPLT_BEGIN) || (hc->iso_splt_xactPos == HCSPLT_MIDDLE))
1960:Drivers/STM32F7xx_HAL_Driver/Src/stm32f7xx_ll_usb.c ****           {
1961:Drivers/STM32F7xx_HAL_Driver/Src/stm32f7xx_ll_usb.c ****             hc->iso_splt_xactPos = HCSPLT_MIDDLE;
1962:Drivers/STM32F7xx_HAL_Driver/Src/stm32f7xx_ll_usb.c ****           }
1963:Drivers/STM32F7xx_HAL_Driver/Src/stm32f7xx_ll_usb.c ****           else
1964:Drivers/STM32F7xx_HAL_Driver/Src/stm32f7xx_ll_usb.c ****           {
1965:Drivers/STM32F7xx_HAL_Driver/Src/stm32f7xx_ll_usb.c ****             hc->iso_splt_xactPos = HCSPLT_BEGIN;
1966:Drivers/STM32F7xx_HAL_Driver/Src/stm32f7xx_ll_usb.c ****           }
1967:Drivers/STM32F7xx_HAL_Driver/Src/stm32f7xx_ll_usb.c ****         }
1968:Drivers/STM32F7xx_HAL_Driver/Src/stm32f7xx_ll_usb.c ****         else
1969:Drivers/STM32F7xx_HAL_Driver/Src/stm32f7xx_ll_usb.c ****         {
1970:Drivers/STM32F7xx_HAL_Driver/Src/stm32f7xx_ll_usb.c ****           hc->XferSize = hc->xfer_len;
1971:Drivers/STM32F7xx_HAL_Driver/Src/stm32f7xx_ll_usb.c **** 
1972:Drivers/STM32F7xx_HAL_Driver/Src/stm32f7xx_ll_usb.c ****           if ((hc->iso_splt_xactPos != HCSPLT_BEGIN) && (hc->iso_splt_xactPos != HCSPLT_MIDDLE))
1973:Drivers/STM32F7xx_HAL_Driver/Src/stm32f7xx_ll_usb.c ****           {
1974:Drivers/STM32F7xx_HAL_Driver/Src/stm32f7xx_ll_usb.c ****             hc->iso_splt_xactPos = HCSPLT_FULL;
1975:Drivers/STM32F7xx_HAL_Driver/Src/stm32f7xx_ll_usb.c ****           }
1976:Drivers/STM32F7xx_HAL_Driver/Src/stm32f7xx_ll_usb.c ****           else
1977:Drivers/STM32F7xx_HAL_Driver/Src/stm32f7xx_ll_usb.c ****           {
1978:Drivers/STM32F7xx_HAL_Driver/Src/stm32f7xx_ll_usb.c ****             hc->iso_splt_xactPos = HCSPLT_END;
1979:Drivers/STM32F7xx_HAL_Driver/Src/stm32f7xx_ll_usb.c ****           }
1980:Drivers/STM32F7xx_HAL_Driver/Src/stm32f7xx_ll_usb.c ****         }
1981:Drivers/STM32F7xx_HAL_Driver/Src/stm32f7xx_ll_usb.c ****       }
1982:Drivers/STM32F7xx_HAL_Driver/Src/stm32f7xx_ll_usb.c ****       else
1983:Drivers/STM32F7xx_HAL_Driver/Src/stm32f7xx_ll_usb.c ****       {
1984:Drivers/STM32F7xx_HAL_Driver/Src/stm32f7xx_ll_usb.c ****         if ((dma == 1U) && (hc->xfer_len > hc->max_packet))
1985:Drivers/STM32F7xx_HAL_Driver/Src/stm32f7xx_ll_usb.c ****         {
1986:Drivers/STM32F7xx_HAL_Driver/Src/stm32f7xx_ll_usb.c ****           hc->XferSize = (uint32_t)num_packets * hc->max_packet;
1987:Drivers/STM32F7xx_HAL_Driver/Src/stm32f7xx_ll_usb.c ****         }
1988:Drivers/STM32F7xx_HAL_Driver/Src/stm32f7xx_ll_usb.c ****         else
1989:Drivers/STM32F7xx_HAL_Driver/Src/stm32f7xx_ll_usb.c ****         {
1990:Drivers/STM32F7xx_HAL_Driver/Src/stm32f7xx_ll_usb.c ****           hc->XferSize = hc->xfer_len;
1991:Drivers/STM32F7xx_HAL_Driver/Src/stm32f7xx_ll_usb.c ****         }
1992:Drivers/STM32F7xx_HAL_Driver/Src/stm32f7xx_ll_usb.c ****       }
ARM GAS  /var/folders/8d/8djywmp92nx9cg9c5pcw0px00000gn/T//ccLp59Ij.s 			page 130


1993:Drivers/STM32F7xx_HAL_Driver/Src/stm32f7xx_ll_usb.c ****     }
1994:Drivers/STM32F7xx_HAL_Driver/Src/stm32f7xx_ll_usb.c ****   }
1995:Drivers/STM32F7xx_HAL_Driver/Src/stm32f7xx_ll_usb.c ****   else
1996:Drivers/STM32F7xx_HAL_Driver/Src/stm32f7xx_ll_usb.c ****   {
1997:Drivers/STM32F7xx_HAL_Driver/Src/stm32f7xx_ll_usb.c ****     /* Compute the expected number of packets associated to the transfer */
1998:Drivers/STM32F7xx_HAL_Driver/Src/stm32f7xx_ll_usb.c ****     if (hc->xfer_len > 0U)
1999:Drivers/STM32F7xx_HAL_Driver/Src/stm32f7xx_ll_usb.c ****     {
2000:Drivers/STM32F7xx_HAL_Driver/Src/stm32f7xx_ll_usb.c ****       num_packets = (uint16_t)((hc->xfer_len + hc->max_packet - 1U) / hc->max_packet);
2001:Drivers/STM32F7xx_HAL_Driver/Src/stm32f7xx_ll_usb.c **** 
2002:Drivers/STM32F7xx_HAL_Driver/Src/stm32f7xx_ll_usb.c ****       if (num_packets > max_hc_pkt_count)
2003:Drivers/STM32F7xx_HAL_Driver/Src/stm32f7xx_ll_usb.c ****       {
2004:Drivers/STM32F7xx_HAL_Driver/Src/stm32f7xx_ll_usb.c ****         num_packets = max_hc_pkt_count;
2005:Drivers/STM32F7xx_HAL_Driver/Src/stm32f7xx_ll_usb.c ****         hc->XferSize = (uint32_t)num_packets * hc->max_packet;
2006:Drivers/STM32F7xx_HAL_Driver/Src/stm32f7xx_ll_usb.c ****       }
2007:Drivers/STM32F7xx_HAL_Driver/Src/stm32f7xx_ll_usb.c ****     }
2008:Drivers/STM32F7xx_HAL_Driver/Src/stm32f7xx_ll_usb.c ****     else
2009:Drivers/STM32F7xx_HAL_Driver/Src/stm32f7xx_ll_usb.c ****     {
2010:Drivers/STM32F7xx_HAL_Driver/Src/stm32f7xx_ll_usb.c ****       num_packets = 1U;
2011:Drivers/STM32F7xx_HAL_Driver/Src/stm32f7xx_ll_usb.c ****     }
2012:Drivers/STM32F7xx_HAL_Driver/Src/stm32f7xx_ll_usb.c **** 
2013:Drivers/STM32F7xx_HAL_Driver/Src/stm32f7xx_ll_usb.c ****     /*
2014:Drivers/STM32F7xx_HAL_Driver/Src/stm32f7xx_ll_usb.c ****     * For IN channel HCTSIZ.XferSize is expected to be an integer multiple of
2015:Drivers/STM32F7xx_HAL_Driver/Src/stm32f7xx_ll_usb.c ****     * max_packet size.
2016:Drivers/STM32F7xx_HAL_Driver/Src/stm32f7xx_ll_usb.c ****     */
2017:Drivers/STM32F7xx_HAL_Driver/Src/stm32f7xx_ll_usb.c ****     if (hc->ep_is_in != 0U)
2018:Drivers/STM32F7xx_HAL_Driver/Src/stm32f7xx_ll_usb.c ****     {
2019:Drivers/STM32F7xx_HAL_Driver/Src/stm32f7xx_ll_usb.c ****       hc->XferSize = (uint32_t)num_packets * hc->max_packet;
2020:Drivers/STM32F7xx_HAL_Driver/Src/stm32f7xx_ll_usb.c ****     }
2021:Drivers/STM32F7xx_HAL_Driver/Src/stm32f7xx_ll_usb.c ****     else
2022:Drivers/STM32F7xx_HAL_Driver/Src/stm32f7xx_ll_usb.c ****     {
2023:Drivers/STM32F7xx_HAL_Driver/Src/stm32f7xx_ll_usb.c ****       hc->XferSize = hc->xfer_len;
2024:Drivers/STM32F7xx_HAL_Driver/Src/stm32f7xx_ll_usb.c ****     }
2025:Drivers/STM32F7xx_HAL_Driver/Src/stm32f7xx_ll_usb.c ****   }
2026:Drivers/STM32F7xx_HAL_Driver/Src/stm32f7xx_ll_usb.c **** 
2027:Drivers/STM32F7xx_HAL_Driver/Src/stm32f7xx_ll_usb.c ****   /* Initialize the HCTSIZn register */
2028:Drivers/STM32F7xx_HAL_Driver/Src/stm32f7xx_ll_usb.c ****   USBx_HC(ch_num)->HCTSIZ = (hc->XferSize & USB_OTG_HCTSIZ_XFRSIZ) |
2029:Drivers/STM32F7xx_HAL_Driver/Src/stm32f7xx_ll_usb.c ****                             (((uint32_t)num_packets << 19) & USB_OTG_HCTSIZ_PKTCNT) |
2030:Drivers/STM32F7xx_HAL_Driver/Src/stm32f7xx_ll_usb.c ****                             (((uint32_t)hc->data_pid << 29) & USB_OTG_HCTSIZ_DPID);
2031:Drivers/STM32F7xx_HAL_Driver/Src/stm32f7xx_ll_usb.c **** 
2032:Drivers/STM32F7xx_HAL_Driver/Src/stm32f7xx_ll_usb.c ****   if (dma != 0U)
2033:Drivers/STM32F7xx_HAL_Driver/Src/stm32f7xx_ll_usb.c ****   {
2034:Drivers/STM32F7xx_HAL_Driver/Src/stm32f7xx_ll_usb.c ****     /* xfer_buff MUST be 32-bits aligned */
2035:Drivers/STM32F7xx_HAL_Driver/Src/stm32f7xx_ll_usb.c ****     USBx_HC(ch_num)->HCDMA = (uint32_t)hc->xfer_buff;
2036:Drivers/STM32F7xx_HAL_Driver/Src/stm32f7xx_ll_usb.c ****   }
2037:Drivers/STM32F7xx_HAL_Driver/Src/stm32f7xx_ll_usb.c **** 
2038:Drivers/STM32F7xx_HAL_Driver/Src/stm32f7xx_ll_usb.c ****   is_oddframe = (((uint32_t)USBx_HOST->HFNUM & 0x01U) != 0U) ? 0U : 1U;
2039:Drivers/STM32F7xx_HAL_Driver/Src/stm32f7xx_ll_usb.c ****   USBx_HC(ch_num)->HCCHAR &= ~USB_OTG_HCCHAR_ODDFRM;
2040:Drivers/STM32F7xx_HAL_Driver/Src/stm32f7xx_ll_usb.c ****   USBx_HC(ch_num)->HCCHAR |= (uint32_t)is_oddframe << 29;
2041:Drivers/STM32F7xx_HAL_Driver/Src/stm32f7xx_ll_usb.c **** 
2042:Drivers/STM32F7xx_HAL_Driver/Src/stm32f7xx_ll_usb.c ****   if (hc->do_ssplit == 1U)
2043:Drivers/STM32F7xx_HAL_Driver/Src/stm32f7xx_ll_usb.c ****   {
2044:Drivers/STM32F7xx_HAL_Driver/Src/stm32f7xx_ll_usb.c ****     /* Set Hub start Split transaction */
2045:Drivers/STM32F7xx_HAL_Driver/Src/stm32f7xx_ll_usb.c ****     USBx_HC((uint32_t)ch_num)->HCSPLT = ((uint32_t)hc->hub_addr << USB_OTG_HCSPLT_HUBADDR_Pos) |
2046:Drivers/STM32F7xx_HAL_Driver/Src/stm32f7xx_ll_usb.c ****                                         (uint32_t)hc->hub_port_nbr | USB_OTG_HCSPLT_SPLITEN;
2047:Drivers/STM32F7xx_HAL_Driver/Src/stm32f7xx_ll_usb.c **** 
2048:Drivers/STM32F7xx_HAL_Driver/Src/stm32f7xx_ll_usb.c ****     /* unmask ack & nyet for IN/OUT transactions */
2049:Drivers/STM32F7xx_HAL_Driver/Src/stm32f7xx_ll_usb.c ****     USBx_HC((uint32_t)ch_num)->HCINTMSK |= (USB_OTG_HCINTMSK_ACKM |
ARM GAS  /var/folders/8d/8djywmp92nx9cg9c5pcw0px00000gn/T//ccLp59Ij.s 			page 131


2050:Drivers/STM32F7xx_HAL_Driver/Src/stm32f7xx_ll_usb.c ****                                             USB_OTG_HCINTMSK_NYET);
2051:Drivers/STM32F7xx_HAL_Driver/Src/stm32f7xx_ll_usb.c **** 
2052:Drivers/STM32F7xx_HAL_Driver/Src/stm32f7xx_ll_usb.c ****     if ((hc->do_csplit == 1U) && (hc->ep_is_in == 0U))
2053:Drivers/STM32F7xx_HAL_Driver/Src/stm32f7xx_ll_usb.c ****     {
2054:Drivers/STM32F7xx_HAL_Driver/Src/stm32f7xx_ll_usb.c ****       USBx_HC((uint32_t)ch_num)->HCSPLT |= USB_OTG_HCSPLT_COMPLSPLT;
2055:Drivers/STM32F7xx_HAL_Driver/Src/stm32f7xx_ll_usb.c ****       USBx_HC((uint32_t)ch_num)->HCINTMSK |= USB_OTG_HCINTMSK_NYET;
2056:Drivers/STM32F7xx_HAL_Driver/Src/stm32f7xx_ll_usb.c ****     }
2057:Drivers/STM32F7xx_HAL_Driver/Src/stm32f7xx_ll_usb.c **** 
2058:Drivers/STM32F7xx_HAL_Driver/Src/stm32f7xx_ll_usb.c ****     if (((hc->ep_type == EP_TYPE_ISOC) || (hc->ep_type == EP_TYPE_INTR)) &&
2059:Drivers/STM32F7xx_HAL_Driver/Src/stm32f7xx_ll_usb.c ****         (hc->do_csplit == 1U) && (hc->ep_is_in == 1U))
2060:Drivers/STM32F7xx_HAL_Driver/Src/stm32f7xx_ll_usb.c ****     {
2061:Drivers/STM32F7xx_HAL_Driver/Src/stm32f7xx_ll_usb.c ****       USBx_HC((uint32_t)ch_num)->HCSPLT |= USB_OTG_HCSPLT_COMPLSPLT;
2062:Drivers/STM32F7xx_HAL_Driver/Src/stm32f7xx_ll_usb.c ****     }
2063:Drivers/STM32F7xx_HAL_Driver/Src/stm32f7xx_ll_usb.c **** 
2064:Drivers/STM32F7xx_HAL_Driver/Src/stm32f7xx_ll_usb.c ****     /* Position management for iso out transaction on split mode */
2065:Drivers/STM32F7xx_HAL_Driver/Src/stm32f7xx_ll_usb.c ****     if ((hc->ep_type == EP_TYPE_ISOC) && (hc->ep_is_in == 0U))
2066:Drivers/STM32F7xx_HAL_Driver/Src/stm32f7xx_ll_usb.c ****     {
2067:Drivers/STM32F7xx_HAL_Driver/Src/stm32f7xx_ll_usb.c ****       /* Set data payload position */
2068:Drivers/STM32F7xx_HAL_Driver/Src/stm32f7xx_ll_usb.c ****       switch (hc->iso_splt_xactPos)
2069:Drivers/STM32F7xx_HAL_Driver/Src/stm32f7xx_ll_usb.c ****       {
2070:Drivers/STM32F7xx_HAL_Driver/Src/stm32f7xx_ll_usb.c ****         case HCSPLT_BEGIN:
2071:Drivers/STM32F7xx_HAL_Driver/Src/stm32f7xx_ll_usb.c ****           /* First data payload for OUT Transaction */
2072:Drivers/STM32F7xx_HAL_Driver/Src/stm32f7xx_ll_usb.c ****           USBx_HC((uint32_t)ch_num)->HCSPLT |= USB_OTG_HCSPLT_XACTPOS_1;
2073:Drivers/STM32F7xx_HAL_Driver/Src/stm32f7xx_ll_usb.c ****           break;
2074:Drivers/STM32F7xx_HAL_Driver/Src/stm32f7xx_ll_usb.c **** 
2075:Drivers/STM32F7xx_HAL_Driver/Src/stm32f7xx_ll_usb.c ****         case HCSPLT_MIDDLE:
2076:Drivers/STM32F7xx_HAL_Driver/Src/stm32f7xx_ll_usb.c ****           /* Middle data payload for OUT Transaction */
2077:Drivers/STM32F7xx_HAL_Driver/Src/stm32f7xx_ll_usb.c ****           USBx_HC((uint32_t)ch_num)->HCSPLT |= USB_OTG_HCSPLT_XACTPOS_Pos;
2078:Drivers/STM32F7xx_HAL_Driver/Src/stm32f7xx_ll_usb.c ****           break;
2079:Drivers/STM32F7xx_HAL_Driver/Src/stm32f7xx_ll_usb.c **** 
2080:Drivers/STM32F7xx_HAL_Driver/Src/stm32f7xx_ll_usb.c ****         case HCSPLT_END:
2081:Drivers/STM32F7xx_HAL_Driver/Src/stm32f7xx_ll_usb.c ****           /* End data payload for OUT Transaction */
2082:Drivers/STM32F7xx_HAL_Driver/Src/stm32f7xx_ll_usb.c ****           USBx_HC((uint32_t)ch_num)->HCSPLT |= USB_OTG_HCSPLT_XACTPOS_0;
2083:Drivers/STM32F7xx_HAL_Driver/Src/stm32f7xx_ll_usb.c ****           break;
2084:Drivers/STM32F7xx_HAL_Driver/Src/stm32f7xx_ll_usb.c **** 
2085:Drivers/STM32F7xx_HAL_Driver/Src/stm32f7xx_ll_usb.c ****         case HCSPLT_FULL:
2086:Drivers/STM32F7xx_HAL_Driver/Src/stm32f7xx_ll_usb.c ****           /* Entire data payload for OUT Transaction */
2087:Drivers/STM32F7xx_HAL_Driver/Src/stm32f7xx_ll_usb.c ****           USBx_HC((uint32_t)ch_num)->HCSPLT |= USB_OTG_HCSPLT_XACTPOS;
2088:Drivers/STM32F7xx_HAL_Driver/Src/stm32f7xx_ll_usb.c ****           break;
2089:Drivers/STM32F7xx_HAL_Driver/Src/stm32f7xx_ll_usb.c **** 
2090:Drivers/STM32F7xx_HAL_Driver/Src/stm32f7xx_ll_usb.c ****         default:
2091:Drivers/STM32F7xx_HAL_Driver/Src/stm32f7xx_ll_usb.c ****           break;
2092:Drivers/STM32F7xx_HAL_Driver/Src/stm32f7xx_ll_usb.c ****       }
2093:Drivers/STM32F7xx_HAL_Driver/Src/stm32f7xx_ll_usb.c ****     }
2094:Drivers/STM32F7xx_HAL_Driver/Src/stm32f7xx_ll_usb.c ****   }
2095:Drivers/STM32F7xx_HAL_Driver/Src/stm32f7xx_ll_usb.c ****   else
2096:Drivers/STM32F7xx_HAL_Driver/Src/stm32f7xx_ll_usb.c ****   {
2097:Drivers/STM32F7xx_HAL_Driver/Src/stm32f7xx_ll_usb.c ****     /* Clear Hub Start Split transaction */
2098:Drivers/STM32F7xx_HAL_Driver/Src/stm32f7xx_ll_usb.c ****     USBx_HC((uint32_t)ch_num)->HCSPLT = 0U;
2099:Drivers/STM32F7xx_HAL_Driver/Src/stm32f7xx_ll_usb.c ****   }
2100:Drivers/STM32F7xx_HAL_Driver/Src/stm32f7xx_ll_usb.c **** 
2101:Drivers/STM32F7xx_HAL_Driver/Src/stm32f7xx_ll_usb.c ****   /* Set host channel enable */
2102:Drivers/STM32F7xx_HAL_Driver/Src/stm32f7xx_ll_usb.c ****   tmpreg = USBx_HC(ch_num)->HCCHAR;
2103:Drivers/STM32F7xx_HAL_Driver/Src/stm32f7xx_ll_usb.c ****   tmpreg &= ~USB_OTG_HCCHAR_CHDIS;
2104:Drivers/STM32F7xx_HAL_Driver/Src/stm32f7xx_ll_usb.c **** 
2105:Drivers/STM32F7xx_HAL_Driver/Src/stm32f7xx_ll_usb.c ****   /* make sure to set the correct ep direction */
2106:Drivers/STM32F7xx_HAL_Driver/Src/stm32f7xx_ll_usb.c ****   if (hc->ep_is_in != 0U)
ARM GAS  /var/folders/8d/8djywmp92nx9cg9c5pcw0px00000gn/T//ccLp59Ij.s 			page 132


2107:Drivers/STM32F7xx_HAL_Driver/Src/stm32f7xx_ll_usb.c ****   {
2108:Drivers/STM32F7xx_HAL_Driver/Src/stm32f7xx_ll_usb.c ****     tmpreg |= USB_OTG_HCCHAR_EPDIR;
2109:Drivers/STM32F7xx_HAL_Driver/Src/stm32f7xx_ll_usb.c ****   }
2110:Drivers/STM32F7xx_HAL_Driver/Src/stm32f7xx_ll_usb.c ****   else
2111:Drivers/STM32F7xx_HAL_Driver/Src/stm32f7xx_ll_usb.c ****   {
2112:Drivers/STM32F7xx_HAL_Driver/Src/stm32f7xx_ll_usb.c ****     tmpreg &= ~USB_OTG_HCCHAR_EPDIR;
2113:Drivers/STM32F7xx_HAL_Driver/Src/stm32f7xx_ll_usb.c ****   }
2114:Drivers/STM32F7xx_HAL_Driver/Src/stm32f7xx_ll_usb.c ****   tmpreg |= USB_OTG_HCCHAR_CHENA;
2115:Drivers/STM32F7xx_HAL_Driver/Src/stm32f7xx_ll_usb.c ****   USBx_HC(ch_num)->HCCHAR = tmpreg;
2116:Drivers/STM32F7xx_HAL_Driver/Src/stm32f7xx_ll_usb.c **** 
2117:Drivers/STM32F7xx_HAL_Driver/Src/stm32f7xx_ll_usb.c ****   if (dma != 0U) /* dma mode */
2118:Drivers/STM32F7xx_HAL_Driver/Src/stm32f7xx_ll_usb.c ****   {
2119:Drivers/STM32F7xx_HAL_Driver/Src/stm32f7xx_ll_usb.c ****     return HAL_OK;
2120:Drivers/STM32F7xx_HAL_Driver/Src/stm32f7xx_ll_usb.c ****   }
2121:Drivers/STM32F7xx_HAL_Driver/Src/stm32f7xx_ll_usb.c **** 
2122:Drivers/STM32F7xx_HAL_Driver/Src/stm32f7xx_ll_usb.c ****   if ((hc->ep_is_in == 0U) && (hc->xfer_len > 0U) && (hc->do_csplit == 0U))
2123:Drivers/STM32F7xx_HAL_Driver/Src/stm32f7xx_ll_usb.c ****   {
2124:Drivers/STM32F7xx_HAL_Driver/Src/stm32f7xx_ll_usb.c ****     switch (hc->ep_type)
2125:Drivers/STM32F7xx_HAL_Driver/Src/stm32f7xx_ll_usb.c ****     {
2126:Drivers/STM32F7xx_HAL_Driver/Src/stm32f7xx_ll_usb.c ****       /* Non periodic transfer */
2127:Drivers/STM32F7xx_HAL_Driver/Src/stm32f7xx_ll_usb.c ****       case EP_TYPE_CTRL:
2128:Drivers/STM32F7xx_HAL_Driver/Src/stm32f7xx_ll_usb.c ****       case EP_TYPE_BULK:
2129:Drivers/STM32F7xx_HAL_Driver/Src/stm32f7xx_ll_usb.c **** 
2130:Drivers/STM32F7xx_HAL_Driver/Src/stm32f7xx_ll_usb.c ****         len_words = (uint16_t)((hc->xfer_len + 3U) / 4U);
2131:Drivers/STM32F7xx_HAL_Driver/Src/stm32f7xx_ll_usb.c **** 
2132:Drivers/STM32F7xx_HAL_Driver/Src/stm32f7xx_ll_usb.c ****         /* check if there is enough space in FIFO space */
2133:Drivers/STM32F7xx_HAL_Driver/Src/stm32f7xx_ll_usb.c ****         if (len_words > (USBx->HNPTXSTS & 0xFFFFU))
2134:Drivers/STM32F7xx_HAL_Driver/Src/stm32f7xx_ll_usb.c ****         {
2135:Drivers/STM32F7xx_HAL_Driver/Src/stm32f7xx_ll_usb.c ****           /* need to process data in nptxfempty interrupt */
2136:Drivers/STM32F7xx_HAL_Driver/Src/stm32f7xx_ll_usb.c ****           USBx->GINTMSK |= USB_OTG_GINTMSK_NPTXFEM;
2137:Drivers/STM32F7xx_HAL_Driver/Src/stm32f7xx_ll_usb.c ****         }
2138:Drivers/STM32F7xx_HAL_Driver/Src/stm32f7xx_ll_usb.c ****         break;
2139:Drivers/STM32F7xx_HAL_Driver/Src/stm32f7xx_ll_usb.c **** 
2140:Drivers/STM32F7xx_HAL_Driver/Src/stm32f7xx_ll_usb.c ****       /* Periodic transfer */
2141:Drivers/STM32F7xx_HAL_Driver/Src/stm32f7xx_ll_usb.c ****       case EP_TYPE_INTR:
2142:Drivers/STM32F7xx_HAL_Driver/Src/stm32f7xx_ll_usb.c ****       case EP_TYPE_ISOC:
2143:Drivers/STM32F7xx_HAL_Driver/Src/stm32f7xx_ll_usb.c ****         len_words = (uint16_t)((hc->xfer_len + 3U) / 4U);
2144:Drivers/STM32F7xx_HAL_Driver/Src/stm32f7xx_ll_usb.c ****         /* check if there is enough space in FIFO space */
2145:Drivers/STM32F7xx_HAL_Driver/Src/stm32f7xx_ll_usb.c ****         if (len_words > (USBx_HOST->HPTXSTS & 0xFFFFU)) /* split the transfer */
2146:Drivers/STM32F7xx_HAL_Driver/Src/stm32f7xx_ll_usb.c ****         {
2147:Drivers/STM32F7xx_HAL_Driver/Src/stm32f7xx_ll_usb.c ****           /* need to process data in ptxfempty interrupt */
2148:Drivers/STM32F7xx_HAL_Driver/Src/stm32f7xx_ll_usb.c ****           USBx->GINTMSK |= USB_OTG_GINTMSK_PTXFEM;
2149:Drivers/STM32F7xx_HAL_Driver/Src/stm32f7xx_ll_usb.c ****         }
2150:Drivers/STM32F7xx_HAL_Driver/Src/stm32f7xx_ll_usb.c ****         break;
2151:Drivers/STM32F7xx_HAL_Driver/Src/stm32f7xx_ll_usb.c **** 
2152:Drivers/STM32F7xx_HAL_Driver/Src/stm32f7xx_ll_usb.c ****       default:
2153:Drivers/STM32F7xx_HAL_Driver/Src/stm32f7xx_ll_usb.c ****         break;
2154:Drivers/STM32F7xx_HAL_Driver/Src/stm32f7xx_ll_usb.c ****     }
2155:Drivers/STM32F7xx_HAL_Driver/Src/stm32f7xx_ll_usb.c **** 
2156:Drivers/STM32F7xx_HAL_Driver/Src/stm32f7xx_ll_usb.c ****     /* Write packet into the Tx FIFO. */
2157:Drivers/STM32F7xx_HAL_Driver/Src/stm32f7xx_ll_usb.c ****     (void)USB_WritePacket(USBx, hc->xfer_buff, hc->ch_num, (uint16_t)hc->xfer_len, 0);
2158:Drivers/STM32F7xx_HAL_Driver/Src/stm32f7xx_ll_usb.c ****   }
2159:Drivers/STM32F7xx_HAL_Driver/Src/stm32f7xx_ll_usb.c **** 
2160:Drivers/STM32F7xx_HAL_Driver/Src/stm32f7xx_ll_usb.c ****   return HAL_OK;
2161:Drivers/STM32F7xx_HAL_Driver/Src/stm32f7xx_ll_usb.c **** }
2162:Drivers/STM32F7xx_HAL_Driver/Src/stm32f7xx_ll_usb.c **** 
2163:Drivers/STM32F7xx_HAL_Driver/Src/stm32f7xx_ll_usb.c **** /**
ARM GAS  /var/folders/8d/8djywmp92nx9cg9c5pcw0px00000gn/T//ccLp59Ij.s 			page 133


2164:Drivers/STM32F7xx_HAL_Driver/Src/stm32f7xx_ll_usb.c ****   * @brief Read all host channel interrupts status
2165:Drivers/STM32F7xx_HAL_Driver/Src/stm32f7xx_ll_usb.c ****   * @param  USBx  Selected device
2166:Drivers/STM32F7xx_HAL_Driver/Src/stm32f7xx_ll_usb.c ****   * @retval HAL state
2167:Drivers/STM32F7xx_HAL_Driver/Src/stm32f7xx_ll_usb.c ****   */
2168:Drivers/STM32F7xx_HAL_Driver/Src/stm32f7xx_ll_usb.c **** uint32_t USB_HC_ReadInterrupt(const USB_OTG_GlobalTypeDef *USBx)
2169:Drivers/STM32F7xx_HAL_Driver/Src/stm32f7xx_ll_usb.c **** {
 4250              		.loc 1 2169 1 is_stmt 1 view -0
 4251              		.cfi_startproc
 4252              		@ args = 0, pretend = 0, frame = 0
 4253              		@ frame_needed = 0, uses_anonymous_args = 0
 4254              		@ link register save eliminated.
2170:Drivers/STM32F7xx_HAL_Driver/Src/stm32f7xx_ll_usb.c ****   uint32_t USBx_BASE = (uint32_t)USBx;
 4255              		.loc 1 2170 3 view .LVU1437
2171:Drivers/STM32F7xx_HAL_Driver/Src/stm32f7xx_ll_usb.c **** 
2172:Drivers/STM32F7xx_HAL_Driver/Src/stm32f7xx_ll_usb.c ****   return ((USBx_HOST->HAINT) & 0xFFFFU);
 4256              		.loc 1 2172 3 view .LVU1438
 4257              		.loc 1 2172 12 is_stmt 0 view .LVU1439
 4258 0000 00F58060 		add	r0, r0, #1024
 4259              	.LVL316:
 4260              		.loc 1 2172 21 view .LVU1440
 4261 0004 4069     		ldr	r0, [r0, #20]
 4262              	.LVL317:
2173:Drivers/STM32F7xx_HAL_Driver/Src/stm32f7xx_ll_usb.c **** }
 4263              		.loc 1 2173 1 view .LVU1441
 4264 0006 80B2     		uxth	r0, r0
 4265 0008 7047     		bx	lr
 4266              		.cfi_endproc
 4267              	.LFE184:
 4269              		.section	.text.USB_HC_Halt,"ax",%progbits
 4270              		.align	1
 4271              		.global	USB_HC_Halt
 4272              		.syntax unified
 4273              		.thumb
 4274              		.thumb_func
 4276              	USB_HC_Halt:
 4277              	.LVL318:
 4278              	.LFB185:
2174:Drivers/STM32F7xx_HAL_Driver/Src/stm32f7xx_ll_usb.c **** 
2175:Drivers/STM32F7xx_HAL_Driver/Src/stm32f7xx_ll_usb.c **** /**
2176:Drivers/STM32F7xx_HAL_Driver/Src/stm32f7xx_ll_usb.c ****   * @brief  Halt a host channel
2177:Drivers/STM32F7xx_HAL_Driver/Src/stm32f7xx_ll_usb.c ****   * @param  USBx  Selected device
2178:Drivers/STM32F7xx_HAL_Driver/Src/stm32f7xx_ll_usb.c ****   * @param  hc_num  Host Channel number
2179:Drivers/STM32F7xx_HAL_Driver/Src/stm32f7xx_ll_usb.c ****   *         This parameter can be a value from 1 to 15
2180:Drivers/STM32F7xx_HAL_Driver/Src/stm32f7xx_ll_usb.c ****   * @retval HAL state
2181:Drivers/STM32F7xx_HAL_Driver/Src/stm32f7xx_ll_usb.c ****   */
2182:Drivers/STM32F7xx_HAL_Driver/Src/stm32f7xx_ll_usb.c **** HAL_StatusTypeDef USB_HC_Halt(const USB_OTG_GlobalTypeDef *USBx, uint8_t hc_num)
2183:Drivers/STM32F7xx_HAL_Driver/Src/stm32f7xx_ll_usb.c **** {
 4279              		.loc 1 2183 1 is_stmt 1 view -0
 4280              		.cfi_startproc
 4281              		@ args = 0, pretend = 0, frame = 8
 4282              		@ frame_needed = 0, uses_anonymous_args = 0
 4283              		@ link register save eliminated.
 4284              		.loc 1 2183 1 is_stmt 0 view .LVU1443
 4285 0000 70B4     		push	{r4, r5, r6}
 4286              		.cfi_def_cfa_offset 12
 4287              		.cfi_offset 4, -12
 4288              		.cfi_offset 5, -8
ARM GAS  /var/folders/8d/8djywmp92nx9cg9c5pcw0px00000gn/T//ccLp59Ij.s 			page 134


 4289              		.cfi_offset 6, -4
 4290 0002 83B0     		sub	sp, sp, #12
 4291              		.cfi_def_cfa_offset 24
2184:Drivers/STM32F7xx_HAL_Driver/Src/stm32f7xx_ll_usb.c ****   uint32_t USBx_BASE = (uint32_t)USBx;
 4292              		.loc 1 2184 3 is_stmt 1 view .LVU1444
 4293              	.LVL319:
2185:Drivers/STM32F7xx_HAL_Driver/Src/stm32f7xx_ll_usb.c ****   uint32_t hcnum = (uint32_t)hc_num;
 4294              		.loc 1 2185 3 view .LVU1445
2186:Drivers/STM32F7xx_HAL_Driver/Src/stm32f7xx_ll_usb.c ****   __IO uint32_t count = 0U;
 4295              		.loc 1 2186 3 view .LVU1446
 4296              		.loc 1 2186 17 is_stmt 0 view .LVU1447
 4297 0004 0023     		movs	r3, #0
 4298 0006 0193     		str	r3, [sp, #4]
2187:Drivers/STM32F7xx_HAL_Driver/Src/stm32f7xx_ll_usb.c ****   uint32_t HcEpType = (USBx_HC(hcnum)->HCCHAR & USB_OTG_HCCHAR_EPTYP) >> 18;
 4299              		.loc 1 2187 3 is_stmt 1 view .LVU1448
 4300              		.loc 1 2187 24 is_stmt 0 view .LVU1449
 4301 0008 00EB4111 		add	r1, r0, r1, lsl #5
 4302              	.LVL320:
 4303              		.loc 1 2187 24 view .LVU1450
 4304 000c 01F5A062 		add	r2, r1, #1280
 4305              		.loc 1 2187 38 view .LVU1451
 4306 0010 D1F80035 		ldr	r3, [r1, #1280]
 4307              		.loc 1 2187 12 view .LVU1452
 4308 0014 C3F38143 		ubfx	r3, r3, #18, #2
 4309              	.LVL321:
2188:Drivers/STM32F7xx_HAL_Driver/Src/stm32f7xx_ll_usb.c ****   uint32_t ChannelEna = (USBx_HC(hcnum)->HCCHAR & USB_OTG_HCCHAR_CHENA) >> 31;
 4310              		.loc 1 2188 3 is_stmt 1 view .LVU1453
 4311              		.loc 1 2188 40 is_stmt 0 view .LVU1454
 4312 0018 D1F80055 		ldr	r5, [r1, #1280]
 4313              	.LVL322:
2189:Drivers/STM32F7xx_HAL_Driver/Src/stm32f7xx_ll_usb.c ****   uint32_t SplitEna = (USBx_HC(hcnum)->HCSPLT & USB_OTG_HCSPLT_SPLITEN) >> 31;
 4314              		.loc 1 2189 3 is_stmt 1 view .LVU1455
 4315              		.loc 1 2189 38 is_stmt 0 view .LVU1456
 4316 001c 5468     		ldr	r4, [r2, #4]
 4317              	.LVL323:
2190:Drivers/STM32F7xx_HAL_Driver/Src/stm32f7xx_ll_usb.c **** 
2191:Drivers/STM32F7xx_HAL_Driver/Src/stm32f7xx_ll_usb.c ****   /* In buffer DMA, Channel disable must not be programmed for non-split periodic channels.
2192:Drivers/STM32F7xx_HAL_Driver/Src/stm32f7xx_ll_usb.c ****      At the end of the next uframe/frame (in the worst case), the core generates a channel halted
2193:Drivers/STM32F7xx_HAL_Driver/Src/stm32f7xx_ll_usb.c ****      and disables the channel automatically. */
2194:Drivers/STM32F7xx_HAL_Driver/Src/stm32f7xx_ll_usb.c **** 
2195:Drivers/STM32F7xx_HAL_Driver/Src/stm32f7xx_ll_usb.c ****   if ((((USBx->GAHBCFG & USB_OTG_GAHBCFG_DMAEN) == USB_OTG_GAHBCFG_DMAEN) && (SplitEna == 0U)) &&
 4318              		.loc 1 2195 3 is_stmt 1 view .LVU1457
 4319              		.loc 1 2195 14 is_stmt 0 view .LVU1458
 4320 001e 8668     		ldr	r6, [r0, #8]
 4321              		.loc 1 2195 6 view .LVU1459
 4322 0020 16F0200F 		tst	r6, #32
 4323 0024 07D0     		beq	.L282
 4324 0026 ED0F     		lsrs	r5, r5, #31
 4325              	.LVL324:
 4326              		.loc 1 2195 6 view .LVU1460
 4327 0028 E40F     		lsrs	r4, r4, #31
 4328              	.LVL325:
 4329              		.loc 1 2195 75 discriminator 1 view .LVU1461
 4330 002a 24B9     		cbnz	r4, .L282
 4331              		.loc 1 2195 96 discriminator 2 view .LVU1462
 4332 002c CDB3     		cbz	r5, .L283
2196:Drivers/STM32F7xx_HAL_Driver/Src/stm32f7xx_ll_usb.c ****       ((ChannelEna == 0U) || (((HcEpType == HCCHAR_ISOC) || (HcEpType == HCCHAR_INTR)))))
ARM GAS  /var/folders/8d/8djywmp92nx9cg9c5pcw0px00000gn/T//ccLp59Ij.s 			page 135


 4333              		.loc 1 2196 27 view .LVU1463
 4334 002e 032B     		cmp	r3, #3
 4335 0030 18BF     		it	ne
 4336 0032 012B     		cmpne	r3, #1
 4337 0034 35D0     		beq	.L283
 4338              	.LVL326:
 4339              	.L282:
2197:Drivers/STM32F7xx_HAL_Driver/Src/stm32f7xx_ll_usb.c ****   {
2198:Drivers/STM32F7xx_HAL_Driver/Src/stm32f7xx_ll_usb.c ****     return HAL_OK;
2199:Drivers/STM32F7xx_HAL_Driver/Src/stm32f7xx_ll_usb.c ****   }
2200:Drivers/STM32F7xx_HAL_Driver/Src/stm32f7xx_ll_usb.c **** 
2201:Drivers/STM32F7xx_HAL_Driver/Src/stm32f7xx_ll_usb.c ****   /* Check for space in the request queue to issue the halt. */
2202:Drivers/STM32F7xx_HAL_Driver/Src/stm32f7xx_ll_usb.c ****   if ((HcEpType == HCCHAR_CTRL) || (HcEpType == HCCHAR_BULK))
 4340              		.loc 1 2202 3 is_stmt 1 view .LVU1464
 4341              		.loc 1 2202 6 is_stmt 0 view .LVU1465
 4342 0036 022B     		cmp	r3, #2
 4343 0038 18BF     		it	ne
 4344 003a 002B     		cmpne	r3, #0
 4345 003c 35D1     		bne	.L284
2203:Drivers/STM32F7xx_HAL_Driver/Src/stm32f7xx_ll_usb.c ****   {
2204:Drivers/STM32F7xx_HAL_Driver/Src/stm32f7xx_ll_usb.c ****     USBx_HC(hcnum)->HCCHAR |= USB_OTG_HCCHAR_CHDIS;
 4346              		.loc 1 2204 5 is_stmt 1 view .LVU1466
 4347              		.loc 1 2204 19 is_stmt 0 view .LVU1467
 4348 003e D1F80035 		ldr	r3, [r1, #1280]
 4349              	.LVL327:
 4350              		.loc 1 2204 28 view .LVU1468
 4351 0042 43F08043 		orr	r3, r3, #1073741824
 4352 0046 C1F80035 		str	r3, [r1, #1280]
2205:Drivers/STM32F7xx_HAL_Driver/Src/stm32f7xx_ll_usb.c **** 
2206:Drivers/STM32F7xx_HAL_Driver/Src/stm32f7xx_ll_usb.c ****     if ((USBx->GAHBCFG & USB_OTG_GAHBCFG_DMAEN) == 0U)
 4353              		.loc 1 2206 5 is_stmt 1 view .LVU1469
 4354              		.loc 1 2206 14 is_stmt 0 view .LVU1470
 4355 004a 8368     		ldr	r3, [r0, #8]
 4356              		.loc 1 2206 8 view .LVU1471
 4357 004c 13F0200F 		tst	r3, #32
 4358 0050 21D1     		bne	.L285
2207:Drivers/STM32F7xx_HAL_Driver/Src/stm32f7xx_ll_usb.c ****     {
2208:Drivers/STM32F7xx_HAL_Driver/Src/stm32f7xx_ll_usb.c ****       if ((USBx->HNPTXSTS & (0xFFU << 16)) == 0U)
 4359              		.loc 1 2208 7 is_stmt 1 view .LVU1472
 4360              		.loc 1 2208 16 is_stmt 0 view .LVU1473
 4361 0052 C36A     		ldr	r3, [r0, #44]
 4362              		.loc 1 2208 10 view .LVU1474
 4363 0054 13F47F0F 		tst	r3, #16711680
 4364 0058 16D1     		bne	.L286
2209:Drivers/STM32F7xx_HAL_Driver/Src/stm32f7xx_ll_usb.c ****       {
2210:Drivers/STM32F7xx_HAL_Driver/Src/stm32f7xx_ll_usb.c ****         USBx_HC(hcnum)->HCCHAR &= ~USB_OTG_HCCHAR_CHENA;
 4365              		.loc 1 2210 9 is_stmt 1 view .LVU1475
 4366              		.loc 1 2210 23 is_stmt 0 view .LVU1476
 4367 005a D1F80035 		ldr	r3, [r1, #1280]
 4368              		.loc 1 2210 32 view .LVU1477
 4369 005e 23F00043 		bic	r3, r3, #-2147483648
 4370 0062 C1F80035 		str	r3, [r1, #1280]
2211:Drivers/STM32F7xx_HAL_Driver/Src/stm32f7xx_ll_usb.c ****         USBx_HC(hcnum)->HCCHAR |= USB_OTG_HCCHAR_CHENA;
 4371              		.loc 1 2211 9 is_stmt 1 view .LVU1478
 4372              		.loc 1 2211 23 is_stmt 0 view .LVU1479
 4373 0066 D1F80035 		ldr	r3, [r1, #1280]
 4374              		.loc 1 2211 32 view .LVU1480
ARM GAS  /var/folders/8d/8djywmp92nx9cg9c5pcw0px00000gn/T//ccLp59Ij.s 			page 136


 4375 006a 43F00043 		orr	r3, r3, #-2147483648
 4376 006e C1F80035 		str	r3, [r1, #1280]
 4377              	.L287:
2212:Drivers/STM32F7xx_HAL_Driver/Src/stm32f7xx_ll_usb.c ****         do
 4378              		.loc 1 2212 9 is_stmt 1 view .LVU1481
2213:Drivers/STM32F7xx_HAL_Driver/Src/stm32f7xx_ll_usb.c ****         {
2214:Drivers/STM32F7xx_HAL_Driver/Src/stm32f7xx_ll_usb.c ****           count++;
 4379              		.loc 1 2214 11 view .LVU1482
 4380              		.loc 1 2214 16 is_stmt 0 view .LVU1483
 4381 0072 019B     		ldr	r3, [sp, #4]
 4382 0074 0133     		adds	r3, r3, #1
 4383 0076 0193     		str	r3, [sp, #4]
2215:Drivers/STM32F7xx_HAL_Driver/Src/stm32f7xx_ll_usb.c **** 
2216:Drivers/STM32F7xx_HAL_Driver/Src/stm32f7xx_ll_usb.c ****           if (count > 1000U)
 4384              		.loc 1 2216 11 is_stmt 1 view .LVU1484
 4385              		.loc 1 2216 21 is_stmt 0 view .LVU1485
 4386 0078 019B     		ldr	r3, [sp, #4]
 4387              		.loc 1 2216 14 view .LVU1486
 4388 007a B3F57A7F 		cmp	r3, #1000
 4389 007e 10D8     		bhi	.L283
2217:Drivers/STM32F7xx_HAL_Driver/Src/stm32f7xx_ll_usb.c ****           {
2218:Drivers/STM32F7xx_HAL_Driver/Src/stm32f7xx_ll_usb.c ****             break;
2219:Drivers/STM32F7xx_HAL_Driver/Src/stm32f7xx_ll_usb.c ****           }
2220:Drivers/STM32F7xx_HAL_Driver/Src/stm32f7xx_ll_usb.c ****         } while ((USBx_HC(hcnum)->HCCHAR & USB_OTG_HCCHAR_CHENA) == USB_OTG_HCCHAR_CHENA);
 4390              		.loc 1 2220 66 is_stmt 1 view .LVU1487
 4391              		.loc 1 2220 33 is_stmt 0 view .LVU1488
 4392 0080 1368     		ldr	r3, [r2]
 4393              		.loc 1 2220 66 view .LVU1489
 4394 0082 002B     		cmp	r3, #0
 4395 0084 F5DB     		blt	.L287
 4396 0086 0CE0     		b	.L283
 4397              	.L286:
2221:Drivers/STM32F7xx_HAL_Driver/Src/stm32f7xx_ll_usb.c ****       }
2222:Drivers/STM32F7xx_HAL_Driver/Src/stm32f7xx_ll_usb.c ****       else
2223:Drivers/STM32F7xx_HAL_Driver/Src/stm32f7xx_ll_usb.c ****       {
2224:Drivers/STM32F7xx_HAL_Driver/Src/stm32f7xx_ll_usb.c ****         USBx_HC(hcnum)->HCCHAR |= USB_OTG_HCCHAR_CHENA;
 4398              		.loc 1 2224 9 is_stmt 1 view .LVU1490
 4399              		.loc 1 2224 23 is_stmt 0 view .LVU1491
 4400 0088 D1F80035 		ldr	r3, [r1, #1280]
 4401              		.loc 1 2224 32 view .LVU1492
 4402 008c 43F00043 		orr	r3, r3, #-2147483648
 4403 0090 C1F80035 		str	r3, [r1, #1280]
 4404 0094 05E0     		b	.L283
 4405              	.L285:
2225:Drivers/STM32F7xx_HAL_Driver/Src/stm32f7xx_ll_usb.c ****       }
2226:Drivers/STM32F7xx_HAL_Driver/Src/stm32f7xx_ll_usb.c ****     }
2227:Drivers/STM32F7xx_HAL_Driver/Src/stm32f7xx_ll_usb.c ****     else
2228:Drivers/STM32F7xx_HAL_Driver/Src/stm32f7xx_ll_usb.c ****     {
2229:Drivers/STM32F7xx_HAL_Driver/Src/stm32f7xx_ll_usb.c ****       USBx_HC(hcnum)->HCCHAR |= USB_OTG_HCCHAR_CHENA;
 4406              		.loc 1 2229 7 is_stmt 1 view .LVU1493
 4407              		.loc 1 2229 21 is_stmt 0 view .LVU1494
 4408 0096 D1F80035 		ldr	r3, [r1, #1280]
 4409              		.loc 1 2229 30 view .LVU1495
 4410 009a 43F00043 		orr	r3, r3, #-2147483648
 4411 009e C1F80035 		str	r3, [r1, #1280]
 4412              	.L283:
2230:Drivers/STM32F7xx_HAL_Driver/Src/stm32f7xx_ll_usb.c ****     }
ARM GAS  /var/folders/8d/8djywmp92nx9cg9c5pcw0px00000gn/T//ccLp59Ij.s 			page 137


2231:Drivers/STM32F7xx_HAL_Driver/Src/stm32f7xx_ll_usb.c ****   }
2232:Drivers/STM32F7xx_HAL_Driver/Src/stm32f7xx_ll_usb.c ****   else
2233:Drivers/STM32F7xx_HAL_Driver/Src/stm32f7xx_ll_usb.c ****   {
2234:Drivers/STM32F7xx_HAL_Driver/Src/stm32f7xx_ll_usb.c ****     USBx_HC(hcnum)->HCCHAR |= USB_OTG_HCCHAR_CHDIS;
2235:Drivers/STM32F7xx_HAL_Driver/Src/stm32f7xx_ll_usb.c **** 
2236:Drivers/STM32F7xx_HAL_Driver/Src/stm32f7xx_ll_usb.c ****     if ((USBx_HOST->HPTXSTS & (0xFFU << 16)) == 0U)
2237:Drivers/STM32F7xx_HAL_Driver/Src/stm32f7xx_ll_usb.c ****     {
2238:Drivers/STM32F7xx_HAL_Driver/Src/stm32f7xx_ll_usb.c ****       USBx_HC(hcnum)->HCCHAR &= ~USB_OTG_HCCHAR_CHENA;
2239:Drivers/STM32F7xx_HAL_Driver/Src/stm32f7xx_ll_usb.c ****       USBx_HC(hcnum)->HCCHAR |= USB_OTG_HCCHAR_CHENA;
2240:Drivers/STM32F7xx_HAL_Driver/Src/stm32f7xx_ll_usb.c ****       do
2241:Drivers/STM32F7xx_HAL_Driver/Src/stm32f7xx_ll_usb.c ****       {
2242:Drivers/STM32F7xx_HAL_Driver/Src/stm32f7xx_ll_usb.c ****         count++;
2243:Drivers/STM32F7xx_HAL_Driver/Src/stm32f7xx_ll_usb.c **** 
2244:Drivers/STM32F7xx_HAL_Driver/Src/stm32f7xx_ll_usb.c ****         if (count > 1000U)
2245:Drivers/STM32F7xx_HAL_Driver/Src/stm32f7xx_ll_usb.c ****         {
2246:Drivers/STM32F7xx_HAL_Driver/Src/stm32f7xx_ll_usb.c ****           break;
2247:Drivers/STM32F7xx_HAL_Driver/Src/stm32f7xx_ll_usb.c ****         }
2248:Drivers/STM32F7xx_HAL_Driver/Src/stm32f7xx_ll_usb.c ****       } while ((USBx_HC(hcnum)->HCCHAR & USB_OTG_HCCHAR_CHENA) == USB_OTG_HCCHAR_CHENA);
2249:Drivers/STM32F7xx_HAL_Driver/Src/stm32f7xx_ll_usb.c ****     }
2250:Drivers/STM32F7xx_HAL_Driver/Src/stm32f7xx_ll_usb.c ****     else
2251:Drivers/STM32F7xx_HAL_Driver/Src/stm32f7xx_ll_usb.c ****     {
2252:Drivers/STM32F7xx_HAL_Driver/Src/stm32f7xx_ll_usb.c ****       USBx_HC(hcnum)->HCCHAR |= USB_OTG_HCCHAR_CHENA;
2253:Drivers/STM32F7xx_HAL_Driver/Src/stm32f7xx_ll_usb.c ****     }
2254:Drivers/STM32F7xx_HAL_Driver/Src/stm32f7xx_ll_usb.c ****   }
2255:Drivers/STM32F7xx_HAL_Driver/Src/stm32f7xx_ll_usb.c **** 
2256:Drivers/STM32F7xx_HAL_Driver/Src/stm32f7xx_ll_usb.c ****   return HAL_OK;
2257:Drivers/STM32F7xx_HAL_Driver/Src/stm32f7xx_ll_usb.c **** }
 4413              		.loc 1 2257 1 view .LVU1496
 4414 00a2 0020     		movs	r0, #0
 4415              	.LVL328:
 4416              		.loc 1 2257 1 view .LVU1497
 4417 00a4 03B0     		add	sp, sp, #12
 4418              		.cfi_remember_state
 4419              		.cfi_def_cfa_offset 12
 4420              		@ sp needed
 4421 00a6 70BC     		pop	{r4, r5, r6}
 4422              		.cfi_restore 6
 4423              		.cfi_restore 5
 4424              		.cfi_restore 4
 4425              		.cfi_def_cfa_offset 0
 4426 00a8 7047     		bx	lr
 4427              	.LVL329:
 4428              	.L284:
 4429              		.cfi_restore_state
2234:Drivers/STM32F7xx_HAL_Driver/Src/stm32f7xx_ll_usb.c **** 
 4430              		.loc 1 2234 5 is_stmt 1 view .LVU1498
2234:Drivers/STM32F7xx_HAL_Driver/Src/stm32f7xx_ll_usb.c **** 
 4431              		.loc 1 2234 19 is_stmt 0 view .LVU1499
 4432 00aa D1F80035 		ldr	r3, [r1, #1280]
 4433              	.LVL330:
2234:Drivers/STM32F7xx_HAL_Driver/Src/stm32f7xx_ll_usb.c **** 
 4434              		.loc 1 2234 28 view .LVU1500
 4435 00ae 43F08043 		orr	r3, r3, #1073741824
 4436 00b2 C1F80035 		str	r3, [r1, #1280]
2236:Drivers/STM32F7xx_HAL_Driver/Src/stm32f7xx_ll_usb.c ****     {
 4437              		.loc 1 2236 5 is_stmt 1 view .LVU1501
2236:Drivers/STM32F7xx_HAL_Driver/Src/stm32f7xx_ll_usb.c ****     {
ARM GAS  /var/folders/8d/8djywmp92nx9cg9c5pcw0px00000gn/T//ccLp59Ij.s 			page 138


 4438              		.loc 1 2236 19 is_stmt 0 view .LVU1502
 4439 00b6 D0F81034 		ldr	r3, [r0, #1040]
2236:Drivers/STM32F7xx_HAL_Driver/Src/stm32f7xx_ll_usb.c ****     {
 4440              		.loc 1 2236 8 view .LVU1503
 4441 00ba 13F47F0F 		tst	r3, #16711680
 4442 00be 16D1     		bne	.L288
2238:Drivers/STM32F7xx_HAL_Driver/Src/stm32f7xx_ll_usb.c ****       USBx_HC(hcnum)->HCCHAR |= USB_OTG_HCCHAR_CHENA;
 4443              		.loc 1 2238 7 is_stmt 1 view .LVU1504
2238:Drivers/STM32F7xx_HAL_Driver/Src/stm32f7xx_ll_usb.c ****       USBx_HC(hcnum)->HCCHAR |= USB_OTG_HCCHAR_CHENA;
 4444              		.loc 1 2238 21 is_stmt 0 view .LVU1505
 4445 00c0 D1F80035 		ldr	r3, [r1, #1280]
2238:Drivers/STM32F7xx_HAL_Driver/Src/stm32f7xx_ll_usb.c ****       USBx_HC(hcnum)->HCCHAR |= USB_OTG_HCCHAR_CHENA;
 4446              		.loc 1 2238 30 view .LVU1506
 4447 00c4 23F00043 		bic	r3, r3, #-2147483648
 4448 00c8 C1F80035 		str	r3, [r1, #1280]
2239:Drivers/STM32F7xx_HAL_Driver/Src/stm32f7xx_ll_usb.c ****       do
 4449              		.loc 1 2239 7 is_stmt 1 view .LVU1507
2239:Drivers/STM32F7xx_HAL_Driver/Src/stm32f7xx_ll_usb.c ****       do
 4450              		.loc 1 2239 21 is_stmt 0 view .LVU1508
 4451 00cc D1F80035 		ldr	r3, [r1, #1280]
2239:Drivers/STM32F7xx_HAL_Driver/Src/stm32f7xx_ll_usb.c ****       do
 4452              		.loc 1 2239 30 view .LVU1509
 4453 00d0 43F00043 		orr	r3, r3, #-2147483648
 4454 00d4 C1F80035 		str	r3, [r1, #1280]
 4455              	.L289:
2240:Drivers/STM32F7xx_HAL_Driver/Src/stm32f7xx_ll_usb.c ****       {
 4456              		.loc 1 2240 7 is_stmt 1 view .LVU1510
2242:Drivers/STM32F7xx_HAL_Driver/Src/stm32f7xx_ll_usb.c **** 
 4457              		.loc 1 2242 9 view .LVU1511
2242:Drivers/STM32F7xx_HAL_Driver/Src/stm32f7xx_ll_usb.c **** 
 4458              		.loc 1 2242 14 is_stmt 0 view .LVU1512
 4459 00d8 019B     		ldr	r3, [sp, #4]
 4460 00da 0133     		adds	r3, r3, #1
 4461 00dc 0193     		str	r3, [sp, #4]
2244:Drivers/STM32F7xx_HAL_Driver/Src/stm32f7xx_ll_usb.c ****         {
 4462              		.loc 1 2244 9 is_stmt 1 view .LVU1513
2244:Drivers/STM32F7xx_HAL_Driver/Src/stm32f7xx_ll_usb.c ****         {
 4463              		.loc 1 2244 19 is_stmt 0 view .LVU1514
 4464 00de 019B     		ldr	r3, [sp, #4]
2244:Drivers/STM32F7xx_HAL_Driver/Src/stm32f7xx_ll_usb.c ****         {
 4465              		.loc 1 2244 12 view .LVU1515
 4466 00e0 B3F57A7F 		cmp	r3, #1000
 4467 00e4 DDD8     		bhi	.L283
2248:Drivers/STM32F7xx_HAL_Driver/Src/stm32f7xx_ll_usb.c ****     }
 4468              		.loc 1 2248 64 is_stmt 1 view .LVU1516
2248:Drivers/STM32F7xx_HAL_Driver/Src/stm32f7xx_ll_usb.c ****     }
 4469              		.loc 1 2248 31 is_stmt 0 view .LVU1517
 4470 00e6 1368     		ldr	r3, [r2]
2248:Drivers/STM32F7xx_HAL_Driver/Src/stm32f7xx_ll_usb.c ****     }
 4471              		.loc 1 2248 64 view .LVU1518
 4472 00e8 002B     		cmp	r3, #0
 4473 00ea F5DB     		blt	.L289
 4474 00ec D9E7     		b	.L283
 4475              	.L288:
2252:Drivers/STM32F7xx_HAL_Driver/Src/stm32f7xx_ll_usb.c ****     }
 4476              		.loc 1 2252 7 is_stmt 1 view .LVU1519
2252:Drivers/STM32F7xx_HAL_Driver/Src/stm32f7xx_ll_usb.c ****     }
ARM GAS  /var/folders/8d/8djywmp92nx9cg9c5pcw0px00000gn/T//ccLp59Ij.s 			page 139


 4477              		.loc 1 2252 21 is_stmt 0 view .LVU1520
 4478 00ee D1F80035 		ldr	r3, [r1, #1280]
2252:Drivers/STM32F7xx_HAL_Driver/Src/stm32f7xx_ll_usb.c ****     }
 4479              		.loc 1 2252 30 view .LVU1521
 4480 00f2 43F00043 		orr	r3, r3, #-2147483648
 4481 00f6 C1F80035 		str	r3, [r1, #1280]
 4482 00fa D2E7     		b	.L283
 4483              		.cfi_endproc
 4484              	.LFE185:
 4486              		.section	.text.USB_DoPing,"ax",%progbits
 4487              		.align	1
 4488              		.global	USB_DoPing
 4489              		.syntax unified
 4490              		.thumb
 4491              		.thumb_func
 4493              	USB_DoPing:
 4494              	.LVL331:
 4495              	.LFB186:
2258:Drivers/STM32F7xx_HAL_Driver/Src/stm32f7xx_ll_usb.c **** 
2259:Drivers/STM32F7xx_HAL_Driver/Src/stm32f7xx_ll_usb.c **** /**
2260:Drivers/STM32F7xx_HAL_Driver/Src/stm32f7xx_ll_usb.c ****   * @brief  Initiate Do Ping protocol
2261:Drivers/STM32F7xx_HAL_Driver/Src/stm32f7xx_ll_usb.c ****   * @param  USBx  Selected device
2262:Drivers/STM32F7xx_HAL_Driver/Src/stm32f7xx_ll_usb.c ****   * @param  hc_num  Host Channel number
2263:Drivers/STM32F7xx_HAL_Driver/Src/stm32f7xx_ll_usb.c ****   *         This parameter can be a value from 1 to 15
2264:Drivers/STM32F7xx_HAL_Driver/Src/stm32f7xx_ll_usb.c ****   * @retval HAL state
2265:Drivers/STM32F7xx_HAL_Driver/Src/stm32f7xx_ll_usb.c ****   */
2266:Drivers/STM32F7xx_HAL_Driver/Src/stm32f7xx_ll_usb.c **** HAL_StatusTypeDef USB_DoPing(const USB_OTG_GlobalTypeDef *USBx, uint8_t ch_num)
2267:Drivers/STM32F7xx_HAL_Driver/Src/stm32f7xx_ll_usb.c **** {
 4496              		.loc 1 2267 1 is_stmt 1 view -0
 4497              		.cfi_startproc
 4498              		@ args = 0, pretend = 0, frame = 0
 4499              		@ frame_needed = 0, uses_anonymous_args = 0
 4500              		@ link register save eliminated.
2268:Drivers/STM32F7xx_HAL_Driver/Src/stm32f7xx_ll_usb.c ****   uint32_t USBx_BASE = (uint32_t)USBx;
 4501              		.loc 1 2268 3 view .LVU1523
2269:Drivers/STM32F7xx_HAL_Driver/Src/stm32f7xx_ll_usb.c ****   uint32_t chnum = (uint32_t)ch_num;
 4502              		.loc 1 2269 3 view .LVU1524
2270:Drivers/STM32F7xx_HAL_Driver/Src/stm32f7xx_ll_usb.c ****   uint32_t num_packets = 1U;
 4503              		.loc 1 2270 3 view .LVU1525
2271:Drivers/STM32F7xx_HAL_Driver/Src/stm32f7xx_ll_usb.c ****   uint32_t tmpreg;
 4504              		.loc 1 2271 3 view .LVU1526
2272:Drivers/STM32F7xx_HAL_Driver/Src/stm32f7xx_ll_usb.c **** 
2273:Drivers/STM32F7xx_HAL_Driver/Src/stm32f7xx_ll_usb.c ****   USBx_HC(chnum)->HCTSIZ = ((num_packets << 19) & USB_OTG_HCTSIZ_PKTCNT) |
 4505              		.loc 1 2273 3 view .LVU1527
 4506 0000 00EB4110 		add	r0, r0, r1, lsl #5
 4507              	.LVL332:
 4508              		.loc 1 2273 26 is_stmt 0 view .LVU1528
 4509 0004 064A     		ldr	r2, .L292
 4510 0006 C0F81025 		str	r2, [r0, #1296]
2274:Drivers/STM32F7xx_HAL_Driver/Src/stm32f7xx_ll_usb.c ****                            USB_OTG_HCTSIZ_DOPING;
2275:Drivers/STM32F7xx_HAL_Driver/Src/stm32f7xx_ll_usb.c **** 
2276:Drivers/STM32F7xx_HAL_Driver/Src/stm32f7xx_ll_usb.c ****   /* Set host channel enable */
2277:Drivers/STM32F7xx_HAL_Driver/Src/stm32f7xx_ll_usb.c ****   tmpreg = USBx_HC(chnum)->HCCHAR;
 4511              		.loc 1 2277 3 is_stmt 1 view .LVU1529
 4512              		.loc 1 2277 10 is_stmt 0 view .LVU1530
 4513 000a D0F80035 		ldr	r3, [r0, #1280]
 4514              	.LVL333:
ARM GAS  /var/folders/8d/8djywmp92nx9cg9c5pcw0px00000gn/T//ccLp59Ij.s 			page 140


2278:Drivers/STM32F7xx_HAL_Driver/Src/stm32f7xx_ll_usb.c ****   tmpreg &= ~USB_OTG_HCCHAR_CHDIS;
 4515              		.loc 1 2278 3 is_stmt 1 view .LVU1531
 4516              		.loc 1 2278 10 is_stmt 0 view .LVU1532
 4517 000e 23F08043 		bic	r3, r3, #1073741824
 4518              	.LVL334:
2279:Drivers/STM32F7xx_HAL_Driver/Src/stm32f7xx_ll_usb.c ****   tmpreg |= USB_OTG_HCCHAR_CHENA;
 4519              		.loc 1 2279 3 is_stmt 1 view .LVU1533
 4520              		.loc 1 2279 10 is_stmt 0 view .LVU1534
 4521 0012 43F00043 		orr	r3, r3, #-2147483648
 4522              	.LVL335:
2280:Drivers/STM32F7xx_HAL_Driver/Src/stm32f7xx_ll_usb.c ****   USBx_HC(chnum)->HCCHAR = tmpreg;
 4523              		.loc 1 2280 3 is_stmt 1 view .LVU1535
 4524              		.loc 1 2280 26 is_stmt 0 view .LVU1536
 4525 0016 C0F80035 		str	r3, [r0, #1280]
2281:Drivers/STM32F7xx_HAL_Driver/Src/stm32f7xx_ll_usb.c **** 
2282:Drivers/STM32F7xx_HAL_Driver/Src/stm32f7xx_ll_usb.c ****   return HAL_OK;
 4526              		.loc 1 2282 3 is_stmt 1 view .LVU1537
2283:Drivers/STM32F7xx_HAL_Driver/Src/stm32f7xx_ll_usb.c **** }
 4527              		.loc 1 2283 1 is_stmt 0 view .LVU1538
 4528 001a 0020     		movs	r0, #0
 4529 001c 7047     		bx	lr
 4530              	.L293:
 4531 001e 00BF     		.align	2
 4532              	.L292:
 4533 0020 00000880 		.word	-2146959360
 4534              		.cfi_endproc
 4535              	.LFE186:
 4537              		.section	.text.USB_HC_StartXfer,"ax",%progbits
 4538              		.align	1
 4539              		.global	USB_HC_StartXfer
 4540              		.syntax unified
 4541              		.thumb
 4542              		.thumb_func
 4544              	USB_HC_StartXfer:
 4545              	.LVL336:
 4546              	.LFB183:
1906:Drivers/STM32F7xx_HAL_Driver/Src/stm32f7xx_ll_usb.c ****   uint32_t USBx_BASE = (uint32_t)USBx;
 4547              		.loc 1 1906 1 is_stmt 1 view -0
 4548              		.cfi_startproc
 4549              		@ args = 0, pretend = 0, frame = 8
 4550              		@ frame_needed = 0, uses_anonymous_args = 0
1906:Drivers/STM32F7xx_HAL_Driver/Src/stm32f7xx_ll_usb.c ****   uint32_t USBx_BASE = (uint32_t)USBx;
 4551              		.loc 1 1906 1 is_stmt 0 view .LVU1540
 4552 0000 70B5     		push	{r4, r5, r6, lr}
 4553              		.cfi_def_cfa_offset 16
 4554              		.cfi_offset 4, -16
 4555              		.cfi_offset 5, -12
 4556              		.cfi_offset 6, -8
 4557              		.cfi_offset 14, -4
 4558 0002 84B0     		sub	sp, sp, #16
 4559              		.cfi_def_cfa_offset 32
1907:Drivers/STM32F7xx_HAL_Driver/Src/stm32f7xx_ll_usb.c ****   uint32_t ch_num = (uint32_t)hc->ch_num;
 4560              		.loc 1 1907 3 is_stmt 1 view .LVU1541
 4561              	.LVL337:
1908:Drivers/STM32F7xx_HAL_Driver/Src/stm32f7xx_ll_usb.c ****   __IO uint32_t tmpreg;
 4562              		.loc 1 1908 3 view .LVU1542
1908:Drivers/STM32F7xx_HAL_Driver/Src/stm32f7xx_ll_usb.c ****   __IO uint32_t tmpreg;
ARM GAS  /var/folders/8d/8djywmp92nx9cg9c5pcw0px00000gn/T//ccLp59Ij.s 			page 141


 4563              		.loc 1 1908 33 is_stmt 0 view .LVU1543
 4564 0004 4B78     		ldrb	r3, [r1, #1]	@ zero_extendqisi2
 4565              	.LVL338:
1909:Drivers/STM32F7xx_HAL_Driver/Src/stm32f7xx_ll_usb.c ****   uint8_t  is_oddframe;
 4566              		.loc 1 1909 3 is_stmt 1 view .LVU1544
1910:Drivers/STM32F7xx_HAL_Driver/Src/stm32f7xx_ll_usb.c ****   uint16_t len_words;
 4567              		.loc 1 1910 3 view .LVU1545
1911:Drivers/STM32F7xx_HAL_Driver/Src/stm32f7xx_ll_usb.c ****   uint16_t num_packets;
 4568              		.loc 1 1911 3 view .LVU1546
1912:Drivers/STM32F7xx_HAL_Driver/Src/stm32f7xx_ll_usb.c ****   uint16_t max_hc_pkt_count = HC_MAX_PKT_CNT;
 4569              		.loc 1 1912 3 view .LVU1547
1913:Drivers/STM32F7xx_HAL_Driver/Src/stm32f7xx_ll_usb.c **** 
 4570              		.loc 1 1913 3 view .LVU1548
1916:Drivers/STM32F7xx_HAL_Driver/Src/stm32f7xx_ll_usb.c ****   {
 4571              		.loc 1 1916 3 view .LVU1549
1916:Drivers/STM32F7xx_HAL_Driver/Src/stm32f7xx_ll_usb.c ****   {
 4572              		.loc 1 1916 6 is_stmt 0 view .LVU1550
 4573 0006 A34C     		ldr	r4, .L337
 4574 0008 A042     		cmp	r0, r4
 4575 000a 16D0     		beq	.L328
 4576              	.L295:
1940:Drivers/STM32F7xx_HAL_Driver/Src/stm32f7xx_ll_usb.c ****   {
 4577              		.loc 1 1940 3 is_stmt 1 view .LVU1551
1940:Drivers/STM32F7xx_HAL_Driver/Src/stm32f7xx_ll_usb.c ****   {
 4578              		.loc 1 1940 9 is_stmt 0 view .LVU1552
 4579 000c 8C79     		ldrb	r4, [r1, #6]	@ zero_extendqisi2
1940:Drivers/STM32F7xx_HAL_Driver/Src/stm32f7xx_ll_usb.c ****   {
 4580              		.loc 1 1940 6 view .LVU1553
 4581 000e 012C     		cmp	r4, #1
 4582 0010 2ED0     		beq	.L329
1998:Drivers/STM32F7xx_HAL_Driver/Src/stm32f7xx_ll_usb.c ****     {
 4583              		.loc 1 1998 5 is_stmt 1 view .LVU1554
1998:Drivers/STM32F7xx_HAL_Driver/Src/stm32f7xx_ll_usb.c ****     {
 4584              		.loc 1 1998 11 is_stmt 0 view .LVU1555
 4585 0012 0D6A     		ldr	r5, [r1, #32]
1998:Drivers/STM32F7xx_HAL_Driver/Src/stm32f7xx_ll_usb.c ****     {
 4586              		.loc 1 1998 8 view .LVU1556
 4587 0014 002D     		cmp	r5, #0
 4588 0016 5FD0     		beq	.L324
2000:Drivers/STM32F7xx_HAL_Driver/Src/stm32f7xx_ll_usb.c **** 
 4589              		.loc 1 2000 7 is_stmt 1 view .LVU1557
2000:Drivers/STM32F7xx_HAL_Driver/Src/stm32f7xx_ll_usb.c **** 
 4590              		.loc 1 2000 50 is_stmt 0 view .LVU1558
 4591 0018 B1F814C0 		ldrh	ip, [r1, #20]
2000:Drivers/STM32F7xx_HAL_Driver/Src/stm32f7xx_ll_usb.c **** 
 4592              		.loc 1 2000 46 view .LVU1559
 4593 001c 05EB0C04 		add	r4, r5, ip
2000:Drivers/STM32F7xx_HAL_Driver/Src/stm32f7xx_ll_usb.c **** 
 4594              		.loc 1 2000 63 view .LVU1560
 4595 0020 013C     		subs	r4, r4, #1
2000:Drivers/STM32F7xx_HAL_Driver/Src/stm32f7xx_ll_usb.c **** 
 4596              		.loc 1 2000 69 view .LVU1561
 4597 0022 B4FBFCF4 		udiv	r4, r4, ip
2000:Drivers/STM32F7xx_HAL_Driver/Src/stm32f7xx_ll_usb.c **** 
 4598              		.loc 1 2000 19 view .LVU1562
 4599 0026 A4B2     		uxth	r4, r4
 4600              	.LVL339:
ARM GAS  /var/folders/8d/8djywmp92nx9cg9c5pcw0px00000gn/T//ccLp59Ij.s 			page 142


2002:Drivers/STM32F7xx_HAL_Driver/Src/stm32f7xx_ll_usb.c ****       {
 4601              		.loc 1 2002 7 is_stmt 1 view .LVU1563
2002:Drivers/STM32F7xx_HAL_Driver/Src/stm32f7xx_ll_usb.c ****       {
 4602              		.loc 1 2002 10 is_stmt 0 view .LVU1564
 4603 0028 B4F5807F 		cmp	r4, #256
 4604 002c 55D9     		bls	.L306
2004:Drivers/STM32F7xx_HAL_Driver/Src/stm32f7xx_ll_usb.c ****         hc->XferSize = (uint32_t)num_packets * hc->max_packet;
 4605              		.loc 1 2004 9 is_stmt 1 view .LVU1565
 4606              	.LVL340:
2005:Drivers/STM32F7xx_HAL_Driver/Src/stm32f7xx_ll_usb.c ****       }
 4607              		.loc 1 2005 9 view .LVU1566
2005:Drivers/STM32F7xx_HAL_Driver/Src/stm32f7xx_ll_usb.c ****       }
 4608              		.loc 1 2005 46 is_stmt 0 view .LVU1567
 4609 002e 4FEA0C24 		lsl	r4, ip, #8
2005:Drivers/STM32F7xx_HAL_Driver/Src/stm32f7xx_ll_usb.c ****       }
 4610              		.loc 1 2005 22 view .LVU1568
 4611 0032 CC61     		str	r4, [r1, #28]
2004:Drivers/STM32F7xx_HAL_Driver/Src/stm32f7xx_ll_usb.c ****         hc->XferSize = (uint32_t)num_packets * hc->max_packet;
 4612              		.loc 1 2004 21 view .LVU1569
 4613 0034 4FF48074 		mov	r4, #256
 4614 0038 4FE0     		b	.L306
 4615              	.LVL341:
 4616              	.L328:
1919:Drivers/STM32F7xx_HAL_Driver/Src/stm32f7xx_ll_usb.c ****     {
 4617              		.loc 1 1919 5 is_stmt 1 view .LVU1570
1919:Drivers/STM32F7xx_HAL_Driver/Src/stm32f7xx_ll_usb.c ****     {
 4618              		.loc 1 1919 8 is_stmt 0 view .LVU1571
 4619 003a 012A     		cmp	r2, #1
 4620 003c 07D0     		beq	.L330
1931:Drivers/STM32F7xx_HAL_Driver/Src/stm32f7xx_ll_usb.c ****       {
 4621              		.loc 1 1931 7 is_stmt 1 view .LVU1572
1931:Drivers/STM32F7xx_HAL_Driver/Src/stm32f7xx_ll_usb.c ****       {
 4622              		.loc 1 1931 40 is_stmt 0 view .LVU1573
 4623 003e 8C88     		ldrh	r4, [r1, #4]
1931:Drivers/STM32F7xx_HAL_Driver/Src/stm32f7xx_ll_usb.c ****       {
 4624              		.loc 1 1931 10 view .LVU1574
 4625 0040 B4F5807F 		cmp	r4, #256
 4626 0044 E2D1     		bne	.L295
1933:Drivers/STM32F7xx_HAL_Driver/Src/stm32f7xx_ll_usb.c ****         return HAL_OK;
 4627              		.loc 1 1933 9 is_stmt 1 view .LVU1575
1933:Drivers/STM32F7xx_HAL_Driver/Src/stm32f7xx_ll_usb.c ****         return HAL_OK;
 4628              		.loc 1 1933 15 is_stmt 0 view .LVU1576
 4629 0046 1946     		mov	r1, r3
 4630              	.LVL342:
1933:Drivers/STM32F7xx_HAL_Driver/Src/stm32f7xx_ll_usb.c ****         return HAL_OK;
 4631              		.loc 1 1933 15 view .LVU1577
 4632 0048 FFF7FEFF 		bl	USB_DoPing
 4633              	.LVL343:
1934:Drivers/STM32F7xx_HAL_Driver/Src/stm32f7xx_ll_usb.c ****       }
 4634              		.loc 1 1934 9 is_stmt 1 view .LVU1578
1934:Drivers/STM32F7xx_HAL_Driver/Src/stm32f7xx_ll_usb.c ****       }
 4635              		.loc 1 1934 16 is_stmt 0 view .LVU1579
 4636 004c 1FE1     		b	.L297
 4637              	.LVL344:
 4638              	.L330:
1921:Drivers/STM32F7xx_HAL_Driver/Src/stm32f7xx_ll_usb.c ****       {
 4639              		.loc 1 1921 7 is_stmt 1 view .LVU1580
ARM GAS  /var/folders/8d/8djywmp92nx9cg9c5pcw0px00000gn/T//ccLp59Ij.s 			page 143


1921:Drivers/STM32F7xx_HAL_Driver/Src/stm32f7xx_ll_usb.c ****       {
 4640              		.loc 1 1921 15 is_stmt 0 view .LVU1581
 4641 004e 8C7C     		ldrb	r4, [r1, #18]	@ zero_extendqisi2
1921:Drivers/STM32F7xx_HAL_Driver/Src/stm32f7xx_ll_usb.c ****       {
 4642              		.loc 1 1921 10 view .LVU1582
 4643 0050 022C     		cmp	r4, #2
 4644 0052 18BF     		it	ne
 4645 0054 002C     		cmpne	r4, #0
 4646 0056 D9D1     		bne	.L295
1921:Drivers/STM32F7xx_HAL_Driver/Src/stm32f7xx_ll_usb.c ****       {
 4647              		.loc 1 1921 82 discriminator 1 view .LVU1583
 4648 0058 8C79     		ldrb	r4, [r1, #6]	@ zero_extendqisi2
1921:Drivers/STM32F7xx_HAL_Driver/Src/stm32f7xx_ll_usb.c ****       {
 4649              		.loc 1 1921 76 discriminator 1 view .LVU1584
 4650 005a 002C     		cmp	r4, #0
 4651 005c D6D1     		bne	.L295
1924:Drivers/STM32F7xx_HAL_Driver/Src/stm32f7xx_ll_usb.c ****                                                  USB_OTG_HCINTMSK_ACKM |
 4652              		.loc 1 1924 9 is_stmt 1 view .LVU1585
1924:Drivers/STM32F7xx_HAL_Driver/Src/stm32f7xx_ll_usb.c ****                                                  USB_OTG_HCINTMSK_ACKM |
 4653              		.loc 1 1924 34 is_stmt 0 view .LVU1586
 4654 005e 00EB4314 		add	r4, r0, r3, lsl #5
 4655 0062 D4F80C55 		ldr	r5, [r4, #1292]
1924:Drivers/STM32F7xx_HAL_Driver/Src/stm32f7xx_ll_usb.c ****                                                  USB_OTG_HCINTMSK_ACKM |
 4656              		.loc 1 1924 45 view .LVU1587
 4657 0066 25F07005 		bic	r5, r5, #112
 4658 006a C4F80C55 		str	r5, [r4, #1292]
 4659 006e CDE7     		b	.L295
 4660              	.L329:
1943:Drivers/STM32F7xx_HAL_Driver/Src/stm32f7xx_ll_usb.c **** 
 4661              		.loc 1 1943 5 is_stmt 1 view .LVU1588
 4662              	.LVL345:
1945:Drivers/STM32F7xx_HAL_Driver/Src/stm32f7xx_ll_usb.c ****     {
 4663              		.loc 1 1945 5 view .LVU1589
1945:Drivers/STM32F7xx_HAL_Driver/Src/stm32f7xx_ll_usb.c ****     {
 4664              		.loc 1 1945 11 is_stmt 0 view .LVU1590
 4665 0070 CC78     		ldrb	r4, [r1, #3]	@ zero_extendqisi2
1945:Drivers/STM32F7xx_HAL_Driver/Src/stm32f7xx_ll_usb.c ****     {
 4666              		.loc 1 1945 8 view .LVU1591
 4667 0072 1CB1     		cbz	r4, .L299
1947:Drivers/STM32F7xx_HAL_Driver/Src/stm32f7xx_ll_usb.c ****     }
 4668              		.loc 1 1947 7 is_stmt 1 view .LVU1592
1947:Drivers/STM32F7xx_HAL_Driver/Src/stm32f7xx_ll_usb.c ****     }
 4669              		.loc 1 1947 48 is_stmt 0 view .LVU1593
 4670 0074 8C8A     		ldrh	r4, [r1, #20]
1947:Drivers/STM32F7xx_HAL_Driver/Src/stm32f7xx_ll_usb.c ****     }
 4671              		.loc 1 1947 20 view .LVU1594
 4672 0076 CC61     		str	r4, [r1, #28]
1943:Drivers/STM32F7xx_HAL_Driver/Src/stm32f7xx_ll_usb.c **** 
 4673              		.loc 1 1943 17 view .LVU1595
 4674 0078 0124     		movs	r4, #1
 4675 007a 35E0     		b	.L300
 4676              	.L299:
1951:Drivers/STM32F7xx_HAL_Driver/Src/stm32f7xx_ll_usb.c ****       {
 4677              		.loc 1 1951 7 is_stmt 1 view .LVU1596
1951:Drivers/STM32F7xx_HAL_Driver/Src/stm32f7xx_ll_usb.c ****       {
 4678              		.loc 1 1951 13 is_stmt 0 view .LVU1597
 4679 007c 8C7C     		ldrb	r4, [r1, #18]	@ zero_extendqisi2
ARM GAS  /var/folders/8d/8djywmp92nx9cg9c5pcw0px00000gn/T//ccLp59Ij.s 			page 144


1951:Drivers/STM32F7xx_HAL_Driver/Src/stm32f7xx_ll_usb.c ****       {
 4680              		.loc 1 1951 10 view .LVU1598
 4681 007e 012C     		cmp	r4, #1
 4682 0080 05D0     		beq	.L331
1984:Drivers/STM32F7xx_HAL_Driver/Src/stm32f7xx_ll_usb.c ****         {
 4683              		.loc 1 1984 9 is_stmt 1 view .LVU1599
1984:Drivers/STM32F7xx_HAL_Driver/Src/stm32f7xx_ll_usb.c ****         {
 4684              		.loc 1 1984 12 is_stmt 0 view .LVU1600
 4685 0082 012A     		cmp	r2, #1
 4686 0084 21D0     		beq	.L332
 4687              	.L305:
1990:Drivers/STM32F7xx_HAL_Driver/Src/stm32f7xx_ll_usb.c ****         }
 4688              		.loc 1 1990 11 is_stmt 1 view .LVU1601
1990:Drivers/STM32F7xx_HAL_Driver/Src/stm32f7xx_ll_usb.c ****         }
 4689              		.loc 1 1990 28 is_stmt 0 view .LVU1602
 4690 0086 0C6A     		ldr	r4, [r1, #32]
1990:Drivers/STM32F7xx_HAL_Driver/Src/stm32f7xx_ll_usb.c ****         }
 4691              		.loc 1 1990 24 view .LVU1603
 4692 0088 CC61     		str	r4, [r1, #28]
1943:Drivers/STM32F7xx_HAL_Driver/Src/stm32f7xx_ll_usb.c **** 
 4693              		.loc 1 1943 17 view .LVU1604
 4694 008a 0124     		movs	r4, #1
 4695 008c 2CE0     		b	.L300
 4696              	.L331:
1953:Drivers/STM32F7xx_HAL_Driver/Src/stm32f7xx_ll_usb.c ****         {
 4697              		.loc 1 1953 9 is_stmt 1 view .LVU1605
1953:Drivers/STM32F7xx_HAL_Driver/Src/stm32f7xx_ll_usb.c ****         {
 4698              		.loc 1 1953 15 is_stmt 0 view .LVU1606
 4699 008e 0C6A     		ldr	r4, [r1, #32]
1953:Drivers/STM32F7xx_HAL_Driver/Src/stm32f7xx_ll_usb.c ****         {
 4700              		.loc 1 1953 12 view .LVU1607
 4701 0090 BC2C     		cmp	r4, #188
 4702 0092 0DD9     		bls	.L302
1956:Drivers/STM32F7xx_HAL_Driver/Src/stm32f7xx_ll_usb.c ****           hc->xfer_len = hc->XferSize;
 4703              		.loc 1 1956 11 is_stmt 1 view .LVU1608
1956:Drivers/STM32F7xx_HAL_Driver/Src/stm32f7xx_ll_usb.c ****           hc->xfer_len = hc->XferSize;
 4704              		.loc 1 1956 28 is_stmt 0 view .LVU1609
 4705 0094 8C8A     		ldrh	r4, [r1, #20]
1956:Drivers/STM32F7xx_HAL_Driver/Src/stm32f7xx_ll_usb.c ****           hc->xfer_len = hc->XferSize;
 4706              		.loc 1 1956 24 view .LVU1610
 4707 0096 CC61     		str	r4, [r1, #28]
1957:Drivers/STM32F7xx_HAL_Driver/Src/stm32f7xx_ll_usb.c **** 
 4708              		.loc 1 1957 11 is_stmt 1 view .LVU1611
1957:Drivers/STM32F7xx_HAL_Driver/Src/stm32f7xx_ll_usb.c **** 
 4709              		.loc 1 1957 24 is_stmt 0 view .LVU1612
 4710 0098 0C62     		str	r4, [r1, #32]
1959:Drivers/STM32F7xx_HAL_Driver/Src/stm32f7xx_ll_usb.c ****           {
 4711              		.loc 1 1959 11 is_stmt 1 view .LVU1613
1959:Drivers/STM32F7xx_HAL_Driver/Src/stm32f7xx_ll_usb.c ****           {
 4712              		.loc 1 1959 18 is_stmt 0 view .LVU1614
 4713 009a CC68     		ldr	r4, [r1, #12]
1959:Drivers/STM32F7xx_HAL_Driver/Src/stm32f7xx_ll_usb.c ****           {
 4714              		.loc 1 1959 54 view .LVU1615
 4715 009c 013C     		subs	r4, r4, #1
1959:Drivers/STM32F7xx_HAL_Driver/Src/stm32f7xx_ll_usb.c ****           {
 4716              		.loc 1 1959 14 view .LVU1616
 4717 009e 012C     		cmp	r4, #1
ARM GAS  /var/folders/8d/8djywmp92nx9cg9c5pcw0px00000gn/T//ccLp59Ij.s 			page 145


 4718 00a0 02D9     		bls	.L333
1965:Drivers/STM32F7xx_HAL_Driver/Src/stm32f7xx_ll_usb.c ****           }
 4719              		.loc 1 1965 13 is_stmt 1 view .LVU1617
1965:Drivers/STM32F7xx_HAL_Driver/Src/stm32f7xx_ll_usb.c ****           }
 4720              		.loc 1 1965 34 is_stmt 0 view .LVU1618
 4721 00a2 0124     		movs	r4, #1
 4722 00a4 CC60     		str	r4, [r1, #12]
 4723 00a6 1FE0     		b	.L300
 4724              	.L333:
1961:Drivers/STM32F7xx_HAL_Driver/Src/stm32f7xx_ll_usb.c ****           }
 4725              		.loc 1 1961 13 is_stmt 1 view .LVU1619
1961:Drivers/STM32F7xx_HAL_Driver/Src/stm32f7xx_ll_usb.c ****           }
 4726              		.loc 1 1961 34 is_stmt 0 view .LVU1620
 4727 00a8 0224     		movs	r4, #2
 4728 00aa CC60     		str	r4, [r1, #12]
1943:Drivers/STM32F7xx_HAL_Driver/Src/stm32f7xx_ll_usb.c **** 
 4729              		.loc 1 1943 17 view .LVU1621
 4730 00ac 0124     		movs	r4, #1
 4731 00ae 1BE0     		b	.L300
 4732              	.L302:
1970:Drivers/STM32F7xx_HAL_Driver/Src/stm32f7xx_ll_usb.c **** 
 4733              		.loc 1 1970 11 is_stmt 1 view .LVU1622
1970:Drivers/STM32F7xx_HAL_Driver/Src/stm32f7xx_ll_usb.c **** 
 4734              		.loc 1 1970 24 is_stmt 0 view .LVU1623
 4735 00b0 CC61     		str	r4, [r1, #28]
1972:Drivers/STM32F7xx_HAL_Driver/Src/stm32f7xx_ll_usb.c ****           {
 4736              		.loc 1 1972 11 is_stmt 1 view .LVU1624
1972:Drivers/STM32F7xx_HAL_Driver/Src/stm32f7xx_ll_usb.c ****           {
 4737              		.loc 1 1972 18 is_stmt 0 view .LVU1625
 4738 00b2 CC68     		ldr	r4, [r1, #12]
1972:Drivers/STM32F7xx_HAL_Driver/Src/stm32f7xx_ll_usb.c ****           {
 4739              		.loc 1 1972 54 view .LVU1626
 4740 00b4 013C     		subs	r4, r4, #1
1972:Drivers/STM32F7xx_HAL_Driver/Src/stm32f7xx_ll_usb.c ****           {
 4741              		.loc 1 1972 14 view .LVU1627
 4742 00b6 012C     		cmp	r4, #1
 4743 00b8 03D9     		bls	.L304
1974:Drivers/STM32F7xx_HAL_Driver/Src/stm32f7xx_ll_usb.c ****           }
 4744              		.loc 1 1974 13 is_stmt 1 view .LVU1628
1974:Drivers/STM32F7xx_HAL_Driver/Src/stm32f7xx_ll_usb.c ****           }
 4745              		.loc 1 1974 34 is_stmt 0 view .LVU1629
 4746 00ba 0424     		movs	r4, #4
 4747 00bc CC60     		str	r4, [r1, #12]
1943:Drivers/STM32F7xx_HAL_Driver/Src/stm32f7xx_ll_usb.c **** 
 4748              		.loc 1 1943 17 view .LVU1630
 4749 00be 0124     		movs	r4, #1
 4750 00c0 12E0     		b	.L300
 4751              	.L304:
1978:Drivers/STM32F7xx_HAL_Driver/Src/stm32f7xx_ll_usb.c ****           }
 4752              		.loc 1 1978 13 is_stmt 1 view .LVU1631
1978:Drivers/STM32F7xx_HAL_Driver/Src/stm32f7xx_ll_usb.c ****           }
 4753              		.loc 1 1978 34 is_stmt 0 view .LVU1632
 4754 00c2 0324     		movs	r4, #3
 4755 00c4 CC60     		str	r4, [r1, #12]
1943:Drivers/STM32F7xx_HAL_Driver/Src/stm32f7xx_ll_usb.c **** 
 4756              		.loc 1 1943 17 view .LVU1633
 4757 00c6 0124     		movs	r4, #1
ARM GAS  /var/folders/8d/8djywmp92nx9cg9c5pcw0px00000gn/T//ccLp59Ij.s 			page 146


 4758 00c8 0EE0     		b	.L300
 4759              	.L332:
1984:Drivers/STM32F7xx_HAL_Driver/Src/stm32f7xx_ll_usb.c ****         {
 4760              		.loc 1 1984 31 discriminator 1 view .LVU1634
 4761 00ca 0D6A     		ldr	r5, [r1, #32]
1984:Drivers/STM32F7xx_HAL_Driver/Src/stm32f7xx_ll_usb.c ****         {
 4762              		.loc 1 1984 46 discriminator 1 view .LVU1635
 4763 00cc 8C8A     		ldrh	r4, [r1, #20]
1984:Drivers/STM32F7xx_HAL_Driver/Src/stm32f7xx_ll_usb.c ****         {
 4764              		.loc 1 1984 25 discriminator 1 view .LVU1636
 4765 00ce A542     		cmp	r5, r4
 4766 00d0 D9D9     		bls	.L305
1986:Drivers/STM32F7xx_HAL_Driver/Src/stm32f7xx_ll_usb.c ****         }
 4767              		.loc 1 1986 11 is_stmt 1 view .LVU1637
1986:Drivers/STM32F7xx_HAL_Driver/Src/stm32f7xx_ll_usb.c ****         }
 4768              		.loc 1 1986 24 is_stmt 0 view .LVU1638
 4769 00d2 CC61     		str	r4, [r1, #28]
1943:Drivers/STM32F7xx_HAL_Driver/Src/stm32f7xx_ll_usb.c **** 
 4770              		.loc 1 1943 17 view .LVU1639
 4771 00d4 0124     		movs	r4, #1
1986:Drivers/STM32F7xx_HAL_Driver/Src/stm32f7xx_ll_usb.c ****         }
 4772              		.loc 1 1986 24 view .LVU1640
 4773 00d6 07E0     		b	.L300
 4774              	.LVL346:
 4775              	.L324:
2010:Drivers/STM32F7xx_HAL_Driver/Src/stm32f7xx_ll_usb.c ****     }
 4776              		.loc 1 2010 19 view .LVU1641
 4777 00d8 0124     		movs	r4, #1
 4778              	.L306:
 4779              	.LVL347:
2017:Drivers/STM32F7xx_HAL_Driver/Src/stm32f7xx_ll_usb.c ****     {
 4780              		.loc 1 2017 5 is_stmt 1 view .LVU1642
2017:Drivers/STM32F7xx_HAL_Driver/Src/stm32f7xx_ll_usb.c ****     {
 4781              		.loc 1 2017 11 is_stmt 0 view .LVU1643
 4782 00da CE78     		ldrb	r6, [r1, #3]	@ zero_extendqisi2
2017:Drivers/STM32F7xx_HAL_Driver/Src/stm32f7xx_ll_usb.c ****     {
 4783              		.loc 1 2017 8 view .LVU1644
 4784 00dc 002E     		cmp	r6, #0
 4785 00de 60D0     		beq	.L307
2019:Drivers/STM32F7xx_HAL_Driver/Src/stm32f7xx_ll_usb.c ****     }
 4786              		.loc 1 2019 7 is_stmt 1 view .LVU1645
2019:Drivers/STM32F7xx_HAL_Driver/Src/stm32f7xx_ll_usb.c ****     }
 4787              		.loc 1 2019 48 is_stmt 0 view .LVU1646
 4788 00e0 8D8A     		ldrh	r5, [r1, #20]
2019:Drivers/STM32F7xx_HAL_Driver/Src/stm32f7xx_ll_usb.c ****     }
 4789              		.loc 1 2019 44 view .LVU1647
 4790 00e2 04FB05F5 		mul	r5, r4, r5
2019:Drivers/STM32F7xx_HAL_Driver/Src/stm32f7xx_ll_usb.c ****     }
 4791              		.loc 1 2019 20 view .LVU1648
 4792 00e6 CD61     		str	r5, [r1, #28]
 4793              	.LVL348:
 4794              	.L300:
2028:Drivers/STM32F7xx_HAL_Driver/Src/stm32f7xx_ll_usb.c ****                             (((uint32_t)num_packets << 19) & USB_OTG_HCTSIZ_PKTCNT) |
 4795              		.loc 1 2028 3 is_stmt 1 view .LVU1649
2028:Drivers/STM32F7xx_HAL_Driver/Src/stm32f7xx_ll_usb.c ****                             (((uint32_t)num_packets << 19) & USB_OTG_HCTSIZ_PKTCNT) |
 4796              		.loc 1 2028 43 is_stmt 0 view .LVU1650
 4797 00e8 CD69     		ldr	r5, [r1, #28]
ARM GAS  /var/folders/8d/8djywmp92nx9cg9c5pcw0px00000gn/T//ccLp59Ij.s 			page 147


 4798 00ea C5F3120C 		ubfx	ip, r5, #0, #19
2029:Drivers/STM32F7xx_HAL_Driver/Src/stm32f7xx_ll_usb.c ****                             (((uint32_t)hc->data_pid << 29) & USB_OTG_HCTSIZ_DPID);
 4799              		.loc 1 2029 60 view .LVU1651
 4800 00ee 6A4D     		ldr	r5, .L337+4
 4801 00f0 05EAC444 		and	r4, r5, r4, lsl #19
 4802              	.LVL349:
2028:Drivers/STM32F7xx_HAL_Driver/Src/stm32f7xx_ll_usb.c ****                             (((uint32_t)num_packets << 19) & USB_OTG_HCTSIZ_PKTCNT) |
 4803              		.loc 1 2028 68 view .LVU1652
 4804 00f4 4CEA040C 		orr	ip, ip, r4
2030:Drivers/STM32F7xx_HAL_Driver/Src/stm32f7xx_ll_usb.c **** 
 4805              		.loc 1 2030 43 view .LVU1653
 4806 00f8 8C7D     		ldrb	r4, [r1, #22]	@ zero_extendqisi2
2030:Drivers/STM32F7xx_HAL_Driver/Src/stm32f7xx_ll_usb.c **** 
 4807              		.loc 1 2030 54 view .LVU1654
 4808 00fa 6407     		lsls	r4, r4, #29
2030:Drivers/STM32F7xx_HAL_Driver/Src/stm32f7xx_ll_usb.c **** 
 4809              		.loc 1 2030 61 view .LVU1655
 4810 00fc 04F0C044 		and	r4, r4, #1610612736
2028:Drivers/STM32F7xx_HAL_Driver/Src/stm32f7xx_ll_usb.c ****                             (((uint32_t)num_packets << 19) & USB_OTG_HCTSIZ_PKTCNT) |
 4811              		.loc 1 2028 3 view .LVU1656
 4812 0100 00EB4313 		add	r3, r0, r3, lsl #5
 4813              	.LVL350:
2028:Drivers/STM32F7xx_HAL_Driver/Src/stm32f7xx_ll_usb.c ****                             (((uint32_t)num_packets << 19) & USB_OTG_HCTSIZ_PKTCNT) |
 4814              		.loc 1 2028 3 view .LVU1657
 4815 0104 03F5A06E 		add	lr, r3, #1280
2029:Drivers/STM32F7xx_HAL_Driver/Src/stm32f7xx_ll_usb.c ****                             (((uint32_t)hc->data_pid << 29) & USB_OTG_HCTSIZ_DPID);
 4816              		.loc 1 2029 85 view .LVU1658
 4817 0108 4CEA0404 		orr	r4, ip, r4
2028:Drivers/STM32F7xx_HAL_Driver/Src/stm32f7xx_ll_usb.c ****                             (((uint32_t)num_packets << 19) & USB_OTG_HCTSIZ_PKTCNT) |
 4818              		.loc 1 2028 27 view .LVU1659
 4819 010c CEF81040 		str	r4, [lr, #16]
2032:Drivers/STM32F7xx_HAL_Driver/Src/stm32f7xx_ll_usb.c ****   {
 4820              		.loc 1 2032 3 is_stmt 1 view .LVU1660
2032:Drivers/STM32F7xx_HAL_Driver/Src/stm32f7xx_ll_usb.c ****   {
 4821              		.loc 1 2032 6 is_stmt 0 view .LVU1661
 4822 0110 12B1     		cbz	r2, .L308
2035:Drivers/STM32F7xx_HAL_Driver/Src/stm32f7xx_ll_usb.c ****   }
 4823              		.loc 1 2035 5 is_stmt 1 view .LVU1662
2035:Drivers/STM32F7xx_HAL_Driver/Src/stm32f7xx_ll_usb.c ****   }
 4824              		.loc 1 2035 42 is_stmt 0 view .LVU1663
 4825 0112 8C69     		ldr	r4, [r1, #24]
2035:Drivers/STM32F7xx_HAL_Driver/Src/stm32f7xx_ll_usb.c ****   }
 4826              		.loc 1 2035 28 view .LVU1664
 4827 0114 CEF81440 		str	r4, [lr, #20]
 4828              	.L308:
2038:Drivers/STM32F7xx_HAL_Driver/Src/stm32f7xx_ll_usb.c ****   USBx_HC(ch_num)->HCCHAR &= ~USB_OTG_HCCHAR_ODDFRM;
 4829              		.loc 1 2038 3 is_stmt 1 view .LVU1665
2038:Drivers/STM32F7xx_HAL_Driver/Src/stm32f7xx_ll_usb.c ****   USBx_HC(ch_num)->HCCHAR &= ~USB_OTG_HCCHAR_ODDFRM;
 4830              		.loc 1 2038 29 is_stmt 0 view .LVU1666
 4831 0118 00F58065 		add	r5, r0, #1024
2038:Drivers/STM32F7xx_HAL_Driver/Src/stm32f7xx_ll_usb.c ****   USBx_HC(ch_num)->HCCHAR &= ~USB_OTG_HCCHAR_ODDFRM;
 4832              		.loc 1 2038 38 view .LVU1667
 4833 011c AC68     		ldr	r4, [r5, #8]
2038:Drivers/STM32F7xx_HAL_Driver/Src/stm32f7xx_ll_usb.c ****   USBx_HC(ch_num)->HCCHAR &= ~USB_OTG_HCCHAR_ODDFRM;
 4834              		.loc 1 2038 67 view .LVU1668
 4835 011e 14F0010F 		tst	r4, #1
 4836 0122 0CBF     		ite	eq
ARM GAS  /var/folders/8d/8djywmp92nx9cg9c5pcw0px00000gn/T//ccLp59Ij.s 			page 148


 4837 0124 4FF0010C 		moveq	ip, #1
 4838 0128 4FF0000C 		movne	ip, #0
 4839              	.LVL351:
2039:Drivers/STM32F7xx_HAL_Driver/Src/stm32f7xx_ll_usb.c ****   USBx_HC(ch_num)->HCCHAR |= (uint32_t)is_oddframe << 29;
 4840              		.loc 1 2039 3 is_stmt 1 view .LVU1669
2039:Drivers/STM32F7xx_HAL_Driver/Src/stm32f7xx_ll_usb.c ****   USBx_HC(ch_num)->HCCHAR |= (uint32_t)is_oddframe << 29;
 4841              		.loc 1 2039 18 is_stmt 0 view .LVU1670
 4842 012c D3F80045 		ldr	r4, [r3, #1280]
2039:Drivers/STM32F7xx_HAL_Driver/Src/stm32f7xx_ll_usb.c ****   USBx_HC(ch_num)->HCCHAR |= (uint32_t)is_oddframe << 29;
 4843              		.loc 1 2039 27 view .LVU1671
 4844 0130 24F00054 		bic	r4, r4, #536870912
 4845 0134 C3F80045 		str	r4, [r3, #1280]
2040:Drivers/STM32F7xx_HAL_Driver/Src/stm32f7xx_ll_usb.c **** 
 4846              		.loc 1 2040 3 is_stmt 1 view .LVU1672
2040:Drivers/STM32F7xx_HAL_Driver/Src/stm32f7xx_ll_usb.c **** 
 4847              		.loc 1 2040 18 is_stmt 0 view .LVU1673
 4848 0138 D3F80045 		ldr	r4, [r3, #1280]
2040:Drivers/STM32F7xx_HAL_Driver/Src/stm32f7xx_ll_usb.c **** 
 4849              		.loc 1 2040 27 view .LVU1674
 4850 013c 44EA4C74 		orr	r4, r4, ip, lsl #29
 4851 0140 C3F80045 		str	r4, [r3, #1280]
2042:Drivers/STM32F7xx_HAL_Driver/Src/stm32f7xx_ll_usb.c ****   {
 4852              		.loc 1 2042 3 is_stmt 1 view .LVU1675
2042:Drivers/STM32F7xx_HAL_Driver/Src/stm32f7xx_ll_usb.c ****   {
 4853              		.loc 1 2042 9 is_stmt 0 view .LVU1676
 4854 0144 8C79     		ldrb	r4, [r1, #6]	@ zero_extendqisi2
2042:Drivers/STM32F7xx_HAL_Driver/Src/stm32f7xx_ll_usb.c ****   {
 4855              		.loc 1 2042 6 view .LVU1677
 4856 0146 012C     		cmp	r4, #1
 4857 0148 2DD0     		beq	.L334
2098:Drivers/STM32F7xx_HAL_Driver/Src/stm32f7xx_ll_usb.c ****   }
 4858              		.loc 1 2098 5 is_stmt 1 view .LVU1678
2098:Drivers/STM32F7xx_HAL_Driver/Src/stm32f7xx_ll_usb.c ****   }
 4859              		.loc 1 2098 39 is_stmt 0 view .LVU1679
 4860 014a 0024     		movs	r4, #0
 4861 014c CEF80440 		str	r4, [lr, #4]
 4862              	.L312:
2102:Drivers/STM32F7xx_HAL_Driver/Src/stm32f7xx_ll_usb.c ****   tmpreg &= ~USB_OTG_HCCHAR_CHDIS;
 4863              		.loc 1 2102 3 is_stmt 1 view .LVU1680
2102:Drivers/STM32F7xx_HAL_Driver/Src/stm32f7xx_ll_usb.c ****   tmpreg &= ~USB_OTG_HCCHAR_CHDIS;
 4864              		.loc 1 2102 27 is_stmt 0 view .LVU1681
 4865 0150 D3F80045 		ldr	r4, [r3, #1280]
2102:Drivers/STM32F7xx_HAL_Driver/Src/stm32f7xx_ll_usb.c ****   tmpreg &= ~USB_OTG_HCCHAR_CHDIS;
 4866              		.loc 1 2102 10 view .LVU1682
 4867 0154 0394     		str	r4, [sp, #12]
2103:Drivers/STM32F7xx_HAL_Driver/Src/stm32f7xx_ll_usb.c **** 
 4868              		.loc 1 2103 3 is_stmt 1 view .LVU1683
2103:Drivers/STM32F7xx_HAL_Driver/Src/stm32f7xx_ll_usb.c **** 
 4869              		.loc 1 2103 10 is_stmt 0 view .LVU1684
 4870 0156 039C     		ldr	r4, [sp, #12]
 4871 0158 24F08044 		bic	r4, r4, #1073741824
 4872 015c 0394     		str	r4, [sp, #12]
2106:Drivers/STM32F7xx_HAL_Driver/Src/stm32f7xx_ll_usb.c ****   {
 4873              		.loc 1 2106 3 is_stmt 1 view .LVU1685
2106:Drivers/STM32F7xx_HAL_Driver/Src/stm32f7xx_ll_usb.c ****   {
 4874              		.loc 1 2106 9 is_stmt 0 view .LVU1686
 4875 015e CC78     		ldrb	r4, [r1, #3]	@ zero_extendqisi2
ARM GAS  /var/folders/8d/8djywmp92nx9cg9c5pcw0px00000gn/T//ccLp59Ij.s 			page 149


2106:Drivers/STM32F7xx_HAL_Driver/Src/stm32f7xx_ll_usb.c ****   {
 4876              		.loc 1 2106 6 view .LVU1687
 4877 0160 002C     		cmp	r4, #0
 4878 0162 7DD0     		beq	.L318
2108:Drivers/STM32F7xx_HAL_Driver/Src/stm32f7xx_ll_usb.c ****   }
 4879              		.loc 1 2108 5 is_stmt 1 view .LVU1688
2108:Drivers/STM32F7xx_HAL_Driver/Src/stm32f7xx_ll_usb.c ****   }
 4880              		.loc 1 2108 12 is_stmt 0 view .LVU1689
 4881 0164 039C     		ldr	r4, [sp, #12]
 4882 0166 44F40044 		orr	r4, r4, #32768
 4883 016a 0394     		str	r4, [sp, #12]
 4884              	.L319:
2114:Drivers/STM32F7xx_HAL_Driver/Src/stm32f7xx_ll_usb.c ****   USBx_HC(ch_num)->HCCHAR = tmpreg;
 4885              		.loc 1 2114 3 is_stmt 1 view .LVU1690
2114:Drivers/STM32F7xx_HAL_Driver/Src/stm32f7xx_ll_usb.c ****   USBx_HC(ch_num)->HCCHAR = tmpreg;
 4886              		.loc 1 2114 10 is_stmt 0 view .LVU1691
 4887 016c 039C     		ldr	r4, [sp, #12]
 4888 016e 44F00044 		orr	r4, r4, #-2147483648
 4889 0172 0394     		str	r4, [sp, #12]
2115:Drivers/STM32F7xx_HAL_Driver/Src/stm32f7xx_ll_usb.c **** 
 4890              		.loc 1 2115 3 is_stmt 1 view .LVU1692
2115:Drivers/STM32F7xx_HAL_Driver/Src/stm32f7xx_ll_usb.c **** 
 4891              		.loc 1 2115 27 is_stmt 0 view .LVU1693
 4892 0174 039C     		ldr	r4, [sp, #12]
 4893 0176 C3F80045 		str	r4, [r3, #1280]
2117:Drivers/STM32F7xx_HAL_Driver/Src/stm32f7xx_ll_usb.c ****   {
 4894              		.loc 1 2117 3 is_stmt 1 view .LVU1694
2117:Drivers/STM32F7xx_HAL_Driver/Src/stm32f7xx_ll_usb.c ****   {
 4895              		.loc 1 2117 6 is_stmt 0 view .LVU1695
 4896 017a 002A     		cmp	r2, #0
 4897 017c 40F08780 		bne	.L297
2122:Drivers/STM32F7xx_HAL_Driver/Src/stm32f7xx_ll_usb.c ****   {
 4898              		.loc 1 2122 3 is_stmt 1 view .LVU1696
2122:Drivers/STM32F7xx_HAL_Driver/Src/stm32f7xx_ll_usb.c ****   {
 4899              		.loc 1 2122 10 is_stmt 0 view .LVU1697
 4900 0180 CB78     		ldrb	r3, [r1, #3]	@ zero_extendqisi2
2122:Drivers/STM32F7xx_HAL_Driver/Src/stm32f7xx_ll_usb.c ****   {
 4901              		.loc 1 2122 6 view .LVU1698
 4902 0182 002B     		cmp	r3, #0
 4903 0184 40F08380 		bne	.L297
2122:Drivers/STM32F7xx_HAL_Driver/Src/stm32f7xx_ll_usb.c ****   {
 4904              		.loc 1 2122 34 discriminator 1 view .LVU1699
 4905 0188 0B6A     		ldr	r3, [r1, #32]
2122:Drivers/STM32F7xx_HAL_Driver/Src/stm32f7xx_ll_usb.c ****   {
 4906              		.loc 1 2122 28 discriminator 1 view .LVU1700
 4907 018a 002B     		cmp	r3, #0
 4908 018c 7FD0     		beq	.L297
2122:Drivers/STM32F7xx_HAL_Driver/Src/stm32f7xx_ll_usb.c ****   {
 4909              		.loc 1 2122 57 discriminator 2 view .LVU1701
 4910 018e CA79     		ldrb	r2, [r1, #7]	@ zero_extendqisi2
 4911              	.LVL352:
2122:Drivers/STM32F7xx_HAL_Driver/Src/stm32f7xx_ll_usb.c ****   {
 4912              		.loc 1 2122 51 discriminator 2 view .LVU1702
 4913 0190 002A     		cmp	r2, #0
 4914 0192 7CD1     		bne	.L297
2124:Drivers/STM32F7xx_HAL_Driver/Src/stm32f7xx_ll_usb.c ****     {
 4915              		.loc 1 2124 5 is_stmt 1 view .LVU1703
ARM GAS  /var/folders/8d/8djywmp92nx9cg9c5pcw0px00000gn/T//ccLp59Ij.s 			page 150


2124:Drivers/STM32F7xx_HAL_Driver/Src/stm32f7xx_ll_usb.c ****     {
 4916              		.loc 1 2124 15 is_stmt 0 view .LVU1704
 4917 0194 8A7C     		ldrb	r2, [r1, #18]	@ zero_extendqisi2
2124:Drivers/STM32F7xx_HAL_Driver/Src/stm32f7xx_ll_usb.c ****     {
 4918              		.loc 1 2124 5 view .LVU1705
 4919 0196 032A     		cmp	r2, #3
 4920 0198 72D8     		bhi	.L320
 4921 019a DFE802F0 		tbb	[pc, r2]
 4922              	.L322:
 4923 019e 66       		.byte	(.L323-.L322)/2
 4924 019f 7F       		.byte	(.L321-.L322)/2
 4925 01a0 66       		.byte	(.L323-.L322)/2
 4926 01a1 7F       		.byte	(.L321-.L322)/2
 4927              	.LVL353:
 4928              		.p2align 1
 4929              	.L307:
2023:Drivers/STM32F7xx_HAL_Driver/Src/stm32f7xx_ll_usb.c ****     }
 4930              		.loc 1 2023 7 is_stmt 1 view .LVU1706
2023:Drivers/STM32F7xx_HAL_Driver/Src/stm32f7xx_ll_usb.c ****     }
 4931              		.loc 1 2023 20 is_stmt 0 view .LVU1707
 4932 01a2 CD61     		str	r5, [r1, #28]
 4933 01a4 A0E7     		b	.L300
 4934              	.LVL354:
 4935              	.L334:
2045:Drivers/STM32F7xx_HAL_Driver/Src/stm32f7xx_ll_usb.c ****                                         (uint32_t)hc->hub_port_nbr | USB_OTG_HCSPLT_SPLITEN;
 4936              		.loc 1 2045 5 is_stmt 1 view .LVU1708
2045:Drivers/STM32F7xx_HAL_Driver/Src/stm32f7xx_ll_usb.c ****                                         (uint32_t)hc->hub_port_nbr | USB_OTG_HCSPLT_SPLITEN;
 4937              		.loc 1 2045 54 is_stmt 0 view .LVU1709
 4938 01a6 4E7C     		ldrb	r6, [r1, #17]	@ zero_extendqisi2
2046:Drivers/STM32F7xx_HAL_Driver/Src/stm32f7xx_ll_usb.c **** 
 4939              		.loc 1 2046 53 view .LVU1710
 4940 01a8 0C7C     		ldrb	r4, [r1, #16]	@ zero_extendqisi2
2045:Drivers/STM32F7xx_HAL_Driver/Src/stm32f7xx_ll_usb.c ****                                         (uint32_t)hc->hub_port_nbr | USB_OTG_HCSPLT_SPLITEN;
 4941              		.loc 1 2045 96 view .LVU1711
 4942 01aa 44EAC614 		orr	r4, r4, r6, lsl #7
2046:Drivers/STM32F7xx_HAL_Driver/Src/stm32f7xx_ll_usb.c **** 
 4943              		.loc 1 2046 68 view .LVU1712
 4944 01ae 44F00044 		orr	r4, r4, #-2147483648
2045:Drivers/STM32F7xx_HAL_Driver/Src/stm32f7xx_ll_usb.c ****                                         (uint32_t)hc->hub_port_nbr | USB_OTG_HCSPLT_SPLITEN;
 4945              		.loc 1 2045 39 view .LVU1713
 4946 01b2 CEF80440 		str	r4, [lr, #4]
2049:Drivers/STM32F7xx_HAL_Driver/Src/stm32f7xx_ll_usb.c ****                                             USB_OTG_HCINTMSK_NYET);
 4947              		.loc 1 2049 5 is_stmt 1 view .LVU1714
2049:Drivers/STM32F7xx_HAL_Driver/Src/stm32f7xx_ll_usb.c ****                                             USB_OTG_HCINTMSK_NYET);
 4948              		.loc 1 2049 30 is_stmt 0 view .LVU1715
 4949 01b6 DEF80C40 		ldr	r4, [lr, #12]
2049:Drivers/STM32F7xx_HAL_Driver/Src/stm32f7xx_ll_usb.c ****                                             USB_OTG_HCINTMSK_NYET);
 4950              		.loc 1 2049 41 view .LVU1716
 4951 01ba 44F06004 		orr	r4, r4, #96
 4952 01be CEF80C40 		str	r4, [lr, #12]
2052:Drivers/STM32F7xx_HAL_Driver/Src/stm32f7xx_ll_usb.c ****     {
 4953              		.loc 1 2052 5 is_stmt 1 view .LVU1717
2052:Drivers/STM32F7xx_HAL_Driver/Src/stm32f7xx_ll_usb.c ****     {
 4954              		.loc 1 2052 12 is_stmt 0 view .LVU1718
 4955 01c2 CC79     		ldrb	r4, [r1, #7]	@ zero_extendqisi2
2052:Drivers/STM32F7xx_HAL_Driver/Src/stm32f7xx_ll_usb.c ****     {
 4956              		.loc 1 2052 8 view .LVU1719
ARM GAS  /var/folders/8d/8djywmp92nx9cg9c5pcw0px00000gn/T//ccLp59Ij.s 			page 151


 4957 01c4 012C     		cmp	r4, #1
 4958 01c6 15D0     		beq	.L335
 4959              	.L310:
2058:Drivers/STM32F7xx_HAL_Driver/Src/stm32f7xx_ll_usb.c ****         (hc->do_csplit == 1U) && (hc->ep_is_in == 1U))
 4960              		.loc 1 2058 5 is_stmt 1 view .LVU1720
2058:Drivers/STM32F7xx_HAL_Driver/Src/stm32f7xx_ll_usb.c ****         (hc->do_csplit == 1U) && (hc->ep_is_in == 1U))
 4961              		.loc 1 2058 13 is_stmt 0 view .LVU1721
 4962 01c8 8C7C     		ldrb	r4, [r1, #18]	@ zero_extendqisi2
2058:Drivers/STM32F7xx_HAL_Driver/Src/stm32f7xx_ll_usb.c ****         (hc->do_csplit == 1U) && (hc->ep_is_in == 1U))
 4963              		.loc 1 2058 8 view .LVU1722
 4964 01ca 032C     		cmp	r4, #3
 4965 01cc 18BF     		it	ne
 4966 01ce 012C     		cmpne	r4, #1
 4967 01d0 02D1     		bne	.L311
2059:Drivers/STM32F7xx_HAL_Driver/Src/stm32f7xx_ll_usb.c ****     {
 4968              		.loc 1 2059 12 view .LVU1723
 4969 01d2 CC79     		ldrb	r4, [r1, #7]	@ zero_extendqisi2
2058:Drivers/STM32F7xx_HAL_Driver/Src/stm32f7xx_ll_usb.c ****         (hc->do_csplit == 1U) && (hc->ep_is_in == 1U))
 4970              		.loc 1 2058 74 discriminator 1 view .LVU1724
 4971 01d4 012C     		cmp	r4, #1
 4972 01d6 1DD0     		beq	.L336
 4973              	.L311:
2065:Drivers/STM32F7xx_HAL_Driver/Src/stm32f7xx_ll_usb.c ****     {
 4974              		.loc 1 2065 5 is_stmt 1 view .LVU1725
2065:Drivers/STM32F7xx_HAL_Driver/Src/stm32f7xx_ll_usb.c ****     {
 4975              		.loc 1 2065 12 is_stmt 0 view .LVU1726
 4976 01d8 8C7C     		ldrb	r4, [r1, #18]	@ zero_extendqisi2
2065:Drivers/STM32F7xx_HAL_Driver/Src/stm32f7xx_ll_usb.c ****     {
 4977              		.loc 1 2065 8 view .LVU1727
 4978 01da 012C     		cmp	r4, #1
 4979 01dc B8D1     		bne	.L312
2065:Drivers/STM32F7xx_HAL_Driver/Src/stm32f7xx_ll_usb.c ****     {
 4980              		.loc 1 2065 45 discriminator 1 view .LVU1728
 4981 01de CC78     		ldrb	r4, [r1, #3]	@ zero_extendqisi2
2065:Drivers/STM32F7xx_HAL_Driver/Src/stm32f7xx_ll_usb.c ****     {
 4982              		.loc 1 2065 39 discriminator 1 view .LVU1729
 4983 01e0 002C     		cmp	r4, #0
 4984 01e2 B5D1     		bne	.L312
2068:Drivers/STM32F7xx_HAL_Driver/Src/stm32f7xx_ll_usb.c ****       {
 4985              		.loc 1 2068 7 is_stmt 1 view .LVU1730
2068:Drivers/STM32F7xx_HAL_Driver/Src/stm32f7xx_ll_usb.c ****       {
 4986              		.loc 1 2068 17 is_stmt 0 view .LVU1731
 4987 01e4 CC68     		ldr	r4, [r1, #12]
2068:Drivers/STM32F7xx_HAL_Driver/Src/stm32f7xx_ll_usb.c ****       {
 4988              		.loc 1 2068 7 view .LVU1732
 4989 01e6 013C     		subs	r4, r4, #1
 4990 01e8 032C     		cmp	r4, #3
 4991 01ea B1D8     		bhi	.L312
 4992 01ec DFE804F0 		tbb	[pc, r4]
 4993              	.L314:
 4994 01f0 1C       		.byte	(.L317-.L314)/2
 4995 01f1 23       		.byte	(.L316-.L314)/2
 4996 01f2 2A       		.byte	(.L315-.L314)/2
 4997 01f3 31       		.byte	(.L313-.L314)/2
 4998              		.p2align 1
 4999              	.L335:
2052:Drivers/STM32F7xx_HAL_Driver/Src/stm32f7xx_ll_usb.c ****     {
ARM GAS  /var/folders/8d/8djywmp92nx9cg9c5pcw0px00000gn/T//ccLp59Ij.s 			page 152


 5000              		.loc 1 2052 37 discriminator 1 view .LVU1733
 5001 01f4 CC78     		ldrb	r4, [r1, #3]	@ zero_extendqisi2
2052:Drivers/STM32F7xx_HAL_Driver/Src/stm32f7xx_ll_usb.c ****     {
 5002              		.loc 1 2052 31 discriminator 1 view .LVU1734
 5003 01f6 002C     		cmp	r4, #0
 5004 01f8 E6D1     		bne	.L310
2054:Drivers/STM32F7xx_HAL_Driver/Src/stm32f7xx_ll_usb.c ****       USBx_HC((uint32_t)ch_num)->HCINTMSK |= USB_OTG_HCINTMSK_NYET;
 5005              		.loc 1 2054 7 is_stmt 1 view .LVU1735
2054:Drivers/STM32F7xx_HAL_Driver/Src/stm32f7xx_ll_usb.c ****       USBx_HC((uint32_t)ch_num)->HCINTMSK |= USB_OTG_HCINTMSK_NYET;
 5006              		.loc 1 2054 32 is_stmt 0 view .LVU1736
 5007 01fa DEF80440 		ldr	r4, [lr, #4]
2054:Drivers/STM32F7xx_HAL_Driver/Src/stm32f7xx_ll_usb.c ****       USBx_HC((uint32_t)ch_num)->HCINTMSK |= USB_OTG_HCINTMSK_NYET;
 5008              		.loc 1 2054 41 view .LVU1737
 5009 01fe 44F48034 		orr	r4, r4, #65536
 5010 0202 CEF80440 		str	r4, [lr, #4]
2055:Drivers/STM32F7xx_HAL_Driver/Src/stm32f7xx_ll_usb.c ****     }
 5011              		.loc 1 2055 7 is_stmt 1 view .LVU1738
2055:Drivers/STM32F7xx_HAL_Driver/Src/stm32f7xx_ll_usb.c ****     }
 5012              		.loc 1 2055 32 is_stmt 0 view .LVU1739
 5013 0206 DEF80C40 		ldr	r4, [lr, #12]
2055:Drivers/STM32F7xx_HAL_Driver/Src/stm32f7xx_ll_usb.c ****     }
 5014              		.loc 1 2055 43 view .LVU1740
 5015 020a 44F04004 		orr	r4, r4, #64
 5016 020e CEF80C40 		str	r4, [lr, #12]
 5017 0212 D9E7     		b	.L310
 5018              	.L336:
2059:Drivers/STM32F7xx_HAL_Driver/Src/stm32f7xx_ll_usb.c ****     {
 5019              		.loc 1 2059 37 view .LVU1741
 5020 0214 CC78     		ldrb	r4, [r1, #3]	@ zero_extendqisi2
2059:Drivers/STM32F7xx_HAL_Driver/Src/stm32f7xx_ll_usb.c ****     {
 5021              		.loc 1 2059 31 view .LVU1742
 5022 0216 012C     		cmp	r4, #1
 5023 0218 DED1     		bne	.L311
2061:Drivers/STM32F7xx_HAL_Driver/Src/stm32f7xx_ll_usb.c ****     }
 5024              		.loc 1 2061 7 is_stmt 1 view .LVU1743
2061:Drivers/STM32F7xx_HAL_Driver/Src/stm32f7xx_ll_usb.c ****     }
 5025              		.loc 1 2061 32 is_stmt 0 view .LVU1744
 5026 021a DEF80440 		ldr	r4, [lr, #4]
2061:Drivers/STM32F7xx_HAL_Driver/Src/stm32f7xx_ll_usb.c ****     }
 5027              		.loc 1 2061 41 view .LVU1745
 5028 021e 44F48034 		orr	r4, r4, #65536
 5029 0222 CEF80440 		str	r4, [lr, #4]
 5030 0226 D7E7     		b	.L311
 5031              	.L317:
2072:Drivers/STM32F7xx_HAL_Driver/Src/stm32f7xx_ll_usb.c ****           break;
 5032              		.loc 1 2072 11 is_stmt 1 view .LVU1746
2072:Drivers/STM32F7xx_HAL_Driver/Src/stm32f7xx_ll_usb.c ****           break;
 5033              		.loc 1 2072 36 is_stmt 0 view .LVU1747
 5034 0228 DEF80440 		ldr	r4, [lr, #4]
2072:Drivers/STM32F7xx_HAL_Driver/Src/stm32f7xx_ll_usb.c ****           break;
 5035              		.loc 1 2072 45 view .LVU1748
 5036 022c 44F40044 		orr	r4, r4, #32768
 5037 0230 CEF80440 		str	r4, [lr, #4]
2073:Drivers/STM32F7xx_HAL_Driver/Src/stm32f7xx_ll_usb.c **** 
 5038              		.loc 1 2073 11 is_stmt 1 view .LVU1749
 5039 0234 8CE7     		b	.L312
 5040              	.L316:
ARM GAS  /var/folders/8d/8djywmp92nx9cg9c5pcw0px00000gn/T//ccLp59Ij.s 			page 153


2077:Drivers/STM32F7xx_HAL_Driver/Src/stm32f7xx_ll_usb.c ****           break;
 5041              		.loc 1 2077 11 view .LVU1750
2077:Drivers/STM32F7xx_HAL_Driver/Src/stm32f7xx_ll_usb.c ****           break;
 5042              		.loc 1 2077 36 is_stmt 0 view .LVU1751
 5043 0236 DEF80440 		ldr	r4, [lr, #4]
2077:Drivers/STM32F7xx_HAL_Driver/Src/stm32f7xx_ll_usb.c ****           break;
 5044              		.loc 1 2077 45 view .LVU1752
 5045 023a 44F00E04 		orr	r4, r4, #14
 5046 023e CEF80440 		str	r4, [lr, #4]
2078:Drivers/STM32F7xx_HAL_Driver/Src/stm32f7xx_ll_usb.c **** 
 5047              		.loc 1 2078 11 is_stmt 1 view .LVU1753
 5048 0242 85E7     		b	.L312
 5049              	.L315:
2082:Drivers/STM32F7xx_HAL_Driver/Src/stm32f7xx_ll_usb.c ****           break;
 5050              		.loc 1 2082 11 view .LVU1754
2082:Drivers/STM32F7xx_HAL_Driver/Src/stm32f7xx_ll_usb.c ****           break;
 5051              		.loc 1 2082 36 is_stmt 0 view .LVU1755
 5052 0244 DEF80440 		ldr	r4, [lr, #4]
2082:Drivers/STM32F7xx_HAL_Driver/Src/stm32f7xx_ll_usb.c ****           break;
 5053              		.loc 1 2082 45 view .LVU1756
 5054 0248 44F48044 		orr	r4, r4, #16384
 5055 024c CEF80440 		str	r4, [lr, #4]
2083:Drivers/STM32F7xx_HAL_Driver/Src/stm32f7xx_ll_usb.c **** 
 5056              		.loc 1 2083 11 is_stmt 1 view .LVU1757
 5057 0250 7EE7     		b	.L312
 5058              	.L313:
2087:Drivers/STM32F7xx_HAL_Driver/Src/stm32f7xx_ll_usb.c ****           break;
 5059              		.loc 1 2087 11 view .LVU1758
2087:Drivers/STM32F7xx_HAL_Driver/Src/stm32f7xx_ll_usb.c ****           break;
 5060              		.loc 1 2087 36 is_stmt 0 view .LVU1759
 5061 0252 DEF80440 		ldr	r4, [lr, #4]
2087:Drivers/STM32F7xx_HAL_Driver/Src/stm32f7xx_ll_usb.c ****           break;
 5062              		.loc 1 2087 45 view .LVU1760
 5063 0256 44F44044 		orr	r4, r4, #49152
 5064 025a CEF80440 		str	r4, [lr, #4]
2088:Drivers/STM32F7xx_HAL_Driver/Src/stm32f7xx_ll_usb.c **** 
 5065              		.loc 1 2088 11 is_stmt 1 view .LVU1761
 5066 025e 77E7     		b	.L312
 5067              	.L318:
2112:Drivers/STM32F7xx_HAL_Driver/Src/stm32f7xx_ll_usb.c ****   }
 5068              		.loc 1 2112 5 view .LVU1762
2112:Drivers/STM32F7xx_HAL_Driver/Src/stm32f7xx_ll_usb.c ****   }
 5069              		.loc 1 2112 12 is_stmt 0 view .LVU1763
 5070 0260 039C     		ldr	r4, [sp, #12]
 5071 0262 24F40044 		bic	r4, r4, #32768
 5072 0266 0394     		str	r4, [sp, #12]
 5073 0268 80E7     		b	.L319
 5074              	.LVL355:
 5075              	.L323:
2130:Drivers/STM32F7xx_HAL_Driver/Src/stm32f7xx_ll_usb.c **** 
 5076              		.loc 1 2130 9 is_stmt 1 view .LVU1764
2130:Drivers/STM32F7xx_HAL_Driver/Src/stm32f7xx_ll_usb.c **** 
 5077              		.loc 1 2130 46 is_stmt 0 view .LVU1765
 5078 026a 0333     		adds	r3, r3, #3
 5079              	.LVL356:
2133:Drivers/STM32F7xx_HAL_Driver/Src/stm32f7xx_ll_usb.c ****         {
 5080              		.loc 1 2133 9 is_stmt 1 view .LVU1766
ARM GAS  /var/folders/8d/8djywmp92nx9cg9c5pcw0px00000gn/T//ccLp59Ij.s 			page 154


2133:Drivers/STM32F7xx_HAL_Driver/Src/stm32f7xx_ll_usb.c ****         {
 5081              		.loc 1 2133 30 is_stmt 0 view .LVU1767
 5082 026c C26A     		ldr	r2, [r0, #44]
2133:Drivers/STM32F7xx_HAL_Driver/Src/stm32f7xx_ll_usb.c ****         {
 5083              		.loc 1 2133 41 view .LVU1768
 5084 026e 92B2     		uxth	r2, r2
2133:Drivers/STM32F7xx_HAL_Driver/Src/stm32f7xx_ll_usb.c ****         {
 5085              		.loc 1 2133 12 view .LVU1769
 5086 0270 C3F38F03 		ubfx	r3, r3, #2, #16
 5087              	.LVL357:
2133:Drivers/STM32F7xx_HAL_Driver/Src/stm32f7xx_ll_usb.c ****         {
 5088              		.loc 1 2133 12 view .LVU1770
 5089 0274 9342     		cmp	r3, r2
 5090 0276 03D9     		bls	.L320
2136:Drivers/STM32F7xx_HAL_Driver/Src/stm32f7xx_ll_usb.c ****         }
 5091              		.loc 1 2136 11 is_stmt 1 view .LVU1771
2136:Drivers/STM32F7xx_HAL_Driver/Src/stm32f7xx_ll_usb.c ****         }
 5092              		.loc 1 2136 15 is_stmt 0 view .LVU1772
 5093 0278 8369     		ldr	r3, [r0, #24]
2136:Drivers/STM32F7xx_HAL_Driver/Src/stm32f7xx_ll_usb.c ****         }
 5094              		.loc 1 2136 25 view .LVU1773
 5095 027a 43F02003 		orr	r3, r3, #32
 5096 027e 8361     		str	r3, [r0, #24]
 5097              	.LVL358:
 5098              	.L320:
2157:Drivers/STM32F7xx_HAL_Driver/Src/stm32f7xx_ll_usb.c ****   }
 5099              		.loc 1 2157 5 is_stmt 1 view .LVU1774
2157:Drivers/STM32F7xx_HAL_Driver/Src/stm32f7xx_ll_usb.c ****   }
 5100              		.loc 1 2157 11 is_stmt 0 view .LVU1775
 5101 0280 0023     		movs	r3, #0
 5102 0282 0093     		str	r3, [sp]
 5103 0284 0B8C     		ldrh	r3, [r1, #32]
 5104 0286 4A78     		ldrb	r2, [r1, #1]	@ zero_extendqisi2
 5105 0288 8969     		ldr	r1, [r1, #24]
 5106              	.LVL359:
2157:Drivers/STM32F7xx_HAL_Driver/Src/stm32f7xx_ll_usb.c ****   }
 5107              		.loc 1 2157 11 view .LVU1776
 5108 028a FFF7FEFF 		bl	USB_WritePacket
 5109              	.LVL360:
 5110              	.L297:
2161:Drivers/STM32F7xx_HAL_Driver/Src/stm32f7xx_ll_usb.c **** 
 5111              		.loc 1 2161 1 view .LVU1777
 5112 028e 0020     		movs	r0, #0
 5113 0290 04B0     		add	sp, sp, #16
 5114              		.cfi_remember_state
 5115              		.cfi_def_cfa_offset 16
 5116              		@ sp needed
 5117 0292 70BD     		pop	{r4, r5, r6, pc}
 5118              	.L338:
 5119              		.align	2
 5120              	.L337:
 5121 0294 00000440 		.word	1074003968
 5122 0298 0000F81F 		.word	536346624
 5123              	.LVL361:
 5124              	.L321:
 5125              		.cfi_restore_state
2143:Drivers/STM32F7xx_HAL_Driver/Src/stm32f7xx_ll_usb.c ****         /* check if there is enough space in FIFO space */
ARM GAS  /var/folders/8d/8djywmp92nx9cg9c5pcw0px00000gn/T//ccLp59Ij.s 			page 155


 5126              		.loc 1 2143 9 is_stmt 1 view .LVU1778
2143:Drivers/STM32F7xx_HAL_Driver/Src/stm32f7xx_ll_usb.c ****         /* check if there is enough space in FIFO space */
 5127              		.loc 1 2143 46 is_stmt 0 view .LVU1779
 5128 029c 0333     		adds	r3, r3, #3
 5129              	.LVL362:
2145:Drivers/STM32F7xx_HAL_Driver/Src/stm32f7xx_ll_usb.c ****         {
 5130              		.loc 1 2145 9 is_stmt 1 view .LVU1780
2145:Drivers/STM32F7xx_HAL_Driver/Src/stm32f7xx_ll_usb.c ****         {
 5131              		.loc 1 2145 35 is_stmt 0 view .LVU1781
 5132 029e 2A69     		ldr	r2, [r5, #16]
2145:Drivers/STM32F7xx_HAL_Driver/Src/stm32f7xx_ll_usb.c ****         {
 5133              		.loc 1 2145 45 view .LVU1782
 5134 02a0 92B2     		uxth	r2, r2
2145:Drivers/STM32F7xx_HAL_Driver/Src/stm32f7xx_ll_usb.c ****         {
 5135              		.loc 1 2145 12 view .LVU1783
 5136 02a2 C3F38F03 		ubfx	r3, r3, #2, #16
 5137              	.LVL363:
2145:Drivers/STM32F7xx_HAL_Driver/Src/stm32f7xx_ll_usb.c ****         {
 5138              		.loc 1 2145 12 view .LVU1784
 5139 02a6 9A42     		cmp	r2, r3
 5140 02a8 EAD2     		bcs	.L320
2148:Drivers/STM32F7xx_HAL_Driver/Src/stm32f7xx_ll_usb.c ****         }
 5141              		.loc 1 2148 11 is_stmt 1 view .LVU1785
2148:Drivers/STM32F7xx_HAL_Driver/Src/stm32f7xx_ll_usb.c ****         }
 5142              		.loc 1 2148 15 is_stmt 0 view .LVU1786
 5143 02aa 8369     		ldr	r3, [r0, #24]
2148:Drivers/STM32F7xx_HAL_Driver/Src/stm32f7xx_ll_usb.c ****         }
 5144              		.loc 1 2148 25 view .LVU1787
 5145 02ac 43F08063 		orr	r3, r3, #67108864
 5146 02b0 8361     		str	r3, [r0, #24]
 5147              	.LVL364:
2148:Drivers/STM32F7xx_HAL_Driver/Src/stm32f7xx_ll_usb.c ****         }
 5148              		.loc 1 2148 25 view .LVU1788
 5149 02b2 E5E7     		b	.L320
 5150              		.cfi_endproc
 5151              	.LFE183:
 5153              		.section	.text.USB_StopHost,"ax",%progbits
 5154              		.align	1
 5155              		.global	USB_StopHost
 5156              		.syntax unified
 5157              		.thumb
 5158              		.thumb_func
 5160              	USB_StopHost:
 5161              	.LVL365:
 5162              	.LFB187:
2284:Drivers/STM32F7xx_HAL_Driver/Src/stm32f7xx_ll_usb.c **** 
2285:Drivers/STM32F7xx_HAL_Driver/Src/stm32f7xx_ll_usb.c **** /**
2286:Drivers/STM32F7xx_HAL_Driver/Src/stm32f7xx_ll_usb.c ****   * @brief  Stop Host Core
2287:Drivers/STM32F7xx_HAL_Driver/Src/stm32f7xx_ll_usb.c ****   * @param  USBx  Selected device
2288:Drivers/STM32F7xx_HAL_Driver/Src/stm32f7xx_ll_usb.c ****   * @retval HAL state
2289:Drivers/STM32F7xx_HAL_Driver/Src/stm32f7xx_ll_usb.c ****   */
2290:Drivers/STM32F7xx_HAL_Driver/Src/stm32f7xx_ll_usb.c **** HAL_StatusTypeDef USB_StopHost(USB_OTG_GlobalTypeDef *USBx)
2291:Drivers/STM32F7xx_HAL_Driver/Src/stm32f7xx_ll_usb.c **** {
 5163              		.loc 1 2291 1 is_stmt 1 view -0
 5164              		.cfi_startproc
 5165              		@ args = 0, pretend = 0, frame = 8
 5166              		@ frame_needed = 0, uses_anonymous_args = 0
ARM GAS  /var/folders/8d/8djywmp92nx9cg9c5pcw0px00000gn/T//ccLp59Ij.s 			page 156


 5167              		.loc 1 2291 1 is_stmt 0 view .LVU1790
 5168 0000 30B5     		push	{r4, r5, lr}
 5169              		.cfi_def_cfa_offset 12
 5170              		.cfi_offset 4, -12
 5171              		.cfi_offset 5, -8
 5172              		.cfi_offset 14, -4
 5173 0002 83B0     		sub	sp, sp, #12
 5174              		.cfi_def_cfa_offset 24
 5175 0004 0446     		mov	r4, r0
2292:Drivers/STM32F7xx_HAL_Driver/Src/stm32f7xx_ll_usb.c ****   HAL_StatusTypeDef ret = HAL_OK;
 5176              		.loc 1 2292 3 is_stmt 1 view .LVU1791
 5177              	.LVL366:
2293:Drivers/STM32F7xx_HAL_Driver/Src/stm32f7xx_ll_usb.c ****   uint32_t USBx_BASE = (uint32_t)USBx;
 5178              		.loc 1 2293 3 view .LVU1792
2294:Drivers/STM32F7xx_HAL_Driver/Src/stm32f7xx_ll_usb.c ****   __IO uint32_t count = 0U;
 5179              		.loc 1 2294 3 view .LVU1793
 5180              		.loc 1 2294 17 is_stmt 0 view .LVU1794
 5181 0006 0023     		movs	r3, #0
 5182 0008 0193     		str	r3, [sp, #4]
2295:Drivers/STM32F7xx_HAL_Driver/Src/stm32f7xx_ll_usb.c ****   uint32_t value;
 5183              		.loc 1 2295 3 is_stmt 1 view .LVU1795
2296:Drivers/STM32F7xx_HAL_Driver/Src/stm32f7xx_ll_usb.c ****   uint32_t i;
 5184              		.loc 1 2296 3 view .LVU1796
2297:Drivers/STM32F7xx_HAL_Driver/Src/stm32f7xx_ll_usb.c **** 
2298:Drivers/STM32F7xx_HAL_Driver/Src/stm32f7xx_ll_usb.c ****   (void)USB_DisableGlobalInt(USBx);
 5185              		.loc 1 2298 3 view .LVU1797
 5186              		.loc 1 2298 9 is_stmt 0 view .LVU1798
 5187 000a FFF7FEFF 		bl	USB_DisableGlobalInt
 5188              	.LVL367:
2299:Drivers/STM32F7xx_HAL_Driver/Src/stm32f7xx_ll_usb.c **** 
2300:Drivers/STM32F7xx_HAL_Driver/Src/stm32f7xx_ll_usb.c ****   /* Flush USB FIFO */
2301:Drivers/STM32F7xx_HAL_Driver/Src/stm32f7xx_ll_usb.c ****   if (USB_FlushTxFifo(USBx, 0x10U) != HAL_OK) /* all Tx FIFOs */
 5189              		.loc 1 2301 3 is_stmt 1 view .LVU1799
 5190              		.loc 1 2301 7 is_stmt 0 view .LVU1800
 5191 000e 1021     		movs	r1, #16
 5192 0010 2046     		mov	r0, r4
 5193 0012 FFF7FEFF 		bl	USB_FlushTxFifo
 5194              	.LVL368:
 5195              		.loc 1 2301 6 discriminator 1 view .LVU1801
 5196 0016 0546     		mov	r5, r0
 5197 0018 00B1     		cbz	r0, .L340
2302:Drivers/STM32F7xx_HAL_Driver/Src/stm32f7xx_ll_usb.c ****   {
2303:Drivers/STM32F7xx_HAL_Driver/Src/stm32f7xx_ll_usb.c ****     ret = HAL_ERROR;
 5198              		.loc 1 2303 9 view .LVU1802
 5199 001a 0125     		movs	r5, #1
 5200              	.L340:
 5201              	.LVL369:
2304:Drivers/STM32F7xx_HAL_Driver/Src/stm32f7xx_ll_usb.c ****   }
2305:Drivers/STM32F7xx_HAL_Driver/Src/stm32f7xx_ll_usb.c **** 
2306:Drivers/STM32F7xx_HAL_Driver/Src/stm32f7xx_ll_usb.c ****   if (USB_FlushRxFifo(USBx) != HAL_OK)
 5202              		.loc 1 2306 3 is_stmt 1 view .LVU1803
 5203              		.loc 1 2306 7 is_stmt 0 view .LVU1804
 5204 001c 2046     		mov	r0, r4
 5205 001e FFF7FEFF 		bl	USB_FlushRxFifo
 5206              	.LVL370:
 5207              		.loc 1 2306 6 discriminator 1 view .LVU1805
 5208 0022 00B1     		cbz	r0, .L341
ARM GAS  /var/folders/8d/8djywmp92nx9cg9c5pcw0px00000gn/T//ccLp59Ij.s 			page 157


2307:Drivers/STM32F7xx_HAL_Driver/Src/stm32f7xx_ll_usb.c ****   {
2308:Drivers/STM32F7xx_HAL_Driver/Src/stm32f7xx_ll_usb.c ****     ret = HAL_ERROR;
 5209              		.loc 1 2308 9 view .LVU1806
 5210 0024 0125     		movs	r5, #1
 5211              	.LVL371:
 5212              	.L341:
2309:Drivers/STM32F7xx_HAL_Driver/Src/stm32f7xx_ll_usb.c ****   }
2310:Drivers/STM32F7xx_HAL_Driver/Src/stm32f7xx_ll_usb.c **** 
2311:Drivers/STM32F7xx_HAL_Driver/Src/stm32f7xx_ll_usb.c ****   /* Flush out any leftover queued requests. */
2312:Drivers/STM32F7xx_HAL_Driver/Src/stm32f7xx_ll_usb.c ****   for (i = 0U; i <= 15U; i++)
 5213              		.loc 1 2312 3 is_stmt 1 view .LVU1807
 5214              		.loc 1 2312 10 is_stmt 0 view .LVU1808
 5215 0026 0022     		movs	r2, #0
 5216              		.loc 1 2312 3 view .LVU1809
 5217 0028 0AE0     		b	.L342
 5218              	.LVL372:
 5219              	.L343:
2313:Drivers/STM32F7xx_HAL_Driver/Src/stm32f7xx_ll_usb.c ****   {
2314:Drivers/STM32F7xx_HAL_Driver/Src/stm32f7xx_ll_usb.c ****     value = USBx_HC(i)->HCCHAR;
 5220              		.loc 1 2314 5 is_stmt 1 view .LVU1810
 5221              		.loc 1 2314 13 is_stmt 0 view .LVU1811
 5222 002a 04EB4211 		add	r1, r4, r2, lsl #5
 5223              		.loc 1 2314 11 view .LVU1812
 5224 002e D1F80035 		ldr	r3, [r1, #1280]
 5225              	.LVL373:
2315:Drivers/STM32F7xx_HAL_Driver/Src/stm32f7xx_ll_usb.c ****     value |=  USB_OTG_HCCHAR_CHDIS;
 5226              		.loc 1 2315 5 is_stmt 1 view .LVU1813
2316:Drivers/STM32F7xx_HAL_Driver/Src/stm32f7xx_ll_usb.c ****     value &= ~USB_OTG_HCCHAR_CHENA;
 5227              		.loc 1 2316 5 view .LVU1814
2317:Drivers/STM32F7xx_HAL_Driver/Src/stm32f7xx_ll_usb.c ****     value &= ~USB_OTG_HCCHAR_EPDIR;
 5228              		.loc 1 2317 5 view .LVU1815
 5229 0032 23F08023 		bic	r3, r3, #-2147450880
 5230              	.LVL374:
 5231              		.loc 1 2317 11 is_stmt 0 view .LVU1816
 5232 0036 43F08043 		orr	r3, r3, #1073741824
 5233              	.LVL375:
2318:Drivers/STM32F7xx_HAL_Driver/Src/stm32f7xx_ll_usb.c ****     USBx_HC(i)->HCCHAR = value;
 5234              		.loc 1 2318 5 is_stmt 1 view .LVU1817
 5235              		.loc 1 2318 24 is_stmt 0 view .LVU1818
 5236 003a C1F80035 		str	r3, [r1, #1280]
2312:Drivers/STM32F7xx_HAL_Driver/Src/stm32f7xx_ll_usb.c ****   {
 5237              		.loc 1 2312 27 is_stmt 1 discriminator 3 view .LVU1819
 5238 003e 0132     		adds	r2, r2, #1
 5239              	.LVL376:
 5240              	.L342:
2312:Drivers/STM32F7xx_HAL_Driver/Src/stm32f7xx_ll_usb.c ****   {
 5241              		.loc 1 2312 18 discriminator 1 view .LVU1820
 5242 0040 0F2A     		cmp	r2, #15
 5243 0042 F2D9     		bls	.L343
2319:Drivers/STM32F7xx_HAL_Driver/Src/stm32f7xx_ll_usb.c ****   }
2320:Drivers/STM32F7xx_HAL_Driver/Src/stm32f7xx_ll_usb.c **** 
2321:Drivers/STM32F7xx_HAL_Driver/Src/stm32f7xx_ll_usb.c ****   /* Halt all channels to put them into a known state. */
2322:Drivers/STM32F7xx_HAL_Driver/Src/stm32f7xx_ll_usb.c ****   for (i = 0U; i <= 15U; i++)
 5244              		.loc 1 2322 10 is_stmt 0 view .LVU1821
 5245 0044 0021     		movs	r1, #0
 5246 0046 00E0     		b	.L344
 5247              	.LVL377:
ARM GAS  /var/folders/8d/8djywmp92nx9cg9c5pcw0px00000gn/T//ccLp59Ij.s 			page 158


 5248              	.L345:
 5249              		.loc 1 2322 27 is_stmt 1 discriminator 2 view .LVU1822
 5250 0048 0131     		adds	r1, r1, #1
 5251              	.LVL378:
 5252              	.L344:
 5253              		.loc 1 2322 18 discriminator 1 view .LVU1823
 5254 004a 0F29     		cmp	r1, #15
 5255 004c 16D8     		bhi	.L351
2323:Drivers/STM32F7xx_HAL_Driver/Src/stm32f7xx_ll_usb.c ****   {
2324:Drivers/STM32F7xx_HAL_Driver/Src/stm32f7xx_ll_usb.c ****     value = USBx_HC(i)->HCCHAR;
 5256              		.loc 1 2324 5 view .LVU1824
 5257              		.loc 1 2324 13 is_stmt 0 view .LVU1825
 5258 004e 04EB4110 		add	r0, r4, r1, lsl #5
 5259 0052 00F5A062 		add	r2, r0, #1280
 5260              		.loc 1 2324 11 view .LVU1826
 5261 0056 D0F80035 		ldr	r3, [r0, #1280]
 5262              	.LVL379:
2325:Drivers/STM32F7xx_HAL_Driver/Src/stm32f7xx_ll_usb.c ****     value |= USB_OTG_HCCHAR_CHDIS;
 5263              		.loc 1 2325 5 is_stmt 1 view .LVU1827
2326:Drivers/STM32F7xx_HAL_Driver/Src/stm32f7xx_ll_usb.c ****     value |= USB_OTG_HCCHAR_CHENA;
 5264              		.loc 1 2326 5 view .LVU1828
2327:Drivers/STM32F7xx_HAL_Driver/Src/stm32f7xx_ll_usb.c ****     value &= ~USB_OTG_HCCHAR_EPDIR;
 5265              		.loc 1 2327 5 view .LVU1829
 5266 005a 23F40043 		bic	r3, r3, #32768
 5267              	.LVL380:
 5268              		.loc 1 2327 11 is_stmt 0 view .LVU1830
 5269 005e 43F04043 		orr	r3, r3, #-1073741824
 5270              	.LVL381:
2328:Drivers/STM32F7xx_HAL_Driver/Src/stm32f7xx_ll_usb.c ****     USBx_HC(i)->HCCHAR = value;
 5271              		.loc 1 2328 5 is_stmt 1 view .LVU1831
 5272              		.loc 1 2328 24 is_stmt 0 view .LVU1832
 5273 0062 C0F80035 		str	r3, [r0, #1280]
 5274              	.LVL382:
 5275              	.L346:
2329:Drivers/STM32F7xx_HAL_Driver/Src/stm32f7xx_ll_usb.c **** 
2330:Drivers/STM32F7xx_HAL_Driver/Src/stm32f7xx_ll_usb.c ****     do
 5276              		.loc 1 2330 5 is_stmt 1 view .LVU1833
2331:Drivers/STM32F7xx_HAL_Driver/Src/stm32f7xx_ll_usb.c ****     {
2332:Drivers/STM32F7xx_HAL_Driver/Src/stm32f7xx_ll_usb.c ****       count++;
 5277              		.loc 1 2332 7 view .LVU1834
 5278              		.loc 1 2332 12 is_stmt 0 view .LVU1835
 5279 0066 019B     		ldr	r3, [sp, #4]
 5280 0068 0133     		adds	r3, r3, #1
 5281 006a 0193     		str	r3, [sp, #4]
2333:Drivers/STM32F7xx_HAL_Driver/Src/stm32f7xx_ll_usb.c **** 
2334:Drivers/STM32F7xx_HAL_Driver/Src/stm32f7xx_ll_usb.c ****       if (count > 1000U)
 5282              		.loc 1 2334 7 is_stmt 1 view .LVU1836
 5283              		.loc 1 2334 17 is_stmt 0 view .LVU1837
 5284 006c 019B     		ldr	r3, [sp, #4]
 5285              		.loc 1 2334 10 view .LVU1838
 5286 006e B3F57A7F 		cmp	r3, #1000
 5287 0072 E9D8     		bhi	.L345
2335:Drivers/STM32F7xx_HAL_Driver/Src/stm32f7xx_ll_usb.c ****       {
2336:Drivers/STM32F7xx_HAL_Driver/Src/stm32f7xx_ll_usb.c ****         break;
2337:Drivers/STM32F7xx_HAL_Driver/Src/stm32f7xx_ll_usb.c ****       }
2338:Drivers/STM32F7xx_HAL_Driver/Src/stm32f7xx_ll_usb.c ****     } while ((USBx_HC(i)->HCCHAR & USB_OTG_HCCHAR_CHENA) == USB_OTG_HCCHAR_CHENA);
 5288              		.loc 1 2338 58 is_stmt 1 view .LVU1839
ARM GAS  /var/folders/8d/8djywmp92nx9cg9c5pcw0px00000gn/T//ccLp59Ij.s 			page 159


 5289              		.loc 1 2338 25 is_stmt 0 view .LVU1840
 5290 0074 1368     		ldr	r3, [r2]
 5291              		.loc 1 2338 58 view .LVU1841
 5292 0076 002B     		cmp	r3, #0
 5293 0078 F5DB     		blt	.L346
 5294 007a E5E7     		b	.L345
 5295              	.LVL383:
 5296              	.L351:
2339:Drivers/STM32F7xx_HAL_Driver/Src/stm32f7xx_ll_usb.c ****   }
2340:Drivers/STM32F7xx_HAL_Driver/Src/stm32f7xx_ll_usb.c **** 
2341:Drivers/STM32F7xx_HAL_Driver/Src/stm32f7xx_ll_usb.c ****   /* Clear any pending Host interrupts */
2342:Drivers/STM32F7xx_HAL_Driver/Src/stm32f7xx_ll_usb.c ****   USBx_HOST->HAINT = CLEAR_INTERRUPT_MASK;
 5297              		.loc 1 2342 3 is_stmt 1 view .LVU1842
 5298              		.loc 1 2342 20 is_stmt 0 view .LVU1843
 5299 007c 4FF0FF33 		mov	r3, #-1
 5300 0080 C4F81434 		str	r3, [r4, #1044]
2343:Drivers/STM32F7xx_HAL_Driver/Src/stm32f7xx_ll_usb.c ****   USBx->GINTSTS = CLEAR_INTERRUPT_MASK;
 5301              		.loc 1 2343 3 is_stmt 1 view .LVU1844
 5302              		.loc 1 2343 17 is_stmt 0 view .LVU1845
 5303 0084 6361     		str	r3, [r4, #20]
2344:Drivers/STM32F7xx_HAL_Driver/Src/stm32f7xx_ll_usb.c **** 
2345:Drivers/STM32F7xx_HAL_Driver/Src/stm32f7xx_ll_usb.c ****   (void)USB_EnableGlobalInt(USBx);
 5304              		.loc 1 2345 3 is_stmt 1 view .LVU1846
 5305              		.loc 1 2345 9 is_stmt 0 view .LVU1847
 5306 0086 2046     		mov	r0, r4
 5307 0088 FFF7FEFF 		bl	USB_EnableGlobalInt
 5308              	.LVL384:
2346:Drivers/STM32F7xx_HAL_Driver/Src/stm32f7xx_ll_usb.c **** 
2347:Drivers/STM32F7xx_HAL_Driver/Src/stm32f7xx_ll_usb.c ****   return ret;
 5309              		.loc 1 2347 3 is_stmt 1 view .LVU1848
2348:Drivers/STM32F7xx_HAL_Driver/Src/stm32f7xx_ll_usb.c **** }
 5310              		.loc 1 2348 1 is_stmt 0 view .LVU1849
 5311 008c 2846     		mov	r0, r5
 5312 008e 03B0     		add	sp, sp, #12
 5313              		.cfi_def_cfa_offset 12
 5314              		@ sp needed
 5315 0090 30BD     		pop	{r4, r5, pc}
 5316              		.loc 1 2348 1 view .LVU1850
 5317              		.cfi_endproc
 5318              	.LFE187:
 5320              		.section	.text.USB_ActivateRemoteWakeup,"ax",%progbits
 5321              		.align	1
 5322              		.global	USB_ActivateRemoteWakeup
 5323              		.syntax unified
 5324              		.thumb
 5325              		.thumb_func
 5327              	USB_ActivateRemoteWakeup:
 5328              	.LVL385:
 5329              	.LFB188:
2349:Drivers/STM32F7xx_HAL_Driver/Src/stm32f7xx_ll_usb.c **** 
2350:Drivers/STM32F7xx_HAL_Driver/Src/stm32f7xx_ll_usb.c **** /**
2351:Drivers/STM32F7xx_HAL_Driver/Src/stm32f7xx_ll_usb.c ****   * @brief  USB_ActivateRemoteWakeup active remote wakeup signalling
2352:Drivers/STM32F7xx_HAL_Driver/Src/stm32f7xx_ll_usb.c ****   * @param  USBx Selected device
2353:Drivers/STM32F7xx_HAL_Driver/Src/stm32f7xx_ll_usb.c ****   * @retval HAL status
2354:Drivers/STM32F7xx_HAL_Driver/Src/stm32f7xx_ll_usb.c ****   */
2355:Drivers/STM32F7xx_HAL_Driver/Src/stm32f7xx_ll_usb.c **** HAL_StatusTypeDef USB_ActivateRemoteWakeup(const USB_OTG_GlobalTypeDef *USBx)
2356:Drivers/STM32F7xx_HAL_Driver/Src/stm32f7xx_ll_usb.c **** {
ARM GAS  /var/folders/8d/8djywmp92nx9cg9c5pcw0px00000gn/T//ccLp59Ij.s 			page 160


 5330              		.loc 1 2356 1 is_stmt 1 view -0
 5331              		.cfi_startproc
 5332              		@ args = 0, pretend = 0, frame = 0
 5333              		@ frame_needed = 0, uses_anonymous_args = 0
 5334              		@ link register save eliminated.
2357:Drivers/STM32F7xx_HAL_Driver/Src/stm32f7xx_ll_usb.c ****   uint32_t USBx_BASE = (uint32_t)USBx;
 5335              		.loc 1 2357 3 view .LVU1852
2358:Drivers/STM32F7xx_HAL_Driver/Src/stm32f7xx_ll_usb.c **** 
2359:Drivers/STM32F7xx_HAL_Driver/Src/stm32f7xx_ll_usb.c ****   if ((USBx_DEVICE->DSTS & USB_OTG_DSTS_SUSPSTS) == USB_OTG_DSTS_SUSPSTS)
 5336              		.loc 1 2359 3 view .LVU1853
 5337              		.loc 1 2359 19 is_stmt 0 view .LVU1854
 5338 0000 D0F80838 		ldr	r3, [r0, #2056]
 5339              		.loc 1 2359 8 view .LVU1855
 5340 0004 00F50060 		add	r0, r0, #2048
 5341              	.LVL386:
 5342              		.loc 1 2359 6 view .LVU1856
 5343 0008 13F0010F 		tst	r3, #1
 5344 000c 03D0     		beq	.L353
2360:Drivers/STM32F7xx_HAL_Driver/Src/stm32f7xx_ll_usb.c ****   {
2361:Drivers/STM32F7xx_HAL_Driver/Src/stm32f7xx_ll_usb.c ****     /* active Remote wakeup signalling */
2362:Drivers/STM32F7xx_HAL_Driver/Src/stm32f7xx_ll_usb.c ****     USBx_DEVICE->DCTL |= USB_OTG_DCTL_RWUSIG;
 5345              		.loc 1 2362 5 is_stmt 1 view .LVU1857
 5346              		.loc 1 2362 16 is_stmt 0 view .LVU1858
 5347 000e 4368     		ldr	r3, [r0, #4]
 5348              		.loc 1 2362 23 view .LVU1859
 5349 0010 43F00103 		orr	r3, r3, #1
 5350 0014 4360     		str	r3, [r0, #4]
 5351              	.L353:
2363:Drivers/STM32F7xx_HAL_Driver/Src/stm32f7xx_ll_usb.c ****   }
2364:Drivers/STM32F7xx_HAL_Driver/Src/stm32f7xx_ll_usb.c **** 
2365:Drivers/STM32F7xx_HAL_Driver/Src/stm32f7xx_ll_usb.c ****   return HAL_OK;
 5352              		.loc 1 2365 3 is_stmt 1 view .LVU1860
2366:Drivers/STM32F7xx_HAL_Driver/Src/stm32f7xx_ll_usb.c **** }
 5353              		.loc 1 2366 1 is_stmt 0 view .LVU1861
 5354 0016 0020     		movs	r0, #0
 5355              	.LVL387:
 5356              		.loc 1 2366 1 view .LVU1862
 5357 0018 7047     		bx	lr
 5358              		.cfi_endproc
 5359              	.LFE188:
 5361              		.section	.text.USB_DeActivateRemoteWakeup,"ax",%progbits
 5362              		.align	1
 5363              		.global	USB_DeActivateRemoteWakeup
 5364              		.syntax unified
 5365              		.thumb
 5366              		.thumb_func
 5368              	USB_DeActivateRemoteWakeup:
 5369              	.LVL388:
 5370              	.LFB189:
2367:Drivers/STM32F7xx_HAL_Driver/Src/stm32f7xx_ll_usb.c **** 
2368:Drivers/STM32F7xx_HAL_Driver/Src/stm32f7xx_ll_usb.c **** /**
2369:Drivers/STM32F7xx_HAL_Driver/Src/stm32f7xx_ll_usb.c ****   * @brief  USB_DeActivateRemoteWakeup de-active remote wakeup signalling
2370:Drivers/STM32F7xx_HAL_Driver/Src/stm32f7xx_ll_usb.c ****   * @param  USBx Selected device
2371:Drivers/STM32F7xx_HAL_Driver/Src/stm32f7xx_ll_usb.c ****   * @retval HAL status
2372:Drivers/STM32F7xx_HAL_Driver/Src/stm32f7xx_ll_usb.c ****   */
2373:Drivers/STM32F7xx_HAL_Driver/Src/stm32f7xx_ll_usb.c **** HAL_StatusTypeDef USB_DeActivateRemoteWakeup(const USB_OTG_GlobalTypeDef *USBx)
2374:Drivers/STM32F7xx_HAL_Driver/Src/stm32f7xx_ll_usb.c **** {
ARM GAS  /var/folders/8d/8djywmp92nx9cg9c5pcw0px00000gn/T//ccLp59Ij.s 			page 161


 5371              		.loc 1 2374 1 is_stmt 1 view -0
 5372              		.cfi_startproc
 5373              		@ args = 0, pretend = 0, frame = 0
 5374              		@ frame_needed = 0, uses_anonymous_args = 0
 5375              		@ link register save eliminated.
2375:Drivers/STM32F7xx_HAL_Driver/Src/stm32f7xx_ll_usb.c ****   uint32_t USBx_BASE = (uint32_t)USBx;
 5376              		.loc 1 2375 3 view .LVU1864
2376:Drivers/STM32F7xx_HAL_Driver/Src/stm32f7xx_ll_usb.c **** 
2377:Drivers/STM32F7xx_HAL_Driver/Src/stm32f7xx_ll_usb.c ****   /* active Remote wakeup signalling */
2378:Drivers/STM32F7xx_HAL_Driver/Src/stm32f7xx_ll_usb.c ****   USBx_DEVICE->DCTL &= ~(USB_OTG_DCTL_RWUSIG);
 5377              		.loc 1 2378 3 view .LVU1865
 5378              		.loc 1 2378 14 is_stmt 0 view .LVU1866
 5379 0000 D0F80438 		ldr	r3, [r0, #2052]
 5380              		.loc 1 2378 21 view .LVU1867
 5381 0004 23F00103 		bic	r3, r3, #1
 5382 0008 C0F80438 		str	r3, [r0, #2052]
2379:Drivers/STM32F7xx_HAL_Driver/Src/stm32f7xx_ll_usb.c **** 
2380:Drivers/STM32F7xx_HAL_Driver/Src/stm32f7xx_ll_usb.c ****   return HAL_OK;
 5383              		.loc 1 2380 3 is_stmt 1 view .LVU1868
2381:Drivers/STM32F7xx_HAL_Driver/Src/stm32f7xx_ll_usb.c **** }
 5384              		.loc 1 2381 1 is_stmt 0 view .LVU1869
 5385 000c 0020     		movs	r0, #0
 5386              	.LVL389:
 5387              		.loc 1 2381 1 view .LVU1870
 5388 000e 7047     		bx	lr
 5389              		.cfi_endproc
 5390              	.LFE189:
 5392              		.text
 5393              	.Letext0:
 5394              		.file 2 "/Users/isaiah.beckermayer/Library/Application Support/Cursor/User/globalStorage/bmd.stm32
 5395              		.file 3 "/Users/isaiah.beckermayer/Library/Application Support/Cursor/User/globalStorage/bmd.stm32
 5396              		.file 4 "Drivers/CMSIS/Include/cmsis_gcc.h"
 5397              		.file 5 "Drivers/CMSIS/Device/ST/STM32F7xx/Include/stm32f767xx.h"
 5398              		.file 6 "Drivers/STM32F7xx_HAL_Driver/Inc/stm32f7xx_hal_def.h"
 5399              		.file 7 "Drivers/STM32F7xx_HAL_Driver/Inc/stm32f7xx_ll_usb.h"
 5400              		.file 8 "Drivers/STM32F7xx_HAL_Driver/Inc/stm32f7xx_hal.h"
ARM GAS  /var/folders/8d/8djywmp92nx9cg9c5pcw0px00000gn/T//ccLp59Ij.s 			page 162


DEFINED SYMBOLS
                            *ABS*:00000000 stm32f7xx_ll_usb.c
/var/folders/8d/8djywmp92nx9cg9c5pcw0px00000gn/T//ccLp59Ij.s:20     .text.USB_CoreReset:00000000 $t
/var/folders/8d/8djywmp92nx9cg9c5pcw0px00000gn/T//ccLp59Ij.s:25     .text.USB_CoreReset:00000000 USB_CoreReset
/var/folders/8d/8djywmp92nx9cg9c5pcw0px00000gn/T//ccLp59Ij.s:117    .text.USB_CoreInit:00000000 $t
/var/folders/8d/8djywmp92nx9cg9c5pcw0px00000gn/T//ccLp59Ij.s:123    .text.USB_CoreInit:00000000 USB_CoreInit
/var/folders/8d/8djywmp92nx9cg9c5pcw0px00000gn/T//ccLp59Ij.s:246    .text.USB_CoreInit:00000080 $d
/var/folders/8d/8djywmp92nx9cg9c5pcw0px00000gn/T//ccLp59Ij.s:251    .text.USB_SetTurnaroundTime:00000000 $t
/var/folders/8d/8djywmp92nx9cg9c5pcw0px00000gn/T//ccLp59Ij.s:257    .text.USB_SetTurnaroundTime:00000000 USB_SetTurnaroundTime
/var/folders/8d/8djywmp92nx9cg9c5pcw0px00000gn/T//ccLp59Ij.s:410    .text.USB_SetTurnaroundTime:0000009c $d
/var/folders/8d/8djywmp92nx9cg9c5pcw0px00000gn/T//ccLp59Ij.s:432    .text.USB_EnableGlobalInt:00000000 $t
/var/folders/8d/8djywmp92nx9cg9c5pcw0px00000gn/T//ccLp59Ij.s:438    .text.USB_EnableGlobalInt:00000000 USB_EnableGlobalInt
/var/folders/8d/8djywmp92nx9cg9c5pcw0px00000gn/T//ccLp59Ij.s:462    .text.USB_DisableGlobalInt:00000000 $t
/var/folders/8d/8djywmp92nx9cg9c5pcw0px00000gn/T//ccLp59Ij.s:468    .text.USB_DisableGlobalInt:00000000 USB_DisableGlobalInt
/var/folders/8d/8djywmp92nx9cg9c5pcw0px00000gn/T//ccLp59Ij.s:492    .text.USB_FlushTxFifo:00000000 $t
/var/folders/8d/8djywmp92nx9cg9c5pcw0px00000gn/T//ccLp59Ij.s:498    .text.USB_FlushTxFifo:00000000 USB_FlushTxFifo
/var/folders/8d/8djywmp92nx9cg9c5pcw0px00000gn/T//ccLp59Ij.s:592    .text.USB_FlushRxFifo:00000000 $t
/var/folders/8d/8djywmp92nx9cg9c5pcw0px00000gn/T//ccLp59Ij.s:598    .text.USB_FlushRxFifo:00000000 USB_FlushRxFifo
/var/folders/8d/8djywmp92nx9cg9c5pcw0px00000gn/T//ccLp59Ij.s:688    .text.USB_SetDevSpeed:00000000 $t
/var/folders/8d/8djywmp92nx9cg9c5pcw0px00000gn/T//ccLp59Ij.s:694    .text.USB_SetDevSpeed:00000000 USB_SetDevSpeed
/var/folders/8d/8djywmp92nx9cg9c5pcw0px00000gn/T//ccLp59Ij.s:721    .text.USB_DevInit:00000000 $t
/var/folders/8d/8djywmp92nx9cg9c5pcw0px00000gn/T//ccLp59Ij.s:727    .text.USB_DevInit:00000000 USB_DevInit
/var/folders/8d/8djywmp92nx9cg9c5pcw0px00000gn/T//ccLp59Ij.s:1074   .text.USB_DevInit:00000184 $d
/var/folders/8d/8djywmp92nx9cg9c5pcw0px00000gn/T//ccLp59Ij.s:1080   .text.USB_GetDevSpeed:00000000 $t
/var/folders/8d/8djywmp92nx9cg9c5pcw0px00000gn/T//ccLp59Ij.s:1086   .text.USB_GetDevSpeed:00000000 USB_GetDevSpeed
/var/folders/8d/8djywmp92nx9cg9c5pcw0px00000gn/T//ccLp59Ij.s:1139   .text.USB_ActivateEndpoint:00000000 $t
/var/folders/8d/8djywmp92nx9cg9c5pcw0px00000gn/T//ccLp59Ij.s:1145   .text.USB_ActivateEndpoint:00000000 USB_ActivateEndpoint
/var/folders/8d/8djywmp92nx9cg9c5pcw0px00000gn/T//ccLp59Ij.s:1259   .text.USB_ActivateEndpoint:00000094 $d
/var/folders/8d/8djywmp92nx9cg9c5pcw0px00000gn/T//ccLp59Ij.s:1264   .text.USB_ActivateDedicatedEndpoint:00000000 $t
/var/folders/8d/8djywmp92nx9cg9c5pcw0px00000gn/T//ccLp59Ij.s:1270   .text.USB_ActivateDedicatedEndpoint:00000000 USB_ActivateDedicatedEndpoint
/var/folders/8d/8djywmp92nx9cg9c5pcw0px00000gn/T//ccLp59Ij.s:1402   .text.USB_ActivateDedicatedEndpoint:0000009c $d
/var/folders/8d/8djywmp92nx9cg9c5pcw0px00000gn/T//ccLp59Ij.s:1407   .text.USB_DeactivateEndpoint:00000000 $t
/var/folders/8d/8djywmp92nx9cg9c5pcw0px00000gn/T//ccLp59Ij.s:1413   .text.USB_DeactivateEndpoint:00000000 USB_DeactivateEndpoint
/var/folders/8d/8djywmp92nx9cg9c5pcw0px00000gn/T//ccLp59Ij.s:1581   .text.USB_DeactivateEndpoint:000000d8 $d
/var/folders/8d/8djywmp92nx9cg9c5pcw0px00000gn/T//ccLp59Ij.s:1587   .text.USB_DeactivateDedicatedEndpoint:00000000 $t
/var/folders/8d/8djywmp92nx9cg9c5pcw0px00000gn/T//ccLp59Ij.s:1593   .text.USB_DeactivateDedicatedEndpoint:00000000 USB_DeactivateDedicatedEndpoint
/var/folders/8d/8djywmp92nx9cg9c5pcw0px00000gn/T//ccLp59Ij.s:1722   .text.USB_EPStopXfer:00000000 $t
/var/folders/8d/8djywmp92nx9cg9c5pcw0px00000gn/T//ccLp59Ij.s:1728   .text.USB_EPStopXfer:00000000 USB_EPStopXfer
/var/folders/8d/8djywmp92nx9cg9c5pcw0px00000gn/T//ccLp59Ij.s:1885   .text.USB_WritePacket:00000000 $t
/var/folders/8d/8djywmp92nx9cg9c5pcw0px00000gn/T//ccLp59Ij.s:1891   .text.USB_WritePacket:00000000 USB_WritePacket
/var/folders/8d/8djywmp92nx9cg9c5pcw0px00000gn/T//ccLp59Ij.s:1959   .text.USB_EPStartXfer:00000000 $t
/var/folders/8d/8djywmp92nx9cg9c5pcw0px00000gn/T//ccLp59Ij.s:1965   .text.USB_EPStartXfer:00000000 USB_EPStartXfer
/var/folders/8d/8djywmp92nx9cg9c5pcw0px00000gn/T//ccLp59Ij.s:2425   .text.USB_EPStartXfer:00000234 $d
/var/folders/8d/8djywmp92nx9cg9c5pcw0px00000gn/T//ccLp59Ij.s:2430   .text.USB_ReadPacket:00000000 $t
/var/folders/8d/8djywmp92nx9cg9c5pcw0px00000gn/T//ccLp59Ij.s:2436   .text.USB_ReadPacket:00000000 USB_ReadPacket
/var/folders/8d/8djywmp92nx9cg9c5pcw0px00000gn/T//ccLp59Ij.s:2534   .text.USB_EPSetStall:00000000 $t
/var/folders/8d/8djywmp92nx9cg9c5pcw0px00000gn/T//ccLp59Ij.s:2540   .text.USB_EPSetStall:00000000 USB_EPSetStall
/var/folders/8d/8djywmp92nx9cg9c5pcw0px00000gn/T//ccLp59Ij.s:2623   .text.USB_EPClearStall:00000000 $t
/var/folders/8d/8djywmp92nx9cg9c5pcw0px00000gn/T//ccLp59Ij.s:2629   .text.USB_EPClearStall:00000000 USB_EPClearStall
/var/folders/8d/8djywmp92nx9cg9c5pcw0px00000gn/T//ccLp59Ij.s:2714   .text.USB_StopDevice:00000000 $t
/var/folders/8d/8djywmp92nx9cg9c5pcw0px00000gn/T//ccLp59Ij.s:2720   .text.USB_StopDevice:00000000 USB_StopDevice
/var/folders/8d/8djywmp92nx9cg9c5pcw0px00000gn/T//ccLp59Ij.s:2801   .text.USB_SetDevAddress:00000000 $t
/var/folders/8d/8djywmp92nx9cg9c5pcw0px00000gn/T//ccLp59Ij.s:2807   .text.USB_SetDevAddress:00000000 USB_SetDevAddress
/var/folders/8d/8djywmp92nx9cg9c5pcw0px00000gn/T//ccLp59Ij.s:2843   .text.USB_DevConnect:00000000 $t
/var/folders/8d/8djywmp92nx9cg9c5pcw0px00000gn/T//ccLp59Ij.s:2849   .text.USB_DevConnect:00000000 USB_DevConnect
/var/folders/8d/8djywmp92nx9cg9c5pcw0px00000gn/T//ccLp59Ij.s:2879   .text.USB_DevDisconnect:00000000 $t
/var/folders/8d/8djywmp92nx9cg9c5pcw0px00000gn/T//ccLp59Ij.s:2885   .text.USB_DevDisconnect:00000000 USB_DevDisconnect
ARM GAS  /var/folders/8d/8djywmp92nx9cg9c5pcw0px00000gn/T//ccLp59Ij.s 			page 163


/var/folders/8d/8djywmp92nx9cg9c5pcw0px00000gn/T//ccLp59Ij.s:2915   .text.USB_ReadInterrupts:00000000 $t
/var/folders/8d/8djywmp92nx9cg9c5pcw0px00000gn/T//ccLp59Ij.s:2921   .text.USB_ReadInterrupts:00000000 USB_ReadInterrupts
/var/folders/8d/8djywmp92nx9cg9c5pcw0px00000gn/T//ccLp59Ij.s:2948   .text.USB_ReadChInterrupts:00000000 $t
/var/folders/8d/8djywmp92nx9cg9c5pcw0px00000gn/T//ccLp59Ij.s:2954   .text.USB_ReadChInterrupts:00000000 USB_ReadChInterrupts
/var/folders/8d/8djywmp92nx9cg9c5pcw0px00000gn/T//ccLp59Ij.s:2987   .text.USB_ReadDevAllOutEpInterrupt:00000000 $t
/var/folders/8d/8djywmp92nx9cg9c5pcw0px00000gn/T//ccLp59Ij.s:2993   .text.USB_ReadDevAllOutEpInterrupt:00000000 USB_ReadDevAllOutEpInterrupt
/var/folders/8d/8djywmp92nx9cg9c5pcw0px00000gn/T//ccLp59Ij.s:3026   .text.USB_ReadDevAllInEpInterrupt:00000000 $t
/var/folders/8d/8djywmp92nx9cg9c5pcw0px00000gn/T//ccLp59Ij.s:3032   .text.USB_ReadDevAllInEpInterrupt:00000000 USB_ReadDevAllInEpInterrupt
/var/folders/8d/8djywmp92nx9cg9c5pcw0px00000gn/T//ccLp59Ij.s:3065   .text.USB_ReadDevOutEPInterrupt:00000000 $t
/var/folders/8d/8djywmp92nx9cg9c5pcw0px00000gn/T//ccLp59Ij.s:3071   .text.USB_ReadDevOutEPInterrupt:00000000 USB_ReadDevOutEPInterrupt
/var/folders/8d/8djywmp92nx9cg9c5pcw0px00000gn/T//ccLp59Ij.s:3105   .text.USB_ReadDevInEPInterrupt:00000000 $t
/var/folders/8d/8djywmp92nx9cg9c5pcw0px00000gn/T//ccLp59Ij.s:3111   .text.USB_ReadDevInEPInterrupt:00000000 USB_ReadDevInEPInterrupt
/var/folders/8d/8djywmp92nx9cg9c5pcw0px00000gn/T//ccLp59Ij.s:3162   .text.USB_ClearInterrupts:00000000 $t
/var/folders/8d/8djywmp92nx9cg9c5pcw0px00000gn/T//ccLp59Ij.s:3168   .text.USB_ClearInterrupts:00000000 USB_ClearInterrupts
/var/folders/8d/8djywmp92nx9cg9c5pcw0px00000gn/T//ccLp59Ij.s:3188   .text.USB_GetMode:00000000 $t
/var/folders/8d/8djywmp92nx9cg9c5pcw0px00000gn/T//ccLp59Ij.s:3194   .text.USB_GetMode:00000000 USB_GetMode
/var/folders/8d/8djywmp92nx9cg9c5pcw0px00000gn/T//ccLp59Ij.s:3213   .text.USB_SetCurrentMode:00000000 $t
/var/folders/8d/8djywmp92nx9cg9c5pcw0px00000gn/T//ccLp59Ij.s:3219   .text.USB_SetCurrentMode:00000000 USB_SetCurrentMode
/var/folders/8d/8djywmp92nx9cg9c5pcw0px00000gn/T//ccLp59Ij.s:3338   .text.USB_ActivateSetup:00000000 $t
/var/folders/8d/8djywmp92nx9cg9c5pcw0px00000gn/T//ccLp59Ij.s:3344   .text.USB_ActivateSetup:00000000 USB_ActivateSetup
/var/folders/8d/8djywmp92nx9cg9c5pcw0px00000gn/T//ccLp59Ij.s:3375   .text.USB_EP0_OutStart:00000000 $t
/var/folders/8d/8djywmp92nx9cg9c5pcw0px00000gn/T//ccLp59Ij.s:3381   .text.USB_EP0_OutStart:00000000 USB_EP0_OutStart
/var/folders/8d/8djywmp92nx9cg9c5pcw0px00000gn/T//ccLp59Ij.s:3465   .text.USB_EP0_OutStart:0000005c $d
/var/folders/8d/8djywmp92nx9cg9c5pcw0px00000gn/T//ccLp59Ij.s:3470   .text.USB_HostInit:00000000 $t
/var/folders/8d/8djywmp92nx9cg9c5pcw0px00000gn/T//ccLp59Ij.s:3476   .text.USB_HostInit:00000000 USB_HostInit
/var/folders/8d/8djywmp92nx9cg9c5pcw0px00000gn/T//ccLp59Ij.s:3676   .text.USB_HostInit:000000e0 $d
/var/folders/8d/8djywmp92nx9cg9c5pcw0px00000gn/T//ccLp59Ij.s:3684   .text.USB_InitFSLSPClkSel:00000000 $t
/var/folders/8d/8djywmp92nx9cg9c5pcw0px00000gn/T//ccLp59Ij.s:3690   .text.USB_InitFSLSPClkSel:00000000 USB_InitFSLSPClkSel
/var/folders/8d/8djywmp92nx9cg9c5pcw0px00000gn/T//ccLp59Ij.s:3753   .text.USB_ResetPort:00000000 $t
/var/folders/8d/8djywmp92nx9cg9c5pcw0px00000gn/T//ccLp59Ij.s:3759   .text.USB_ResetPort:00000000 USB_ResetPort
/var/folders/8d/8djywmp92nx9cg9c5pcw0px00000gn/T//ccLp59Ij.s:3825   .text.USB_DriveVbus:00000000 $t
/var/folders/8d/8djywmp92nx9cg9c5pcw0px00000gn/T//ccLp59Ij.s:3831   .text.USB_DriveVbus:00000000 USB_DriveVbus
/var/folders/8d/8djywmp92nx9cg9c5pcw0px00000gn/T//ccLp59Ij.s:3907   .text.USB_GetHostSpeed:00000000 $t
/var/folders/8d/8djywmp92nx9cg9c5pcw0px00000gn/T//ccLp59Ij.s:3913   .text.USB_GetHostSpeed:00000000 USB_GetHostSpeed
/var/folders/8d/8djywmp92nx9cg9c5pcw0px00000gn/T//ccLp59Ij.s:3949   .text.USB_GetCurrentFrame:00000000 $t
/var/folders/8d/8djywmp92nx9cg9c5pcw0px00000gn/T//ccLp59Ij.s:3955   .text.USB_GetCurrentFrame:00000000 USB_GetCurrentFrame
/var/folders/8d/8djywmp92nx9cg9c5pcw0px00000gn/T//ccLp59Ij.s:3978   .text.USB_HC_Init:00000000 $t
/var/folders/8d/8djywmp92nx9cg9c5pcw0px00000gn/T//ccLp59Ij.s:3984   .text.USB_HC_Init:00000000 USB_HC_Init
/var/folders/8d/8djywmp92nx9cg9c5pcw0px00000gn/T//ccLp59Ij.s:4025   .text.USB_HC_Init:00000024 $d
/var/folders/8d/8djywmp92nx9cg9c5pcw0px00000gn/T//ccLp59Ij.s:4029   .text.USB_HC_Init:00000028 $t
/var/folders/8d/8djywmp92nx9cg9c5pcw0px00000gn/T//ccLp59Ij.s:4236   .text.USB_HC_Init:00000134 $d
/var/folders/8d/8djywmp92nx9cg9c5pcw0px00000gn/T//ccLp59Ij.s:4241   .text.USB_HC_ReadInterrupt:00000000 $t
/var/folders/8d/8djywmp92nx9cg9c5pcw0px00000gn/T//ccLp59Ij.s:4247   .text.USB_HC_ReadInterrupt:00000000 USB_HC_ReadInterrupt
/var/folders/8d/8djywmp92nx9cg9c5pcw0px00000gn/T//ccLp59Ij.s:4270   .text.USB_HC_Halt:00000000 $t
/var/folders/8d/8djywmp92nx9cg9c5pcw0px00000gn/T//ccLp59Ij.s:4276   .text.USB_HC_Halt:00000000 USB_HC_Halt
/var/folders/8d/8djywmp92nx9cg9c5pcw0px00000gn/T//ccLp59Ij.s:4487   .text.USB_DoPing:00000000 $t
/var/folders/8d/8djywmp92nx9cg9c5pcw0px00000gn/T//ccLp59Ij.s:4493   .text.USB_DoPing:00000000 USB_DoPing
/var/folders/8d/8djywmp92nx9cg9c5pcw0px00000gn/T//ccLp59Ij.s:4533   .text.USB_DoPing:00000020 $d
/var/folders/8d/8djywmp92nx9cg9c5pcw0px00000gn/T//ccLp59Ij.s:4538   .text.USB_HC_StartXfer:00000000 $t
/var/folders/8d/8djywmp92nx9cg9c5pcw0px00000gn/T//ccLp59Ij.s:4544   .text.USB_HC_StartXfer:00000000 USB_HC_StartXfer
/var/folders/8d/8djywmp92nx9cg9c5pcw0px00000gn/T//ccLp59Ij.s:4923   .text.USB_HC_StartXfer:0000019e $d
/var/folders/8d/8djywmp92nx9cg9c5pcw0px00000gn/T//ccLp59Ij.s:4928   .text.USB_HC_StartXfer:000001a2 $t
/var/folders/8d/8djywmp92nx9cg9c5pcw0px00000gn/T//ccLp59Ij.s:4994   .text.USB_HC_StartXfer:000001f0 $d
/var/folders/8d/8djywmp92nx9cg9c5pcw0px00000gn/T//ccLp59Ij.s:4998   .text.USB_HC_StartXfer:000001f4 $t
/var/folders/8d/8djywmp92nx9cg9c5pcw0px00000gn/T//ccLp59Ij.s:5121   .text.USB_HC_StartXfer:00000294 $d
/var/folders/8d/8djywmp92nx9cg9c5pcw0px00000gn/T//ccLp59Ij.s:5128   .text.USB_HC_StartXfer:0000029c $t
/var/folders/8d/8djywmp92nx9cg9c5pcw0px00000gn/T//ccLp59Ij.s:5154   .text.USB_StopHost:00000000 $t
ARM GAS  /var/folders/8d/8djywmp92nx9cg9c5pcw0px00000gn/T//ccLp59Ij.s 			page 164


/var/folders/8d/8djywmp92nx9cg9c5pcw0px00000gn/T//ccLp59Ij.s:5160   .text.USB_StopHost:00000000 USB_StopHost
/var/folders/8d/8djywmp92nx9cg9c5pcw0px00000gn/T//ccLp59Ij.s:5321   .text.USB_ActivateRemoteWakeup:00000000 $t
/var/folders/8d/8djywmp92nx9cg9c5pcw0px00000gn/T//ccLp59Ij.s:5327   .text.USB_ActivateRemoteWakeup:00000000 USB_ActivateRemoteWakeup
/var/folders/8d/8djywmp92nx9cg9c5pcw0px00000gn/T//ccLp59Ij.s:5362   .text.USB_DeActivateRemoteWakeup:00000000 $t
/var/folders/8d/8djywmp92nx9cg9c5pcw0px00000gn/T//ccLp59Ij.s:5368   .text.USB_DeActivateRemoteWakeup:00000000 USB_DeActivateRemoteWakeup

UNDEFINED SYMBOLS
HAL_Delay
